

Microchip Technology PIC18 LITE Macro Assembler V1.32 build 58300 
                                                                                               Mon May 13 20:36:04 2019

Microchip Technology Omniscient Code Generator (Lite mode) build 58300
     1                           	processor	18F45K50
     2                           	fnconf	rparam,??,?,0
     3                           	opt	pw 120
     4                           	opt	lm
     5                           	psect	idataCOMRAM,global,class=CODE,delta=1
     6                           	psect	idataBANK1,global,class=CODE,delta=1
     7                           	psect	smallconst,global,reloc=2,class=SMALLCONST,delta=1
     8                           	psect	cinit,global,reloc=2,class=CODE,delta=1
     9                           	psect	bssCOMRAM,global,class=COMRAM,space=1,delta=1
    10                           	psect	dataCOMRAM,global,class=COMRAM,space=1,delta=1
    11                           	psect	bssBANK0,global,class=BANK0,space=1,delta=1
    12                           	psect	dataBANK1,global,class=BANK1,space=1,delta=1
    13                           	psect	cstackBANK0,global,class=BANK0,space=1,delta=1
    14                           	psect	cstackCOMRAM,global,class=COMRAM,space=1,delta=1
    15                           	psect	text0,global,reloc=2,class=CODE,delta=1
    16                           	psect	text1,global,reloc=2,class=CODE,delta=1
    17                           	psect	text2,global,reloc=2,class=CODE,delta=1
    18                           	psect	text3,global,reloc=2,class=CODE,delta=1
    19                           	psect	text4,global,reloc=2,class=CODE,delta=1
    20                           	psect	text5,global,reloc=2,class=CODE,delta=1
    21                           	psect	text6,global,reloc=2,class=CODE,delta=1
    22                           	psect	text7,global,reloc=2,class=CODE,delta=1
    23                           	psect	text8,global,reloc=2,class=CODE,delta=1
    24                           	psect	text9,global,reloc=2,class=CODE,delta=1
    25                           	psect	text10,global,reloc=2,class=CODE,delta=1
    26                           	psect	text11,global,reloc=2,class=CODE,delta=1
    27                           	psect	text12,global,reloc=2,class=CODE,delta=1
    28                           	psect	text13,global,reloc=2,class=CODE,delta=1
    29                           	psect	text14,global,reloc=2,class=CODE,delta=1
    30                           	psect	text15,global,reloc=2,class=CODE,delta=1
    31                           	psect	text16,global,reloc=2,class=CODE,delta=1
    32                           	psect	text17,global,reloc=2,class=CODE,delta=1
    33                           	psect	text18,global,reloc=2,class=CODE,delta=1
    34                           	psect	text19,global,reloc=2,class=CODE,delta=1
    35                           	psect	text20,global,reloc=2,class=CODE,delta=1
    36                           	psect	text21,global,reloc=2,class=CODE,delta=1
    37                           	psect	text22,global,reloc=2,class=CODE,delta=1
    38                           	psect	text23,global,reloc=2,class=CODE,delta=1
    39                           	psect	intsave_regs,global,class=BIGRAM,space=1,delta=1
    40                           	psect	rparam,global,class=COMRAM,space=1,delta=1
    41  0000                     
    42                           	psect	idataCOMRAM
    43  00250A                     __pidataCOMRAM:
    44                           	opt stack 0
    45                           
    46                           ;initializer for _a
    47  00250A  0001               	dw	1
    48                           
    49                           	psect	idataBANK1
    50  001E82                     __pidataBANK1:
    51                           	opt stack 0
    52                           
    53                           ;initializer for main@F7639
    54  001E82  0004               	dw	4
    55  001E84  0008               	dw	8
    56  001E86  000C               	dw	12
    57  001E88  0010               	dw	16
    58  001E8A  0014               	dw	20
    59  001E8C  0018               	dw	24
    60  001E8E  001C               	dw	28
    61  001E90  0020               	dw	32
    62  001E92  0024               	dw	36
    63  001E94  0028               	dw	40
    64  001E96  002C               	dw	44
    65  001E98  0030               	dw	48
    66  001E9A  0034               	dw	52
    67  001E9C  0038               	dw	56
    68  001E9E  003C               	dw	60
    69  001EA0  0040               	dw	64
    70  001EA2  0044               	dw	68
    71  001EA4  0048               	dw	72
    72  001EA6  004C               	dw	76
    73  001EA8  0050               	dw	80
    74  001EAA  0054               	dw	84
    75  001EAC  0058               	dw	88
    76  001EAE  005C               	dw	92
    77  001EB0  0060               	dw	96
    78  001EB2  0064               	dw	100
    79  001EB4  0060               	dw	96
    80  001EB6  005C               	dw	92
    81  001EB8  0058               	dw	88
    82  001EBA  0054               	dw	84
    83  001EBC  0050               	dw	80
    84  001EBE  004C               	dw	76
    85  001EC0  0048               	dw	72
    86  001EC2  0044               	dw	68
    87  001EC4  0040               	dw	64
    88  001EC6  003C               	dw	60
    89  001EC8  0038               	dw	56
    90  001ECA  0034               	dw	52
    91  001ECC  0030               	dw	48
    92  001ECE  002C               	dw	44
    93  001ED0  0028               	dw	40
    94  001ED2  0024               	dw	36
    95  001ED4  0020               	dw	32
    96  001ED6  001C               	dw	28
    97  001ED8  0018               	dw	24
    98  001EDA  0014               	dw	20
    99  001EDC  0010               	dw	16
   100  001EDE  000C               	dw	12
   101  001EE0  0008               	dw	8
   102  001EE2  0004               	dw	4
   103  001EE4  0000               	dw	0
   104                           
   105                           ;initializer for SENO_GENERAR_100@F7355
   106  001EE6  0032               	dw	50
   107  001EE8  0023               	dw	35
   108  001EEA  0015               	dw	21
   109  001EEC  000A               	dw	10
   110  001EEE  0002               	dw	2
   111  001EF0  0000               	dw	0
   112  001EF2  0002               	dw	2
   113  001EF4  000A               	dw	10
   114  001EF6  0015               	dw	21
   115  001EF8  0023               	dw	35
   116  001EFA  0032               	dw	50
   117  001EFC  0041               	dw	65
   118  001EFE  004F               	dw	79
   119  001F00  005A               	dw	90
   120  001F02  0062               	dw	98
   121  001F04  0064               	dw	100
   122  001F06  0062               	dw	98
   123  001F08  005A               	dw	90
   124  001F0A  004F               	dw	79
   125  001F0C  0041               	dw	65
   126                           
   127                           ;initializer for SENO_GENERAR_20@F7367
   128  001F0E  0032               	dw	50
   129  001F10  0023               	dw	35
   130  001F12  0015               	dw	21
   131  001F14  000A               	dw	10
   132  001F16  0002               	dw	2
   133  001F18  0000               	dw	0
   134  001F1A  0002               	dw	2
   135  001F1C  000A               	dw	10
   136  001F1E  0015               	dw	21
   137  001F20  0023               	dw	35
   138  001F22  0032               	dw	50
   139  001F24  0041               	dw	65
   140  001F26  004F               	dw	79
   141  001F28  005A               	dw	90
   142  001F2A  0062               	dw	98
   143  001F2C  0064               	dw	100
   144  001F2E  0062               	dw	98
   145  001F30  005A               	dw	90
   146  001F32  004F               	dw	79
   147  001F34  0041               	dw	65
   148                           
   149                           ;initializer for SENO_GENERAR_50@F7361
   150  001F36  0032               	dw	50
   151  001F38  0023               	dw	35
   152  001F3A  0015               	dw	21
   153  001F3C  000A               	dw	10
   154  001F3E  0002               	dw	2
   155  001F40  0000               	dw	0
   156  001F42  0002               	dw	2
   157  001F44  000A               	dw	10
   158  001F46  0015               	dw	21
   159  001F48  0023               	dw	35
   160  001F4A  0032               	dw	50
   161  001F4C  0041               	dw	65
   162  001F4E  004F               	dw	79
   163  001F50  005A               	dw	90
   164  001F52  0062               	dw	98
   165  001F54  0064               	dw	100
   166  001F56  0062               	dw	98
   167  001F58  005A               	dw	90
   168  001F5A  004F               	dw	79
   169  001F5C  0041               	dw	65
   170  0000                     _ANSELB	set	3932
   171  0000                     _ANSELD	set	3934
   172  0000                     _CCP2CON	set	3991
   173  0000                     _CCPR2L	set	3984
   174  0000                     _INTCON2bits	set	4081
   175  0000                     _PORTB	set	3969
   176  0000                     _PORTBbits	set	3969
   177  0000                     _PORTCbits	set	3970
   178  0000                     _PORTDbits	set	3971
   179  0000                     _PR2	set	4027
   180  0000                     _T2CON	set	4026
   181  0000                     _T2CONbits	set	4026
   182  0000                     _TMR2	set	4028
   183  0000                     _TRISB	set	3987
   184  0000                     _TRISCbits	set	3988
   185  0000                     _TRISDbits	set	3989
   186                           
   187                           	psect	smallconst
   188  000800                     __psmallconst:
   189                           	opt stack 0
   190  000800  00                 	db	0
   191  000801                     __stringdata:
   192                           	opt stack 0
   193  000801                     STR_1:
   194  000801  55                 	db	85	;'U'
   195  000802  6E                 	db	110	;'n'
   196  000803  69                 	db	105	;'i'
   197  000804  76                 	db	118	;'v'
   198  000805  65                 	db	101	;'e'
   199  000806  72                 	db	114	;'r'
   200  000807  73                 	db	115	;'s'
   201  000808  69                 	db	105	;'i'
   202  000809  64                 	db	100	;'d'
   203  00080A  61                 	db	97	;'a'
   204  00080B  64                 	db	100	;'d'
   205  00080C  20                 	db	32
   206  00080D  64                 	db	100	;'d'
   207  00080E  65                 	db	101	;'e'
   208  00080F  20                 	db	32
   209  000810  00                 	db	0
   210  000811                     STR_3:
   211  000811  50                 	db	80	;'P'
   212  000812  72                 	db	114	;'r'
   213  000813  6F                 	db	111	;'o'
   214  000814  79                 	db	121	;'y'
   215  000815  65                 	db	101	;'e'
   216  000816  63                 	db	99	;'c'
   217  000817  74                 	db	116	;'t'
   218  000818  6F                 	db	111	;'o'
   219  000819  20                 	db	32
   220  00081A  46                 	db	70	;'F'
   221  00081B  69                 	db	105	;'i'
   222  00081C  6E                 	db	110	;'n'
   223  00081D  61                 	db	97	;'a'
   224  00081E  6C                 	db	108	;'l'
   225  00081F  00                 	db	0
   226  000820                     STR_33:
   227  000820  31                 	db	49	;'1'
   228  000821  2E                 	db	46
   229  000822  2D                 	db	45
   230  000823  46                 	db	70	;'F'
   231  000824  72                 	db	114	;'r'
   232  000825  65                 	db	101	;'e'
   233  000826  63                 	db	99	;'c'
   234  000827  75                 	db	117	;'u'
   235  000828  65                 	db	101	;'e'
   236  000829  6E                 	db	110	;'n'
   237  00082A  63                 	db	99	;'c'
   238  00082B  69                 	db	105	;'i'
   239  00082C  61                 	db	97	;'a'
   240  00082D  00                 	db	0
   241  00082E                     STR_11:
   242  00082E  49                 	db	73	;'I'
   243  00082F  6E                 	db	110	;'n'
   244  000830  67                 	db	103	;'g'
   245  000831  72                 	db	114	;'r'
   246  000832  65                 	db	101	;'e'
   247  000833  73                 	db	115	;'s'
   248  000834  65                 	db	101	;'e'
   249  000835  20                 	db	32
   250  000836  63                 	db	99	;'c'
   251  000837  69                 	db	105	;'i'
   252  000838  63                 	db	99	;'c'
   253  000839  6C                 	db	108	;'l'
   254  00083A  6F                 	db	111	;'o'
   255  00083B  00                 	db	0
   256  00083C                     STR_7:
   257  00083C  43                 	db	67	;'C'
   258  00083D  2E                 	db	46
   259  00083E  2D                 	db	45
   260  00083F  54                 	db	84	;'T'
   261  000840  72                 	db	114	;'r'
   262  000841  69                 	db	105	;'i'
   263  000842  61                 	db	97	;'a'
   264  000843  6E                 	db	110	;'n'
   265  000844  67                 	db	103	;'g'
   266  000845  75                 	db	117	;'u'
   267  000846  6C                 	db	108	;'l'
   268  000847  61                 	db	97	;'a'
   269  000848  72                 	db	114	;'r'
   270  000849  00                 	db	0
   271  00084A                     STR_10:
   272  00084A  46                 	db	70	;'F'
   273  00084B  72                 	db	114	;'r'
   274  00084C  65                 	db	101	;'e'
   275  00084D  63                 	db	99	;'c'
   276  00084E  75                 	db	117	;'u'
   277  00084F  65                 	db	101	;'e'
   278  000850  6E                 	db	110	;'n'
   279  000851  63                 	db	99	;'c'
   280  000852  69                 	db	105	;'i'
   281  000853  61                 	db	97	;'a'
   282  000854  3A                 	db	58	;':'
   283  000855  00                 	db	0
   284  000856                     STR_5:
   285  000856  41                 	db	65	;'A'
   286  000857  2E                 	db	46
   287  000858  2D                 	db	45
   288  000859  43                 	db	67	;'C'
   289  00085A  75                 	db	117	;'u'
   290  00085B  61                 	db	97	;'a'
   291  00085C  64                 	db	100	;'d'
   292  00085D  72                 	db	114	;'r'
   293  00085E  61                 	db	97	;'a'
   294  00085F  64                 	db	100	;'d'
   295  000860  61                 	db	97	;'a'
   296  000861  00                 	db	0
   297  000862                     STR_6:
   298  000862  42                 	db	66	;'B'
   299  000863  2E                 	db	46
   300  000864  2D                 	db	45
   301  000865  53                 	db	83	;'S'
   302  000866  65                 	db	101	;'e'
   303  000867  6E                 	db	110	;'n'
   304  000868  6F                 	db	111	;'o'
   305  000869  69                 	db	105	;'i'
   306  00086A  64                 	db	100	;'d'
   307  00086B  61                 	db	97	;'a'
   308  00086C  6C                 	db	108	;'l'
   309  00086D  00                 	db	0
   310  00086E                     STR_9:
   311  00086E  32                 	db	50	;'2'
   312  00086F  2E                 	db	46
   313  000870  2D                 	db	45
   314  000871  43                 	db	67	;'C'
   315  000872  6F                 	db	111	;'o'
   316  000873  6D                 	db	109	;'m'
   317  000874  65                 	db	101	;'e'
   318  000875  6E                 	db	110	;'n'
   319  000876  7A                 	db	122	;'z'
   320  000877  61                 	db	97	;'a'
   321  000878  72                 	db	114	;'r'
   322  000879  00                 	db	0
   323  00087A                     STR_23:
   324  00087A  41                 	db	65	;'A'
   325  00087B  2E                 	db	46
   326  00087C  2D                 	db	45
   327  00087D  53                 	db	83	;'S'
   328  00087E  65                 	db	101	;'e'
   329  00087F  6E                 	db	110	;'n'
   330  000880  61                 	db	97	;'a'
   331  000881  6C                 	db	108	;'l'
   332  000882  20                 	db	32
   333  000883  31                 	db	49	;'1'
   334  000884  00                 	db	0
   335  000885                     STR_24:
   336  000885  42                 	db	66	;'B'
   337  000886  2E                 	db	46
   338  000887  2D                 	db	45
   339  000888  53                 	db	83	;'S'
   340  000889  65                 	db	101	;'e'
   341  00088A  F1                 	db	-15
   342  00088B  61                 	db	97	;'a'
   343  00088C  6C                 	db	108	;'l'
   344  00088D  20                 	db	32
   345  00088E  32                 	db	50	;'2'
   346  00088F  00                 	db	0
   347  000890                     STR_25:
   348  000890  43                 	db	67	;'C'
   349  000891  2E                 	db	46
   350  000892  2D                 	db	45
   351  000893  53                 	db	83	;'S'
   352  000894  65                 	db	101	;'e'
   353  000895  6E                 	db	110	;'n'
   354  000896  61                 	db	97	;'a'
   355  000897  6C                 	db	108	;'l'
   356  000898  20                 	db	32
   357  000899  33                 	db	51	;'3'
   358  00089A  00                 	db	0
   359  00089B                     STR_2:
   360  00089B  47                 	db	71	;'G'
   361  00089C  75                 	db	117	;'u'
   362  00089D  61                 	db	97	;'a'
   363  00089E  6E                 	db	110	;'n'
   364  00089F  61                 	db	97	;'a'
   365  0008A0  6A                 	db	106	;'j'
   366  0008A1  75                 	db	117	;'u'
   367  0008A2  61                 	db	97	;'a'
   368  0008A3  74                 	db	116	;'t'
   369  0008A4  6F                 	db	111	;'o'
   370  0008A5  00                 	db	0
   371  0008A6                     STR_4:
   372  0008A6  47                 	db	71	;'G'
   373  0008A7  65                 	db	101	;'e'
   374  0008A8  6E                 	db	110	;'n'
   375  0008A9  65                 	db	101	;'e'
   376  0008AA  72                 	db	114	;'r'
   377  0008AB  61                 	db	97	;'a'
   378  0008AC  64                 	db	100	;'d'
   379  0008AD  6F                 	db	111	;'o'
   380  0008AE  72                 	db	114	;'r'
   381  0008AF  00                 	db	0
   382  0008B0                     STR_34:
   383  0008B0  32                 	db	50	;'2'
   384  0008B1  2E                 	db	46
   385  0008B2  2D                 	db	45
   386  0008B3  43                 	db	67	;'C'
   387  0008B4  69                 	db	105	;'i'
   388  0008B5  63                 	db	99	;'c'
   389  0008B6  6C                 	db	108	;'l'
   390  0008B7  6F                 	db	111	;'o'
   391  0008B8  00                 	db	0
   392  0008B9                     STR_8:
   393  0008B9  31                 	db	49	;'1'
   394  0008BA  2E                 	db	46
   395  0008BB  2D                 	db	45
   396  0008BC  44                 	db	68	;'D'
   397  0008BD  61                 	db	97	;'a'
   398  0008BE  74                 	db	116	;'t'
   399  0008BF  6F                 	db	111	;'o'
   400  0008C0  73                 	db	115	;'s'
   401  0008C1  00                 	db	0
   402  0008C2                     STR_14:
   403  0008C2  43                 	db	67	;'C'
   404  0008C3  69                 	db	105	;'i'
   405  0008C4  63                 	db	99	;'c'
   406  0008C5  6C                 	db	108	;'l'
   407  0008C6  6F                 	db	111	;'o'
   408  0008C7  3A                 	db	58	;':'
   409  0008C8  20                 	db	32
   410  0008C9  00                 	db	0
   411  0008CA                     STR_26:
   412  0008CA  53                 	db	83	;'S'
   413  0008CB  65                 	db	101	;'e'
   414  0008CC  F1                 	db	-15
   415  0008CD  61                 	db	97	;'a'
   416  0008CE  6C                 	db	108	;'l'
   417  0008CF  20                 	db	32
   418  0008D0  31                 	db	49	;'1'
   419  0008D1  00                 	db	0
   420  0008D2                     STR_12:
   421  0008D2  46                 	db	70	;'F'
   422  0008D3  72                 	db	114	;'r'
   423  0008D4  65                 	db	101	;'e'
   424  0008D5  3A                 	db	58	;':'
   425  0008D6  20                 	db	32
   426  0008D7  00                 	db	0
   427  0008D8                     STR_39:
   428  0008D8  41                 	db	65	;'A'
   429  0008D9  64                 	db	100	;'d'
   430  0008DA  69                 	db	105	;'i'
   431  0008DB  6F                 	db	111	;'o'
   432  0008DC  73                 	db	115	;'s'
   433  0008DD  00                 	db	0
   434  0008DE                     STR_13:
   435  0008DE  48                 	db	72	;'H'
   436  0008DF  7A                 	db	122	;'z'
   437  0008E0  00                 	db	0
   438  0008E1                     STR_15:
   439  0008E1  25                 	db	37
   440  0008E2  00                 	db	0
   441  0008E3                     __end_of__stringdata:
   442                           	opt stack 0
   443                           
   444                           ; #config settings
   445  0008E3  00                 	db	0	; dummy byte at the end
   446  0000                     
   447                           	psect	cinit
   448  002312                     __pcinit:
   449                           	opt stack 0
   450  002312                     start_initialization:
   451                           	opt stack 0
   452  002312                     __initialization:
   453                           	opt stack 0
   454                           
   455                           ; Clear objects allocated to BANK0 (40 bytes)
   456  002312  EE00  F0CF         	lfsr	0,__pbssBANK0
   457  002316  0E28               	movlw	40
   458  002318                     clear_0:
   459  002318  6AEE               	clrf	postinc0,c
   460  00231A  06E8               	decf	wreg,f,c
   461  00231C  E1FD               	bnz	clear_0
   462                           
   463                           ; Clear objects allocated to COMRAM (22 bytes)
   464  00231E  EE00  F03D         	lfsr	0,__pbssCOMRAM
   465  002322  0E16               	movlw	22
   466  002324                     clear_1:
   467  002324  6AEE               	clrf	postinc0,c
   468  002326  06E8               	decf	wreg,f,c
   469  002328  E1FD               	bnz	clear_1
   470                           
   471                           ; Initialize objects allocated to BANK1 (220 bytes)
   472                           ; load TBLPTR registers with __pidataBANK1
   473  00232A  0E82               	movlw	low __pidataBANK1
   474  00232C  6EF6               	movwf	tblptrl,c
   475  00232E  0E1E               	movlw	high __pidataBANK1
   476  002330  6EF7               	movwf	tblptrh,c
   477  002332  0E00               	movlw	low (__pidataBANK1 shr (0+16))
   478  002334  6EF8               	movwf	tblptru,c
   479  002336  EE01  F000         	lfsr	0,__pdataBANK1
   480  00233A  EE10 F0DC          	lfsr	1,220
   481  00233E                     copy_data0:
   482  00233E  0009               	tblrd		*+
   483  002340  CFF5 FFEE          	movff	tablat,postinc0
   484  002344  50E5               	movf	postdec1,w,c
   485  002346  50E1               	movf	fsr1l,w,c
   486  002348  E1FA               	bnz	copy_data0
   487                           
   488                           ; Initialize objects allocated to COMRAM (2 bytes)
   489                           ; load TBLPTR registers with __pidataCOMRAM
   490  00234A  0E0A               	movlw	low __pidataCOMRAM
   491  00234C  6EF6               	movwf	tblptrl,c
   492  00234E  0E25               	movlw	high __pidataCOMRAM
   493  002350  6EF7               	movwf	tblptrh,c
   494  002352  0E00               	movlw	low (__pidataCOMRAM shr (0+16))
   495  002354  6EF8               	movwf	tblptru,c
   496  002356  0009               	tblrd		*+	;fetch initializer
   497  002358  CFF5 F053          	movff	tablat,__pdataCOMRAM
   498  00235C  0009               	tblrd		*+	;fetch initializer
   499  00235E  CFF5 F054          	movff	tablat,__pdataCOMRAM+1
   500  002362                     end_of_initialization:
   501                           	opt stack 0
   502  002362                     __end_of__initialization:
   503                           	opt stack 0
   504  002362  0E00               	movlw	low (__Lmediumconst shr (0+16))
   505  002364  6EF8               	movwf	tblptru,c
   506  002366  0100               	movlb	0
   507  002368  EF72  F004         	goto	_main	;jump to C main() function
   508                           tblptru	equ	0xFF8
   509                           tblptrh	equ	0xFF7
   510                           tblptrl	equ	0xFF6
   511                           tablat	equ	0xFF5
   512                           postinc0	equ	0xFEE
   513                           wreg	equ	0xFE8
   514                           postdec1	equ	0xFE5
   515                           fsr1l	equ	0xFE1
   516                           
   517                           	psect	bssCOMRAM
   518  00003D                     __pbssCOMRAM:
   519                           	opt stack 0
   520  00003D                     _cad:
   521                           	opt stack 0
   522  00003D                     	ds	10
   523  000047                     _d:
   524                           	opt stack 0
   525  000047                     	ds	2
   526  000049                     _e:
   527                           	opt stack 0
   528  000049                     	ds	2
   529  00004B                     _f:
   530                           	opt stack 0
   531  00004B                     	ds	2
   532  00004D                     _g:
   533                           	opt stack 0
   534  00004D                     	ds	2
   535  00004F                     _cantidad:
   536                           	opt stack 0
   537  00004F                     	ds	1
   538  000050                     _columna:
   539                           	opt stack 0
   540  000050                     	ds	1
   541  000051                     _fila:
   542                           	opt stack 0
   543  000051                     	ds	1
   544  000052                     _key:
   545                           	opt stack 0
   546  000052                     	ds	1
   547                           tblptru	equ	0xFF8
   548                           tblptrh	equ	0xFF7
   549                           tblptrl	equ	0xFF6
   550                           tablat	equ	0xFF5
   551                           postinc0	equ	0xFEE
   552                           wreg	equ	0xFE8
   553                           postdec1	equ	0xFE5
   554                           fsr1l	equ	0xFE1
   555                           
   556                           	psect	dataCOMRAM
   557  000053                     __pdataCOMRAM:
   558                           	opt stack 0
   559  000053                     _a:
   560                           	opt stack 0
   561  000053                     	ds	2
   562                           tblptru	equ	0xFF8
   563                           tblptrh	equ	0xFF7
   564                           tblptrl	equ	0xFF6
   565                           tablat	equ	0xFF5
   566                           postinc0	equ	0xFEE
   567                           wreg	equ	0xFE8
   568                           postdec1	equ	0xFE5
   569                           fsr1l	equ	0xFE1
   570                           
   571                           	psect	bssBANK0
   572  0000CF                     __pbssBANK0:
   573                           	opt stack 0
   574  0000CF                     _q:
   575                           	opt stack 0
   576  0000CF                     	ds	2
   577  0000D1                     _r:
   578                           	opt stack 0
   579  0000D1                     	ds	2
   580  0000D3                     _s:
   581                           	opt stack 0
   582  0000D3                     	ds	2
   583  0000D5                     _t:
   584                           	opt stack 0
   585  0000D5                     	ds	2
   586  0000D7                     _w:
   587                           	opt stack 0
   588  0000D7                     	ds	2
   589  0000D9                     _cadena:
   590                           	opt stack 0
   591  0000D9                     	ds	10
   592  0000E3                     _ciclo:
   593                           	opt stack 0
   594  0000E3                     	ds	10
   595  0000ED                     _frecuencia:
   596                           	opt stack 0
   597  0000ED                     	ds	10
   598                           tblptru	equ	0xFF8
   599                           tblptrh	equ	0xFF7
   600                           tblptrl	equ	0xFF6
   601                           tablat	equ	0xFF5
   602                           postinc0	equ	0xFEE
   603                           wreg	equ	0xFE8
   604                           postdec1	equ	0xFE5
   605                           fsr1l	equ	0xFE1
   606                           
   607                           	psect	dataBANK1
   608  000100                     __pdataBANK1:
   609                           	opt stack 0
   610  000100                     main@F7639:
   611                           	opt stack 0
   612  000100                     	ds	100
   613  000164                     SENO_GENERAR_100@F7355:
   614                           	opt stack 0
   615  000164                     	ds	40
   616  00018C                     SENO_GENERAR_20@F7367:
   617                           	opt stack 0
   618  00018C                     	ds	40
   619  0001B4                     SENO_GENERAR_50@F7361:
   620                           	opt stack 0
   621  0001B4                     	ds	40
   622                           tblptru	equ	0xFF8
   623                           tblptrh	equ	0xFF7
   624                           tblptrl	equ	0xFF6
   625                           tablat	equ	0xFF5
   626                           postinc0	equ	0xFEE
   627                           wreg	equ	0xFE8
   628                           postdec1	equ	0xFE5
   629                           fsr1l	equ	0xFE1
   630                           
   631                           	psect	cstackBANK0
   632  000060                     __pcstackBANK0:
   633                           	opt stack 0
   634  000060                     main@valoresSeno:
   635                           	opt stack 0
   636                           
   637                           ; 100 bytes @ 0x0
   638  000060                     	ds	100
   639  0000C4                     main@k:
   640                           	opt stack 0
   641                           
   642                           ; 2 bytes @ 0x64
   643  0000C4                     	ds	2
   644  0000C6                     main@zx:
   645                           	opt stack 0
   646                           
   647                           ; 2 bytes @ 0x66
   648  0000C6                     	ds	2
   649  0000C8                     main@zx_420:
   650                           	opt stack 0
   651                           
   652                           ; 2 bytes @ 0x68
   653  0000C8                     	ds	2
   654  0000CA                     main@j:
   655                           	opt stack 0
   656                           
   657                           ; 2 bytes @ 0x6A
   658  0000CA                     	ds	2
   659  0000CC                     main@i:
   660                           	opt stack 0
   661                           
   662                           ; 2 bytes @ 0x6C
   663  0000CC                     	ds	2
   664  0000CE                     main@key:
   665                           	opt stack 0
   666                           
   667                           ; 1 bytes @ 0x6E
   668  0000CE                     	ds	1
   669                           tblptru	equ	0xFF8
   670                           tblptrh	equ	0xFF7
   671                           tblptrl	equ	0xFF6
   672                           tablat	equ	0xFF5
   673                           postinc0	equ	0xFEE
   674                           wreg	equ	0xFE8
   675                           postdec1	equ	0xFE5
   676                           fsr1l	equ	0xFE1
   677                           
   678                           	psect	cstackCOMRAM
   679  000001                     __pcstackCOMRAM:
   680                           	opt stack 0
   681  000001                     ??_Lcd_Cmd:
   682  000001                     ??_Lcd_Chr_CP:
   683  000001                     ??_isdigit:
   684  000001                     ??_tm_1s:
   685  000001                     ?___wmul:
   686                           	opt stack 0
   687  000001                     ?___lmul:
   688                           	opt stack 0
   689  000001                     ?___aldiv:
   690                           	opt stack 0
   691  000001                     ?___almod:
   692                           	opt stack 0
   693  000001                     ?___lldiv:
   694                           	opt stack 0
   695  000001                     Recuperar@tecl:
   696                           	opt stack 0
   697  000001                     ___wmul@multiplier:
   698                           	opt stack 0
   699  000001                     ___lmul@multiplier:
   700                           	opt stack 0
   701  000001                     ___aldiv@dividend:
   702                           	opt stack 0
   703  000001                     ___almod@dividend:
   704                           	opt stack 0
   705  000001                     ___lldiv@dividend:
   706                           	opt stack 0
   707                           
   708                           ; 4 bytes @ 0x0
   709  000001                     	ds	1
   710  000002                     _isdigit$968:
   711                           	opt stack 0
   712                           
   713                           ; 1 bytes @ 0x1
   714  000002                     	ds	1
   715  000003                     Lcd_Chr_CP@data:
   716                           	opt stack 0
   717  000003                     Lcd_Cmd@data:
   718                           	opt stack 0
   719  000003                     isdigit@c:
   720                           	opt stack 0
   721  000003                     ___wmul@multiplicand:
   722                           	opt stack 0
   723                           
   724                           ; 2 bytes @ 0x2
   725  000003                     	ds	1
   726  000004                     ??_Lcd_Init:
   727  000004                     Lcd_Out@x:
   728                           	opt stack 0
   729  000004                     Lcd_Out2@x:
   730                           	opt stack 0
   731  000004                     lcd_goto@x:
   732                           	opt stack 0
   733                           
   734                           ; 2 bytes @ 0x3
   735  000004                     	ds	1
   736  000005                     Lcd_Init@data:
   737                           	opt stack 0
   738  000005                     Lcd_Out@buffer:
   739                           	opt stack 0
   740  000005                     Lcd_Out2@buffer:
   741                           	opt stack 0
   742  000005                     ___wmul@product:
   743                           	opt stack 0
   744  000005                     ___lmul@multiplicand:
   745                           	opt stack 0
   746  000005                     ___aldiv@divisor:
   747                           	opt stack 0
   748  000005                     ___almod@divisor:
   749                           	opt stack 0
   750  000005                     ___lldiv@divisor:
   751                           	opt stack 0
   752                           
   753                           ; 4 bytes @ 0x4
   754  000005                     	ds	1
   755  000006                     lcd_goto@y:
   756                           	opt stack 0
   757                           
   758                           ; 2 bytes @ 0x5
   759  000006                     	ds	1
   760  000007                     ?_atoi:
   761                           	opt stack 0
   762  000007                     Lcd_Out@y:
   763                           	opt stack 0
   764  000007                     Lcd_Out2@y:
   765                           	opt stack 0
   766  000007                     atoi@s:
   767                           	opt stack 0
   768                           
   769                           ; 2 bytes @ 0x6
   770  000007                     	ds	1
   771  000008                     ??_lcd_goto:
   772  000008                     Lcd_Out@data:
   773                           	opt stack 0
   774  000008                     Lcd_Out2@data:
   775                           	opt stack 0
   776                           
   777                           ; 1 bytes @ 0x7
   778  000008                     	ds	1
   779  000009                     ??_atoi:
   780  000009                     ___aldiv@counter:
   781                           	opt stack 0
   782  000009                     ___almod@counter:
   783                           	opt stack 0
   784  000009                     Imprimir_pantalla@N:
   785                           	opt stack 0
   786  000009                     ___lmul@product:
   787                           	opt stack 0
   788  000009                     ___lldiv@quotient:
   789                           	opt stack 0
   790                           
   791                           ; 4 bytes @ 0x8
   792  000009                     	ds	1
   793  00000A                     lcd_goto@data:
   794                           	opt stack 0
   795  00000A                     ___aldiv@sign:
   796                           	opt stack 0
   797  00000A                     ___almod@sign:
   798                           	opt stack 0
   799                           
   800                           ; 1 bytes @ 0x9
   801  00000A                     	ds	1
   802  00000B                     Imprimir_pantalla@fila:
   803                           	opt stack 0
   804  00000B                     atoi@sign:
   805                           	opt stack 0
   806  00000B                     Tec@cadena:
   807                           	opt stack 0
   808  00000B                     ___aldiv@quotient:
   809                           	opt stack 0
   810                           
   811                           ; 4 bytes @ 0xA
   812  00000B                     	ds	1
   813  00000C                     Imprimir_pantalla@columna:
   814                           	opt stack 0
   815  00000C                     atoi@a:
   816                           	opt stack 0
   817                           
   818                           ; 2 bytes @ 0xB
   819  00000C                     	ds	1
   820  00000D                     ___lldiv@counter:
   821                           	opt stack 0
   822  00000D                     Tec@i:
   823                           	opt stack 0
   824                           
   825                           ; 2 bytes @ 0xC
   826  00000D                     	ds	1
   827  00000E                     PWM_generar@duty:
   828                           	opt stack 0
   829                           
   830                           ; 2 bytes @ 0xD
   831  00000E                     	ds	1
   832  00000F                     ?_Conv_Entero:
   833                           	opt stack 0
   834  00000F                     Tec@aux:
   835                           	opt stack 0
   836  00000F                     Conv_Entero@numero:
   837                           	opt stack 0
   838                           
   839                           ; 4 bytes @ 0xE
   840  00000F                     	ds	1
   841  000010                     Tec@contador:
   842                           	opt stack 0
   843  000010                     PWM_generar@fpwm:
   844                           	opt stack 0
   845                           
   846                           ; 2 bytes @ 0xF
   847  000010                     	ds	2
   848  000012                     ??_PWM_generar:
   849  000012                     Tec@j:
   850                           	opt stack 0
   851                           
   852                           ; 2 bytes @ 0x11
   853  000012                     	ds	1
   854  000013                     Conv_Entero@conv:
   855                           	opt stack 0
   856                           
   857                           ; 2 bytes @ 0x12
   858  000013                     	ds	1
   859  000014                     Tec@Key:
   860                           	opt stack 0
   861                           
   862                           ; 1 bytes @ 0x13
   863  000014                     	ds	1
   864  000015                     ??_Conv_Entero:
   865  000015                     Frecuencia@frecuencia:
   866                           	opt stack 0
   867  000015                     Ciclo@ciclo:
   868                           	opt stack 0
   869                           
   870                           ; 2 bytes @ 0x14
   871  000015                     	ds	1
   872  000016                     PWM_generar@prescalador:
   873                           	opt stack 0
   874                           
   875                           ; 2 bytes @ 0x15
   876  000016                     	ds	1
   877  000017                     
   878                           ; 0 bytes @ 0x16
   879  000017                     	ds	1
   880  000018                     PWM_generar@AuxCCP2CON:
   881                           	opt stack 0
   882                           
   883                           ; 2 bytes @ 0x17
   884  000018                     	ds	2
   885  00001A                     PWM_generar@PR2cal:
   886                           	opt stack 0
   887  00001A                     Conv_Entero@convTemp:
   888                           	opt stack 0
   889                           
   890                           ; 21 bytes @ 0x19
   891  00001A                     	ds	4
   892  00001E                     PWM_generar@AuxCCPR2L:
   893                           	opt stack 0
   894                           
   895                           ; 4 bytes @ 0x1D
   896  00001E                     	ds	17
   897  00002F                     Conv_Entero@num:
   898                           	opt stack 0
   899                           
   900                           ; 2 bytes @ 0x2E
   901  00002F                     	ds	2
   902  000031                     Conv_Entero@i:
   903                           	opt stack 0
   904                           
   905                           ; 1 bytes @ 0x30
   906  000031                     	ds	1
   907  000032                     Conv_Entero@punteroActual:
   908                           	opt stack 0
   909                           
   910                           ; 2 bytes @ 0x31
   911  000032                     	ds	2
   912  000034                     Conv_Entero@numeroReg:
   913                           	opt stack 0
   914                           
   915                           ; 4 bytes @ 0x33
   916  000034                     	ds	4
   917  000038                     ??_main:
   918                           
   919                           ; 0 bytes @ 0x37
   920  000038                     	ds	5
   921                           tblptru	equ	0xFF8
   922                           tblptrh	equ	0xFF7
   923                           tblptrl	equ	0xFF6
   924                           tablat	equ	0xFF5
   925                           postinc0	equ	0xFEE
   926                           wreg	equ	0xFE8
   927                           postdec1	equ	0xFE5
   928                           fsr1l	equ	0xFE1
   929                           
   930 ;;
   931 ;;Main: autosize = 0, tempsize = 5, incstack = 0, save=0
   932 ;;
   933 ;; *************** function _main *****************
   934 ;; Defined at:
   935 ;;		line 27 in file "Main.c"
   936 ;; Parameters:    Size  Location     Type
   937 ;;		None
   938 ;; Auto vars:     Size  Location     Type
   939 ;;  zx              2  104[BANK0 ] int 
   940 ;;  zx              2  102[BANK0 ] int 
   941 ;;  valoresSeno   100    0[BANK0 ] int [50]
   942 ;;  i               2  108[BANK0 ] int 
   943 ;;  j               2  106[BANK0 ] int 
   944 ;;  k               2  100[BANK0 ] int 
   945 ;;  key             1  110[BANK0 ] unsigned char 
   946 ;; Return value:  Size  Location     Type
   947 ;;		None               void
   948 ;; Registers used:
   949 ;;		wreg, fsr0l, fsr0h, fsr1l, fsr1h, fsr2l, fsr2h, status,2, status,0, tblptrl, tblptrh, tblptru, prodl, prodh, cstack
   950 ;; Tracked objects:
   951 ;;		On entry : 0/0
   952 ;;		On exit  : 0/0
   953 ;;		Unchanged: 0/0
   954 ;; Data sizes:     COMRAM   BANK0   BANK1   BANK2   BANK3   BANK4   BANK5   BANK6   BANK7
   955 ;;      Params:         0       0       0       0       0       0       0       0       0
   956 ;;      Locals:         0     111       0       0       0       0       0       0       0
   957 ;;      Temps:          5       0       0       0       0       0       0       0       0
   958 ;;      Totals:         5     111       0       0       0       0       0       0       0
   959 ;;Total ram usage:      116 bytes
   960 ;; Hardware stack levels required when called:    4
   961 ;; This function calls:
   962 ;;		_Ciclo
   963 ;;		_Conv_Entero
   964 ;;		_Frecuencia
   965 ;;		_Imprimir_pantalla
   966 ;;		_Lcd_Cmd
   967 ;;		_Lcd_Init
   968 ;;		_Lcd_Out
   969 ;;		_Lcd_Out2
   970 ;;		_PWM_generar
   971 ;;		_Recuperar
   972 ;;		_atoi
   973 ;;		_int_teclado
   974 ;; This function is called by:
   975 ;;		Startup code after reset
   976 ;; This function uses a non-reentrant model
   977 ;;
   978                           
   979                           	psect	text0
   980  0008E4                     __ptext0:
   981                           	opt stack 0
   982  0008E4                     _main:
   983                           	opt stack 27
   984                           
   985                           ;Main.c: 29: char key;
   986                           ;Main.c: 31: ANSELD=0;
   987                           
   988                           ;incstack = 0
   989  0008E4  0E00               	movlw	0
   990  0008E6  010F               	movlb	15	; () banked
   991  0008E8  6F5E               	movwf	94,b	;volatile
   992                           
   993                           ; BSR set to: 15
   994                           ;Main.c: 32: Lcd_Init();
   995  0008EA  EC7C  F00C         	call	_Lcd_Init	;wreg free
   996                           
   997                           ;Main.c: 33: int_teclado();
   998  0008EE  EC80  F012         	call	_int_teclado	;wreg free
   999  0008F2                     l2895:
  1000                           
  1001                           ;Main.c: 38: key = Recuperar();
  1002  0008F2  EC79  F012         	call	_Recuperar	;wreg free
  1003  0008F6  0100               	movlb	0	; () banked
  1004  0008F8  6FCE               	movwf	main@key& (0+255),b
  1005                           
  1006                           ; BSR set to: 0
  1007                           ;Main.c: 42: if(key==' '){
  1008  0008FA  0100               	movlb	0	; () banked
  1009  0008FC  51CE               	movf	main@key& (0+255),w,b
  1010  0008FE  0A20               	xorlw	32
  1011  000900  A4D8               	btfss	status,2,c
  1012  000902  D07B               	goto	l2943
  1013                           
  1014                           ; BSR set to: 0
  1015                           ;Main.c: 43: q=1;
  1016  000904  0E00               	movlw	0
  1017  000906  0100               	movlb	0	; () banked
  1018  000908  6FD0               	movwf	(_q+1)& (0+255),b
  1019  00090A  0E01               	movlw	1
  1020  00090C  0100               	movlb	0	; () banked
  1021  00090E  6FCF               	movwf	_q& (0+255),b
  1022  000910                     l2901:
  1023                           
  1024                           ; BSR set to: 0
  1025                           ;Main.c: 45: int_teclado();
  1026  000910  EC80  F012         	call	_int_teclado	;wreg free
  1027                           
  1028                           ;Main.c: 46: Lcd_Init();
  1029  000914  EC7C  F00C         	call	_Lcd_Init	;wreg free
  1030                           
  1031                           ;Main.c: 47: Lcd_Cmd(1);
  1032  000918  0E01               	movlw	1
  1033  00091A  ECA3  F00D         	call	_Lcd_Cmd
  1034                           
  1035                           ;Main.c: 48: Lcd_Cmd(12);
  1036  00091E  0E0C               	movlw	12
  1037  000920  ECA3  F00D         	call	_Lcd_Cmd
  1038                           
  1039                           ;Main.c: 49: Lcd_Out2(1,1,"Universidad de ");
  1040  000924  0E01               	movlw	1
  1041  000926  6E04               	movwf	Lcd_Out2@x,c
  1042  000928  0E08               	movlw	high STR_1
  1043  00092A  6E06               	movwf	Lcd_Out2@buffer+1,c
  1044  00092C  0E01               	movlw	low STR_1
  1045  00092E  6E05               	movwf	Lcd_Out2@buffer,c
  1046  000930  0E01               	movlw	1
  1047  000932  ECCF  F010         	call	_Lcd_Out2
  1048                           
  1049                           ;Main.c: 50: _delay((unsigned long)((100)*(4000000/4000.0)));
  1050  000936  0E82               	movlw	130
  1051  000938  6E38               	movwf	??_main& (0+255),c
  1052  00093A  0EDE               	movlw	222
  1053  00093C                     u2777:
  1054  00093C  2EE8               	decfsz	wreg,f,c
  1055  00093E  D7FE               	goto	u2777
  1056  000940  2E38               	decfsz	??_main& (0+255),f,c
  1057  000942  D7FC               	goto	u2777
  1058                           
  1059                           ;Main.c: 51: Lcd_Out2(2,3,"Guanajuato");
  1060  000944  0E03               	movlw	3
  1061  000946  6E04               	movwf	Lcd_Out2@x,c
  1062  000948  0E08               	movlw	high STR_2
  1063  00094A  6E06               	movwf	Lcd_Out2@buffer+1,c
  1064  00094C  0E9B               	movlw	low STR_2
  1065  00094E  6E05               	movwf	Lcd_Out2@buffer,c
  1066  000950  0E02               	movlw	2
  1067  000952  ECCF  F010         	call	_Lcd_Out2
  1068                           
  1069                           ;Main.c: 52: _delay((unsigned long)((100)*(4000000/4000.0)));
  1070  000956  0E82               	movlw	130
  1071  000958  6E38               	movwf	??_main& (0+255),c
  1072  00095A  0EDE               	movlw	222
  1073  00095C                     u2787:
  1074  00095C  2EE8               	decfsz	wreg,f,c
  1075  00095E  D7FE               	goto	u2787
  1076  000960  2E38               	decfsz	??_main& (0+255),f,c
  1077  000962  D7FC               	goto	u2787
  1078                           
  1079                           ;Main.c: 53: Lcd_Cmd(1);
  1080  000964  0E01               	movlw	1
  1081  000966  ECA3  F00D         	call	_Lcd_Cmd
  1082                           
  1083                           ;Main.c: 54: Lcd_Out2(1,1,"Proyecto Final");
  1084  00096A  0E01               	movlw	1
  1085  00096C  6E04               	movwf	Lcd_Out2@x,c
  1086  00096E  0E08               	movlw	high STR_3
  1087  000970  6E06               	movwf	Lcd_Out2@buffer+1,c
  1088  000972  0E11               	movlw	low STR_3
  1089  000974  6E05               	movwf	Lcd_Out2@buffer,c
  1090  000976  0E01               	movlw	1
  1091  000978  ECCF  F010         	call	_Lcd_Out2
  1092                           
  1093                           ;Main.c: 55: Lcd_Out2(2,3,"Generador");
  1094  00097C  0E03               	movlw	3
  1095  00097E  6E04               	movwf	Lcd_Out2@x,c
  1096  000980  0E08               	movlw	high STR_4
  1097  000982  6E06               	movwf	Lcd_Out2@buffer+1,c
  1098  000984  0EA6               	movlw	low STR_4
  1099  000986  6E05               	movwf	Lcd_Out2@buffer,c
  1100  000988  0E02               	movlw	2
  1101  00098A  ECCF  F010         	call	_Lcd_Out2
  1102                           
  1103                           ;Main.c: 56: _delay((unsigned long)((100)*(4000000/4000.0)));
  1104  00098E  0E82               	movlw	130
  1105  000990  6E38               	movwf	??_main& (0+255),c
  1106  000992  0EDE               	movlw	222
  1107  000994                     u2797:
  1108  000994  2EE8               	decfsz	wreg,f,c
  1109  000996  D7FE               	goto	u2797
  1110  000998  2E38               	decfsz	??_main& (0+255),f,c
  1111  00099A  D7FC               	goto	u2797
  1112                           
  1113                           ;Main.c: 57: Lcd_Cmd(1);
  1114  00099C  0E01               	movlw	1
  1115  00099E  ECA3  F00D         	call	_Lcd_Cmd
  1116                           
  1117                           ;Main.c: 58: Lcd_Cmd(12);
  1118  0009A2  0E0C               	movlw	12
  1119  0009A4  ECA3  F00D         	call	_Lcd_Cmd
  1120                           
  1121                           ;Main.c: 59: _delay((unsigned long)((50)*(4000000/4000.0)));
  1122  0009A8  0E41               	movlw	65
  1123  0009AA  6E38               	movwf	??_main& (0+255),c
  1124  0009AC  0EEE               	movlw	238
  1125  0009AE                     u2807:
  1126  0009AE  2EE8               	decfsz	wreg,f,c
  1127  0009B0  D7FE               	goto	u2807
  1128  0009B2  2E38               	decfsz	??_main& (0+255),f,c
  1129  0009B4  D7FC               	goto	u2807
  1130  0009B6  D000               	nop2	
  1131                           
  1132                           ;Main.c: 60: _delay((unsigned long)((50)*(4000000/4000.0)));
  1133  0009B8  0E41               	movlw	65
  1134  0009BA  6E38               	movwf	??_main& (0+255),c
  1135  0009BC  0EEE               	movlw	238
  1136  0009BE                     u2817:
  1137  0009BE  2EE8               	decfsz	wreg,f,c
  1138  0009C0  D7FE               	goto	u2817
  1139  0009C2  2E38               	decfsz	??_main& (0+255),f,c
  1140  0009C4  D7FC               	goto	u2817
  1141  0009C6  D000               	nop2	
  1142                           
  1143                           ;Main.c: 61: key=Recuperar();
  1144  0009C8  EC79  F012         	call	_Recuperar	;wreg free
  1145  0009CC  0100               	movlb	0	; () banked
  1146  0009CE  6FCE               	movwf	main@key& (0+255),b
  1147                           
  1148                           ; BSR set to: 0
  1149                           ;Main.c: 62: if(key=='D' | key=='0'){
  1150  0009D0  0100               	movlb	0	; () banked
  1151  0009D2  51CE               	movf	main@key& (0+255),w,b
  1152  0009D4  0A44               	xorlw	68
  1153  0009D6  B4D8               	btfsc	status,2,c
  1154  0009D8  D005               	goto	l2939
  1155                           
  1156                           ; BSR set to: 0
  1157  0009DA  0100               	movlb	0	; () banked
  1158  0009DC  51CE               	movf	main@key& (0+255),w,b
  1159  0009DE  0A30               	xorlw	48
  1160  0009E0  A4D8               	btfss	status,2,c
  1161  0009E2  D006               	goto	l2941
  1162  0009E4                     l2939:
  1163                           
  1164                           ; BSR set to: 0
  1165                           ;Main.c: 63: q=0;
  1166  0009E4  0E00               	movlw	0
  1167  0009E6  0100               	movlb	0	; () banked
  1168  0009E8  6FD0               	movwf	(_q+1)& (0+255),b
  1169  0009EA  0E00               	movlw	0
  1170  0009EC  0100               	movlb	0	; () banked
  1171  0009EE  6FCF               	movwf	_q& (0+255),b
  1172  0009F0                     l2941:
  1173                           
  1174                           ; BSR set to: 0
  1175                           ;Main.c: 64: }
  1176                           ;Main.c: 65: }while(q==1);
  1177  0009F0  0100               	movlb	0	; () banked
  1178  0009F2  05CF               	decf	_q& (0+255),w,b
  1179  0009F4  11D0               	iorwf	(_q+1)& (0+255),w,b
  1180  0009F6  B4D8               	btfsc	status,2,c
  1181  0009F8  D78B               	goto	l2901
  1182  0009FA                     l2943:
  1183                           
  1184                           ; BSR set to: 0
  1185                           ;Main.c: 66: }
  1186                           ;Main.c: 69: if(key=='D'){
  1187  0009FA  0100               	movlb	0	; () banked
  1188  0009FC  51CE               	movf	main@key& (0+255),w,b
  1189  0009FE  0A44               	xorlw	68
  1190  000A00  A4D8               	btfss	status,2,c
  1191  000A02  EF8C  F009         	goto	l3337
  1192                           
  1193                           ; BSR set to: 0
  1194                           ;Main.c: 70: key = Recuperar();
  1195  000A06  EC79  F012         	call	_Recuperar	;wreg free
  1196  000A0A  0100               	movlb	0	; () banked
  1197  000A0C  6FCE               	movwf	main@key& (0+255),b
  1198                           
  1199                           ; BSR set to: 0
  1200                           ;Main.c: 71: q=1;
  1201  000A0E  0E00               	movlw	0
  1202  000A10  0100               	movlb	0	; () banked
  1203  000A12  6FD0               	movwf	(_q+1)& (0+255),b
  1204  000A14  0E01               	movlw	1
  1205  000A16  0100               	movlb	0	; () banked
  1206  000A18  6FCF               	movwf	_q& (0+255),b
  1207  000A1A                     l2949:
  1208                           
  1209                           ; BSR set to: 0
  1210                           ;Main.c: 73: Lcd_Init();
  1211  000A1A  EC7C  F00C         	call	_Lcd_Init	;wreg free
  1212                           
  1213                           ;Main.c: 74: Lcd_Cmd(1);
  1214  000A1E  0E01               	movlw	1
  1215  000A20  ECA3  F00D         	call	_Lcd_Cmd
  1216                           
  1217                           ;Main.c: 75: Lcd_Cmd(12);
  1218  000A24  0E0C               	movlw	12
  1219  000A26  ECA3  F00D         	call	_Lcd_Cmd
  1220                           
  1221                           ;Main.c: 76: Lcd_Out2(1,1,"A.-Cuadrada");
  1222  000A2A  0E01               	movlw	1
  1223  000A2C  6E04               	movwf	Lcd_Out2@x,c
  1224  000A2E  0E08               	movlw	high STR_5
  1225  000A30  6E06               	movwf	Lcd_Out2@buffer+1,c
  1226  000A32  0E56               	movlw	low STR_5
  1227  000A34  6E05               	movwf	Lcd_Out2@buffer,c
  1228  000A36  0E01               	movlw	1
  1229  000A38  ECCF  F010         	call	_Lcd_Out2
  1230                           
  1231                           ;Main.c: 77: Lcd_Out2(2,1,"B.-Senoidal");
  1232  000A3C  0E01               	movlw	1
  1233  000A3E  6E04               	movwf	Lcd_Out2@x,c
  1234  000A40  0E08               	movlw	high STR_6
  1235  000A42  6E06               	movwf	Lcd_Out2@buffer+1,c
  1236  000A44  0E62               	movlw	low STR_6
  1237  000A46  6E05               	movwf	Lcd_Out2@buffer,c
  1238  000A48  0E02               	movlw	2
  1239  000A4A  ECCF  F010         	call	_Lcd_Out2
  1240                           
  1241                           ;Main.c: 78: _delay((unsigned long)((100)*(4000000/4000.0)));
  1242  000A4E  0E82               	movlw	130
  1243  000A50  6E38               	movwf	??_main& (0+255),c
  1244  000A52  0EDE               	movlw	222
  1245  000A54                     u2827:
  1246  000A54  2EE8               	decfsz	wreg,f,c
  1247  000A56  D7FE               	goto	u2827
  1248  000A58  2E38               	decfsz	??_main& (0+255),f,c
  1249  000A5A  D7FC               	goto	u2827
  1250                           
  1251                           ;Main.c: 79: _delay((unsigned long)((100)*(4000000/4000.0)));
  1252  000A5C  0E82               	movlw	130
  1253  000A5E  6E38               	movwf	??_main& (0+255),c
  1254  000A60  0EDE               	movlw	222
  1255  000A62                     u2837:
  1256  000A62  2EE8               	decfsz	wreg,f,c
  1257  000A64  D7FE               	goto	u2837
  1258  000A66  2E38               	decfsz	??_main& (0+255),f,c
  1259  000A68  D7FC               	goto	u2837
  1260                           
  1261                           ;Main.c: 80: _delay((unsigned long)((100)*(4000000/4000.0)));
  1262  000A6A  0E82               	movlw	130
  1263  000A6C  6E38               	movwf	??_main& (0+255),c
  1264  000A6E  0EDE               	movlw	222
  1265  000A70                     u2847:
  1266  000A70  2EE8               	decfsz	wreg,f,c
  1267  000A72  D7FE               	goto	u2847
  1268  000A74  2E38               	decfsz	??_main& (0+255),f,c
  1269  000A76  D7FC               	goto	u2847
  1270                           
  1271                           ;Main.c: 81: key = Recuperar();
  1272  000A78  EC79  F012         	call	_Recuperar	;wreg free
  1273  000A7C  0100               	movlb	0	; () banked
  1274  000A7E  6FCE               	movwf	main@key& (0+255),b
  1275                           
  1276                           ; BSR set to: 0
  1277                           ;Main.c: 82: Lcd_Init();
  1278  000A80  EC7C  F00C         	call	_Lcd_Init	;wreg free
  1279                           
  1280                           ;Main.c: 83: Lcd_Cmd(1);
  1281  000A84  0E01               	movlw	1
  1282  000A86  ECA3  F00D         	call	_Lcd_Cmd
  1283                           
  1284                           ;Main.c: 84: Lcd_Cmd(12);
  1285  000A8A  0E0C               	movlw	12
  1286  000A8C  ECA3  F00D         	call	_Lcd_Cmd
  1287                           
  1288                           ;Main.c: 85: Lcd_Out2(1,1,"C.-Triangular");
  1289  000A90  0E01               	movlw	1
  1290  000A92  6E04               	movwf	Lcd_Out2@x,c
  1291  000A94  0E08               	movlw	high STR_7
  1292  000A96  6E06               	movwf	Lcd_Out2@buffer+1,c
  1293  000A98  0E3C               	movlw	low STR_7
  1294  000A9A  6E05               	movwf	Lcd_Out2@buffer,c
  1295  000A9C  0E01               	movlw	1
  1296  000A9E  ECCF  F010         	call	_Lcd_Out2
  1297                           
  1298                           ;Main.c: 86: _delay((unsigned long)((100)*(4000000/4000.0)));
  1299  000AA2  0E82               	movlw	130
  1300  000AA4  6E38               	movwf	??_main& (0+255),c
  1301  000AA6  0EDE               	movlw	222
  1302  000AA8                     u2857:
  1303  000AA8  2EE8               	decfsz	wreg,f,c
  1304  000AAA  D7FE               	goto	u2857
  1305  000AAC  2E38               	decfsz	??_main& (0+255),f,c
  1306  000AAE  D7FC               	goto	u2857
  1307                           
  1308                           ;Main.c: 87: _delay((unsigned long)((100)*(4000000/4000.0)));
  1309  000AB0  0E82               	movlw	130
  1310  000AB2  6E38               	movwf	??_main& (0+255),c
  1311  000AB4  0EDE               	movlw	222
  1312  000AB6                     u2867:
  1313  000AB6  2EE8               	decfsz	wreg,f,c
  1314  000AB8  D7FE               	goto	u2867
  1315  000ABA  2E38               	decfsz	??_main& (0+255),f,c
  1316  000ABC  D7FC               	goto	u2867
  1317                           
  1318                           ;Main.c: 88: _delay((unsigned long)((100)*(4000000/4000.0)));
  1319  000ABE  0E82               	movlw	130
  1320  000AC0  6E38               	movwf	??_main& (0+255),c
  1321  000AC2  0EDE               	movlw	222
  1322  000AC4                     u2877:
  1323  000AC4  2EE8               	decfsz	wreg,f,c
  1324  000AC6  D7FE               	goto	u2877
  1325  000AC8  2E38               	decfsz	??_main& (0+255),f,c
  1326  000ACA  D7FC               	goto	u2877
  1327                           
  1328                           ;Main.c: 89: key = Recuperar();
  1329  000ACC  EC79  F012         	call	_Recuperar	;wreg free
  1330  000AD0  0100               	movlb	0	; () banked
  1331  000AD2  6FCE               	movwf	main@key& (0+255),b
  1332                           
  1333                           ; BSR set to: 0
  1334                           ;Main.c: 92: if(key=='C'){
  1335  000AD4  0100               	movlb	0	; () banked
  1336  000AD6  51CE               	movf	main@key& (0+255),w,b
  1337  000AD8  0A43               	xorlw	67
  1338  000ADA  A4D8               	btfss	status,2,c
  1339  000ADC  D1A6               	goto	l3117
  1340                           
  1341                           ; BSR set to: 0
  1342                           ;Main.c: 93: w=1;
  1343  000ADE  0E00               	movlw	0
  1344  000AE0  0100               	movlb	0	; () banked
  1345  000AE2  6FD8               	movwf	(_w+1)& (0+255),b
  1346  000AE4  0E01               	movlw	1
  1347  000AE6  0100               	movlb	0	; () banked
  1348  000AE8  6FD7               	movwf	_w& (0+255),b
  1349                           
  1350                           ; BSR set to: 0
  1351                           ;Main.c: 94: Lcd_Init();
  1352  000AEA  EC7C  F00C         	call	_Lcd_Init	;wreg free
  1353                           
  1354                           ;Main.c: 95: Lcd_Cmd(1);
  1355  000AEE  0E01               	movlw	1
  1356  000AF0  ECA3  F00D         	call	_Lcd_Cmd
  1357                           
  1358                           ;Main.c: 96: Lcd_Cmd(12);
  1359  000AF4  0E0C               	movlw	12
  1360  000AF6  ECA3  F00D         	call	_Lcd_Cmd
  1361                           
  1362                           ;Main.c: 97: int_teclado();
  1363  000AFA  EC80  F012         	call	_int_teclado	;wreg free
  1364                           
  1365                           ;Main.c: 98: key=Recuperar();
  1366  000AFE  EC79  F012         	call	_Recuperar	;wreg free
  1367  000B02  0100               	movlb	0	; () banked
  1368  000B04  6FCE               	movwf	main@key& (0+255),b
  1369  000B06                     l2997:
  1370                           
  1371                           ; BSR set to: 0
  1372                           ;Main.c: 100: Lcd_Init();
  1373  000B06  EC7C  F00C         	call	_Lcd_Init	;wreg free
  1374                           
  1375                           ;Main.c: 101: Lcd_Cmd(1);
  1376  000B0A  0E01               	movlw	1
  1377  000B0C  ECA3  F00D         	call	_Lcd_Cmd
  1378                           
  1379                           ;Main.c: 102: Lcd_Cmd(12);
  1380  000B10  0E0C               	movlw	12
  1381  000B12  ECA3  F00D         	call	_Lcd_Cmd
  1382                           
  1383                           ;Main.c: 103: Lcd_Out2(1,1,"A.-Senal 1");
  1384  000B16  0E01               	movlw	1
  1385  000B18  6E04               	movwf	Lcd_Out2@x,c
  1386  000B1A  0E08               	movlw	high STR_23
  1387  000B1C  6E06               	movwf	Lcd_Out2@buffer+1,c
  1388  000B1E  0E7A               	movlw	low STR_23
  1389  000B20  6E05               	movwf	Lcd_Out2@buffer,c
  1390  000B22  0E01               	movlw	1
  1391  000B24  ECCF  F010         	call	_Lcd_Out2
  1392                           
  1393                           ;Main.c: 104: Lcd_Out2(2,1,"B.-Seal 2");
  1394  000B28  0E01               	movlw	1
  1395  000B2A  6E04               	movwf	Lcd_Out2@x,c
  1396  000B2C  0E08               	movlw	high STR_24
  1397  000B2E  6E06               	movwf	Lcd_Out2@buffer+1,c
  1398  000B30  0E85               	movlw	low STR_24
  1399  000B32  6E05               	movwf	Lcd_Out2@buffer,c
  1400  000B34  0E02               	movlw	2
  1401  000B36  ECCF  F010         	call	_Lcd_Out2
  1402                           
  1403                           ;Main.c: 105: _delay((unsigned long)((100)*(4000000/4000.0)));
  1404  000B3A  0E82               	movlw	130
  1405  000B3C  6E38               	movwf	??_main& (0+255),c
  1406  000B3E  0EDE               	movlw	222
  1407  000B40                     u2887:
  1408  000B40  2EE8               	decfsz	wreg,f,c
  1409  000B42  D7FE               	goto	u2887
  1410  000B44  2E38               	decfsz	??_main& (0+255),f,c
  1411  000B46  D7FC               	goto	u2887
  1412                           
  1413                           ;Main.c: 106: _delay((unsigned long)((100)*(4000000/4000.0)));
  1414  000B48  0E82               	movlw	130
  1415  000B4A  6E38               	movwf	??_main& (0+255),c
  1416  000B4C  0EDE               	movlw	222
  1417  000B4E                     u2897:
  1418  000B4E  2EE8               	decfsz	wreg,f,c
  1419  000B50  D7FE               	goto	u2897
  1420  000B52  2E38               	decfsz	??_main& (0+255),f,c
  1421  000B54  D7FC               	goto	u2897
  1422                           
  1423                           ;Main.c: 107: key = Recuperar();
  1424  000B56  EC79  F012         	call	_Recuperar	;wreg free
  1425  000B5A  0100               	movlb	0	; () banked
  1426  000B5C  6FCE               	movwf	main@key& (0+255),b
  1427                           
  1428                           ; BSR set to: 0
  1429                           ;Main.c: 108: Lcd_Init();
  1430  000B5E  EC7C  F00C         	call	_Lcd_Init	;wreg free
  1431                           
  1432                           ;Main.c: 109: Lcd_Cmd(1);
  1433  000B62  0E01               	movlw	1
  1434  000B64  ECA3  F00D         	call	_Lcd_Cmd
  1435                           
  1436                           ;Main.c: 110: Lcd_Cmd(12);
  1437  000B68  0E0C               	movlw	12
  1438  000B6A  ECA3  F00D         	call	_Lcd_Cmd
  1439                           
  1440                           ;Main.c: 111: Lcd_Out2(1,1,"C.-Senal 3");
  1441  000B6E  0E01               	movlw	1
  1442  000B70  6E04               	movwf	Lcd_Out2@x,c
  1443  000B72  0E08               	movlw	high STR_25
  1444  000B74  6E06               	movwf	Lcd_Out2@buffer+1,c
  1445  000B76  0E90               	movlw	low STR_25
  1446  000B78  6E05               	movwf	Lcd_Out2@buffer,c
  1447  000B7A  0E01               	movlw	1
  1448  000B7C  ECCF  F010         	call	_Lcd_Out2
  1449                           
  1450                           ;Main.c: 112: _delay((unsigned long)((100)*(4000000/4000.0)));
  1451  000B80  0E82               	movlw	130
  1452  000B82  6E38               	movwf	??_main& (0+255),c
  1453  000B84  0EDE               	movlw	222
  1454  000B86                     u2907:
  1455  000B86  2EE8               	decfsz	wreg,f,c
  1456  000B88  D7FE               	goto	u2907
  1457  000B8A  2E38               	decfsz	??_main& (0+255),f,c
  1458  000B8C  D7FC               	goto	u2907
  1459                           
  1460                           ;Main.c: 113: _delay((unsigned long)((100)*(4000000/4000.0)));
  1461  000B8E  0E82               	movlw	130
  1462  000B90  6E38               	movwf	??_main& (0+255),c
  1463  000B92  0EDE               	movlw	222
  1464  000B94                     u2917:
  1465  000B94  2EE8               	decfsz	wreg,f,c
  1466  000B96  D7FE               	goto	u2917
  1467  000B98  2E38               	decfsz	??_main& (0+255),f,c
  1468  000B9A  D7FC               	goto	u2917
  1469                           
  1470                           ;Main.c: 114: key = Recuperar();
  1471  000B9C  EC79  F012         	call	_Recuperar	;wreg free
  1472  000BA0  0100               	movlb	0	; () banked
  1473  000BA2  6FCE               	movwf	main@key& (0+255),b
  1474                           
  1475                           ; BSR set to: 0
  1476                           ;Main.c: 115: if(key=='A'){
  1477  000BA4  0100               	movlb	0	; () banked
  1478  000BA6  51CE               	movf	main@key& (0+255),w,b
  1479  000BA8  0A41               	xorlw	65
  1480  000BAA  A4D8               	btfss	status,2,c
  1481  000BAC  D12E               	goto	l3111
  1482                           
  1483                           ; BSR set to: 0
  1484                           ;Main.c: 116: q=1;
  1485  000BAE  0E00               	movlw	0
  1486  000BB0  0100               	movlb	0	; () banked
  1487  000BB2  6FD0               	movwf	(_q+1)& (0+255),b
  1488  000BB4  0E01               	movlw	1
  1489  000BB6  0100               	movlb	0	; () banked
  1490  000BB8  6FCF               	movwf	_q& (0+255),b
  1491                           
  1492                           ; BSR set to: 0
  1493                           ;Main.c: 117: Lcd_Init();
  1494  000BBA  EC7C  F00C         	call	_Lcd_Init	;wreg free
  1495                           
  1496                           ;Main.c: 118: Lcd_Cmd(1);
  1497  000BBE  0E01               	movlw	1
  1498  000BC0  ECA3  F00D         	call	_Lcd_Cmd
  1499                           
  1500                           ;Main.c: 119: Lcd_Cmd(12);
  1501  000BC4  0E0C               	movlw	12
  1502  000BC6  ECA3  F00D         	call	_Lcd_Cmd
  1503                           
  1504                           ;Main.c: 120: int_teclado();
  1505  000BCA  EC80  F012         	call	_int_teclado	;wreg free
  1506                           
  1507                           ;Main.c: 121: key=Recuperar();
  1508  000BCE  EC79  F012         	call	_Recuperar	;wreg free
  1509  000BD2  0100               	movlb	0	; () banked
  1510  000BD4  6FCE               	movwf	main@key& (0+255),b
  1511  000BD6                     l3041:
  1512                           
  1513                           ; BSR set to: 0
  1514                           ;Main.c: 123: Lcd_Init();
  1515  000BD6  EC7C  F00C         	call	_Lcd_Init	;wreg free
  1516                           
  1517                           ;Main.c: 124: Lcd_Cmd(1);
  1518  000BDA  0E01               	movlw	1
  1519  000BDC  ECA3  F00D         	call	_Lcd_Cmd
  1520                           
  1521                           ;Main.c: 125: Lcd_Cmd(12);
  1522  000BE0  0E0C               	movlw	12
  1523  000BE2  ECA3  F00D         	call	_Lcd_Cmd
  1524                           
  1525                           ;Main.c: 126: Lcd_Out2(1,1,"Seal 1");
  1526  000BE6  0E01               	movlw	1
  1527  000BE8  6E04               	movwf	Lcd_Out2@x,c
  1528  000BEA  0E08               	movlw	high STR_26
  1529  000BEC  6E06               	movwf	Lcd_Out2@buffer+1,c
  1530  000BEE  0ECA               	movlw	low STR_26
  1531  000BF0  6E05               	movwf	Lcd_Out2@buffer,c
  1532  000BF2  0E01               	movlw	1
  1533  000BF4  ECCF  F010         	call	_Lcd_Out2
  1534                           
  1535                           ;Main.c: 128: TRISCbits.RC2=0;
  1536  000BF8  9494               	bcf	3988,2,c	;volatile
  1537                           
  1538                           ;Main.c: 129: int valoresSeno [50]= {4,8,12,16,20,24,28,32,
  1539                           ;Main.c: 130: 36,40,44,48,52,56,60,64,
  1540                           ;Main.c: 131: 68,72,76,80,84,88,92,96,
  1541                           ;Main.c: 132: 100,96,92,88,84,80,76,72,
  1542                           ;Main.c: 133: 68,64,60,56,52,48,44,40,
  1543                           ;Main.c: 134: 36,32,28,24,20,16,12,8,
  1544                           ;Main.c: 135: 4,0};
  1545  000BFA  EE21  F000         	lfsr	2,main@F7639
  1546  000BFE  EE10  F060         	lfsr	1,main@valoresSeno
  1547  000C02  0E64               	movlw	100
  1548  000C04                     u2131:
  1549  000C04  CFDE FFE6          	movff	postinc2,postinc1
  1550  000C08  2EE8               	decfsz	wreg,f,c
  1551  000C0A  D7FC               	goto	u2131
  1552                           
  1553                           ;Main.c: 136: int i, j,k;
  1554                           ;Main.c: 137: for (i=0;i<50;i++){
  1555  000C0C  0E00               	movlw	0
  1556  000C0E  0100               	movlb	0	; () banked
  1557  000C10  6FCD               	movwf	(main@i+1)& (0+255),b
  1558  000C12  0E00               	movlw	0
  1559  000C14  0100               	movlb	0	; () banked
  1560  000C16  6FCC               	movwf	main@i& (0+255),b
  1561  000C18                     
  1562                           ; BSR set to: 0
  1563  000C18  0100               	movlb	0	; () banked
  1564  000C1A  51CD               	movf	(main@i+1)& (0+255),w,b
  1565  000C1C  0A80               	xorlw	128
  1566  000C1E  0F80               	addlw	-128
  1567  000C20  0E32               	movlw	50
  1568  000C22  B4D8               	btfsc	status,2,c
  1569  000C24  5DCC               	subwf	main@i& (0+255),w,b
  1570  000C26  B0D8               	btfsc	status,0,c
  1571  000C28  D004               	goto	l3063
  1572                           
  1573                           ; BSR set to: 0
  1574                           
  1575                           ; BSR set to: 0
  1576                           
  1577                           ; BSR set to: 0
  1578  000C2A  0100               	movlb	0	; () banked
  1579  000C2C  4BCC               	infsnz	main@i& (0+255),f,b
  1580  000C2E  2BCD               	incf	(main@i+1)& (0+255),f,b
  1581  000C30  D7F3               	goto	L1
  1582  000C32                     l3063:
  1583                           
  1584                           ; BSR set to: 0
  1585                           ;Main.c: 141: for (i=0;i<50;i++){
  1586  000C32  0E00               	movlw	0
  1587  000C34  0100               	movlb	0	; () banked
  1588  000C36  6FCD               	movwf	(main@i+1)& (0+255),b
  1589  000C38  0E00               	movlw	0
  1590  000C3A  0100               	movlb	0	; () banked
  1591  000C3C  6FCC               	movwf	main@i& (0+255),b
  1592  000C3E                     
  1593                           ; BSR set to: 0
  1594  000C3E  0100               	movlb	0	; () banked
  1595  000C40  51CD               	movf	(main@i+1)& (0+255),w,b
  1596  000C42  0A80               	xorlw	128
  1597  000C44  0F80               	addlw	-128
  1598  000C46  0E32               	movlw	50
  1599  000C48  B4D8               	btfsc	status,2,c
  1600  000C4A  5DCC               	subwf	main@i& (0+255),w,b
  1601  000C4C  B0D8               	btfsc	status,0,c
  1602  000C4E  D7F1               	goto	l3063
  1603                           
  1604                           ; BSR set to: 0
  1605                           ;Main.c: 142: for (j=0;j<valoresSeno[i];j++){
  1606                           
  1607                           ; BSR set to: 0
  1608                           
  1609                           ; BSR set to: 0
  1610  000C50  0E00               	movlw	0
  1611  000C52  0100               	movlb	0	; () banked
  1612  000C54  6FCB               	movwf	(main@j+1)& (0+255),b
  1613  000C56  0E00               	movlw	0
  1614  000C58  0100               	movlb	0	; () banked
  1615  000C5A  6FCA               	movwf	main@j& (0+255),b
  1616  000C5C  D004               	goto	l3073
  1617  000C5E                     l184:
  1618                           
  1619                           ; BSR set to: 0
  1620                           ;Main.c: 143: PORTCbits.RC2=1;
  1621  000C5E  8482               	bsf	3970,2,c	;volatile
  1622                           
  1623                           ; BSR set to: 0
  1624  000C60  0100               	movlb	0	; () banked
  1625  000C62  4BCA               	infsnz	main@j& (0+255),f,b
  1626  000C64  2BCB               	incf	(main@j+1)& (0+255),f,b
  1627  000C66                     l3073:
  1628                           
  1629                           ; BSR set to: 0
  1630  000C66  0E60               	movlw	low main@valoresSeno
  1631  000C68  6E38               	movwf	??_main& (0+255),c
  1632  000C6A  0E00               	movlw	high main@valoresSeno
  1633  000C6C  6E39               	movwf	(??_main+1)& (0+255),c
  1634  000C6E  90D8               	bcf	status,0,c
  1635  000C70  0100               	movlb	0	; () banked
  1636  000C72  35CC               	rlcf	main@i& (0+255),w,b
  1637  000C74  6ED9               	movwf	fsr2l,c
  1638  000C76  0100               	movlb	0	; () banked
  1639  000C78  35CD               	rlcf	(main@i+1)& (0+255),w,b
  1640  000C7A  6EDA               	movwf	fsr2h,c
  1641  000C7C  5038               	movf	??_main,w,c
  1642  000C7E  26D9               	addwf	fsr2l,f,c
  1643  000C80  5039               	movf	??_main+1,w,c
  1644  000C82  22DA               	addwfc	fsr2h,f,c
  1645  000C84  CFDE F03A          	movff	postinc2,??_main+2
  1646  000C88  CFDD F03B          	movff	postdec2,??_main+3
  1647  000C8C  0100               	movlb	0	; () banked
  1648  000C8E  51CB               	movf	(main@j+1)& (0+255),w,b
  1649  000C90  0A80               	xorlw	128
  1650  000C92  6E3C               	movwf	(??_main+4)& (0+255),c
  1651  000C94  503A               	movf	??_main+2,w,c
  1652  000C96  0100               	movlb	0	; () banked
  1653  000C98  5DCA               	subwf	main@j& (0+255),w,b
  1654  000C9A  503B               	movf	??_main+3,w,c
  1655  000C9C  0A80               	xorlw	128
  1656  000C9E  583C               	subwfb	(??_main+4)& (0+255),w,c
  1657  000CA0  A0D8               	btfss	status,0,c
  1658  000CA2  D7DD               	goto	l184
  1659                           
  1660                           ; BSR set to: 0
  1661                           ;Main.c: 144: }
  1662                           ;Main.c: 145: k=100-valoresSeno[i];
  1663                           
  1664                           ; BSR set to: 0
  1665  000CA4  0E60               	movlw	low main@valoresSeno
  1666  000CA6  6E38               	movwf	??_main& (0+255),c
  1667  000CA8  0E00               	movlw	high main@valoresSeno
  1668  000CAA  6E39               	movwf	(??_main+1)& (0+255),c
  1669  000CAC  90D8               	bcf	status,0,c
  1670  000CAE  0100               	movlb	0	; () banked
  1671  000CB0  35CC               	rlcf	main@i& (0+255),w,b
  1672  000CB2  6ED9               	movwf	fsr2l,c
  1673  000CB4  0100               	movlb	0	; () banked
  1674  000CB6  35CD               	rlcf	(main@i+1)& (0+255),w,b
  1675  000CB8  6EDA               	movwf	fsr2h,c
  1676  000CBA  5038               	movf	??_main,w,c
  1677  000CBC  26D9               	addwf	fsr2l,f,c
  1678  000CBE  5039               	movf	??_main+1,w,c
  1679  000CC0  22DA               	addwfc	fsr2h,f,c
  1680  000CC2  CFDE F03A          	movff	postinc2,??_main+2
  1681  000CC6  CFDD F03B          	movff	postdec2,??_main+3
  1682  000CCA  1E3A               	comf	??_main+2,f,c
  1683  000CCC  1E3B               	comf	??_main+3,f,c
  1684  000CCE  4A3A               	infsnz	??_main+2,f,c
  1685  000CD0  2A3B               	incf	??_main+3,f,c
  1686  000CD2  0E64               	movlw	100
  1687  000CD4  243A               	addwf	??_main+2,w,c
  1688  000CD6  0100               	movlb	0	; () banked
  1689  000CD8  6FC4               	movwf	main@k& (0+255),b
  1690  000CDA  0E00               	movlw	0
  1691  000CDC  203B               	addwfc	??_main+3,w,c
  1692  000CDE  0100               	movlb	0	; () banked
  1693  000CE0  6FC5               	movwf	(main@k+1)& (0+255),b
  1694                           
  1695                           ; BSR set to: 0
  1696                           ;Main.c: 146: for (j=0;j<k;j++){
  1697  000CE2  0E00               	movlw	0
  1698  000CE4  0100               	movlb	0	; () banked
  1699  000CE6  6FCB               	movwf	(main@j+1)& (0+255),b
  1700  000CE8  0E00               	movlw	0
  1701  000CEA  0100               	movlb	0	; () banked
  1702  000CEC  6FCA               	movwf	main@j& (0+255),b
  1703  000CEE  D004               	goto	l3081
  1704  000CF0                     l187:
  1705                           
  1706                           ; BSR set to: 0
  1707                           ;Main.c: 147: PORTCbits.RC2=0;
  1708  000CF0  9482               	bcf	3970,2,c	;volatile
  1709                           
  1710                           ; BSR set to: 0
  1711  000CF2  0100               	movlb	0	; () banked
  1712  000CF4  4BCA               	infsnz	main@j& (0+255),f,b
  1713  000CF6  2BCB               	incf	(main@j+1)& (0+255),f,b
  1714  000CF8                     l3081:
  1715                           
  1716                           ; BSR set to: 0
  1717  000CF8  0100               	movlb	0	; () banked
  1718  000CFA  51CB               	movf	(main@j+1)& (0+255),w,b
  1719  000CFC  0A80               	xorlw	128
  1720  000CFE  6E38               	movwf	??_main& (0+255),c
  1721  000D00  0100               	movlb	0	; () banked
  1722  000D02  51C4               	movf	main@k& (0+255),w,b
  1723  000D04  0100               	movlb	0	; () banked
  1724  000D06  5DCA               	subwf	main@j& (0+255),w,b
  1725  000D08  0100               	movlb	0	; () banked
  1726  000D0A  51C5               	movf	(main@k+1)& (0+255),w,b
  1727  000D0C  0A80               	xorlw	128
  1728  000D0E  5838               	subwfb	??_main& (0+255),w,c
  1729  000D10  A0D8               	btfss	status,0,c
  1730  000D12  D7EE               	goto	l187
  1731                           
  1732                           ; BSR set to: 0
  1733                           
  1734                           ; BSR set to: 0
  1735  000D14  0100               	movlb	0	; () banked
  1736  000D16  4BCC               	infsnz	main@i& (0+255),f,b
  1737  000D18  2BCD               	incf	(main@i+1)& (0+255),f,b
  1738  000D1A  D791               	goto	L2
  1739  000D1C                     u2927:
  1740  000D1C  2EE8               	decfsz	wreg,f,c
  1741  000D1E  D7FE               	goto	u2927
  1742  000D20  2E38               	decfsz	??_main& (0+255),f,c
  1743  000D22  D7FC               	goto	u2927
  1744                           
  1745                           ;Main.c: 151: _delay((unsigned long)((100)*(4000000/4000.0)));
  1746  000D24  0E82               	movlw	130
  1747  000D26  6E38               	movwf	??_main& (0+255),c
  1748  000D28  0EDE               	movlw	222
  1749  000D2A                     u2937:
  1750  000D2A  2EE8               	decfsz	wreg,f,c
  1751  000D2C  D7FE               	goto	u2937
  1752  000D2E  2E38               	decfsz	??_main& (0+255),f,c
  1753  000D30  D7FC               	goto	u2937
  1754                           
  1755                           ;Main.c: 152: _delay((unsigned long)((100)*(4000000/4000.0)));
  1756  000D32  0E82               	movlw	130
  1757  000D34  6E38               	movwf	??_main& (0+255),c
  1758  000D36  0EDE               	movlw	222
  1759  000D38                     u2947:
  1760  000D38  2EE8               	decfsz	wreg,f,c
  1761  000D3A  D7FE               	goto	u2947
  1762  000D3C  2E38               	decfsz	??_main& (0+255),f,c
  1763  000D3E  D7FC               	goto	u2947
  1764                           
  1765                           ;Main.c: 153: _delay((unsigned long)((100)*(4000000/4000.0)));
  1766  000D40  0E82               	movlw	130
  1767  000D42  6E38               	movwf	??_main& (0+255),c
  1768  000D44  0EDE               	movlw	222
  1769  000D46                     u2957:
  1770  000D46  2EE8               	decfsz	wreg,f,c
  1771  000D48  D7FE               	goto	u2957
  1772  000D4A  2E38               	decfsz	??_main& (0+255),f,c
  1773  000D4C  D7FC               	goto	u2957
  1774                           
  1775                           ;Main.c: 154: _delay((unsigned long)((100)*(4000000/4000.0)));
  1776  000D4E  0E82               	movlw	130
  1777  000D50  6E38               	movwf	??_main& (0+255),c
  1778  000D52  0EDE               	movlw	222
  1779  000D54                     u2967:
  1780  000D54  2EE8               	decfsz	wreg,f,c
  1781  000D56  D7FE               	goto	u2967
  1782  000D58  2E38               	decfsz	??_main& (0+255),f,c
  1783  000D5A  D7FC               	goto	u2967
  1784                           
  1785                           ;Main.c: 155: _delay((unsigned long)((100)*(4000000/4000.0)));
  1786  000D5C  0E82               	movlw	130
  1787  000D5E  6E38               	movwf	??_main& (0+255),c
  1788  000D60  0EDE               	movlw	222
  1789  000D62                     u2977:
  1790  000D62  2EE8               	decfsz	wreg,f,c
  1791  000D64  D7FE               	goto	u2977
  1792  000D66  2E38               	decfsz	??_main& (0+255),f,c
  1793  000D68  D7FC               	goto	u2977
  1794                           
  1795                           ;Main.c: 156: _delay((unsigned long)((100)*(4000000/4000.0)));
  1796  000D6A  0E82               	movlw	130
  1797  000D6C  6E38               	movwf	??_main& (0+255),c
  1798  000D6E  0EDE               	movlw	222
  1799  000D70                     u2987:
  1800  000D70  2EE8               	decfsz	wreg,f,c
  1801  000D72  D7FE               	goto	u2987
  1802  000D74  2E38               	decfsz	??_main& (0+255),f,c
  1803  000D76  D7FC               	goto	u2987
  1804                           
  1805                           ;Main.c: 157: key=Recuperar();
  1806  000D78  EC79  F012         	call	_Recuperar	;wreg free
  1807  000D7C  0100               	movlb	0	; () banked
  1808  000D7E  6FCE               	movwf	main@key& (0+255),b
  1809                           
  1810                           ; BSR set to: 0
  1811                           ;Main.c: 158: _delay((unsigned long)((100)*(4000000/4000.0)));
  1812  000D80  0E82               	movlw	130
  1813  000D82  6E38               	movwf	??_main& (0+255),c
  1814  000D84  0EDE               	movlw	222
  1815  000D86                     u2997:
  1816  000D86  2EE8               	decfsz	wreg,f,c
  1817  000D88  D7FE               	goto	u2997
  1818  000D8A  2E38               	decfsz	??_main& (0+255),f,c
  1819  000D8C  D7FC               	goto	u2997
  1820                           
  1821                           ;Main.c: 159: _delay((unsigned long)((100)*(4000000/4000.0)));
  1822  000D8E  0E82               	movlw	130
  1823  000D90  6E38               	movwf	??_main& (0+255),c
  1824  000D92  0EDE               	movlw	222
  1825  000D94                     u3007:
  1826  000D94  2EE8               	decfsz	wreg,f,c
  1827  000D96  D7FE               	goto	u3007
  1828  000D98  2E38               	decfsz	??_main& (0+255),f,c
  1829  000D9A  D7FC               	goto	u3007
  1830                           
  1831                           ;Main.c: 160: _delay((unsigned long)((100)*(4000000/4000.0)));
  1832  000D9C  0E82               	movlw	130
  1833  000D9E  6E38               	movwf	??_main& (0+255),c
  1834  000DA0  0EDE               	movlw	222
  1835  000DA2                     u3017:
  1836  000DA2  2EE8               	decfsz	wreg,f,c
  1837  000DA4  D7FE               	goto	u3017
  1838  000DA6  2E38               	decfsz	??_main& (0+255),f,c
  1839  000DA8  D7FC               	goto	u3017
  1840                           
  1841                           ;Main.c: 161: _delay((unsigned long)((100)*(4000000/4000.0)));
  1842  000DAA  0E82               	movlw	130
  1843  000DAC  6E38               	movwf	??_main& (0+255),c
  1844  000DAE  0EDE               	movlw	222
  1845  000DB0                     u3027:
  1846  000DB0  2EE8               	decfsz	wreg,f,c
  1847  000DB2  D7FE               	goto	u3027
  1848  000DB4  2E38               	decfsz	??_main& (0+255),f,c
  1849  000DB6  D7FC               	goto	u3027
  1850                           
  1851                           ;Main.c: 162: _delay((unsigned long)((100)*(4000000/4000.0)));
  1852  000DB8  0E82               	movlw	130
  1853  000DBA  6E38               	movwf	??_main& (0+255),c
  1854  000DBC  0EDE               	movlw	222
  1855  000DBE                     u3037:
  1856  000DBE  2EE8               	decfsz	wreg,f,c
  1857  000DC0  D7FE               	goto	u3037
  1858  000DC2  2E38               	decfsz	??_main& (0+255),f,c
  1859  000DC4  D7FC               	goto	u3037
  1860                           
  1861                           ;Main.c: 163: _delay((unsigned long)((100)*(4000000/4000.0)));
  1862  000DC6  0E82               	movlw	130
  1863  000DC8  6E38               	movwf	??_main& (0+255),c
  1864  000DCA  0EDE               	movlw	222
  1865  000DCC                     u3047:
  1866  000DCC  2EE8               	decfsz	wreg,f,c
  1867  000DCE  D7FE               	goto	u3047
  1868  000DD0  2E38               	decfsz	??_main& (0+255),f,c
  1869  000DD2  D7FC               	goto	u3047
  1870                           
  1871                           ;Main.c: 164: _delay((unsigned long)((100)*(4000000/4000.0)));
  1872  000DD4  0E82               	movlw	130
  1873  000DD6  6E38               	movwf	??_main& (0+255),c
  1874  000DD8  0EDE               	movlw	222
  1875  000DDA                     u3057:
  1876  000DDA  2EE8               	decfsz	wreg,f,c
  1877  000DDC  D7FE               	goto	u3057
  1878  000DDE  2E38               	decfsz	??_main& (0+255),f,c
  1879  000DE0  D7FC               	goto	u3057
  1880                           
  1881                           ;Main.c: 165: key=Recuperar();
  1882  000DE2  EC79  F012         	call	_Recuperar	;wreg free
  1883  000DE6  0100               	movlb	0	; () banked
  1884  000DE8  6FCE               	movwf	main@key& (0+255),b
  1885                           
  1886                           ; BSR set to: 0
  1887                           ;Main.c: 166: if(key=='*'){q=0;}
  1888  000DEA  0100               	movlb	0	; () banked
  1889  000DEC  51CE               	movf	main@key& (0+255),w,b
  1890  000DEE  0A2A               	xorlw	42
  1891  000DF0  A4D8               	btfss	status,2,c
  1892  000DF2  D006               	goto	l3109
  1893                           
  1894                           ; BSR set to: 0
  1895  000DF4  0E00               	movlw	0
  1896  000DF6  0100               	movlb	0	; () banked
  1897  000DF8  6FD0               	movwf	(_q+1)& (0+255),b
  1898  000DFA  0E00               	movlw	0
  1899  000DFC  0100               	movlb	0	; () banked
  1900  000DFE  6FCF               	movwf	_q& (0+255),b
  1901  000E00                     l3109:
  1902                           
  1903                           ; BSR set to: 0
  1904                           ;Main.c: 167: }while(q==1);
  1905  000E00  0100               	movlb	0	; () banked
  1906  000E02  05CF               	decf	_q& (0+255),w,b
  1907  000E04  11D0               	iorwf	(_q+1)& (0+255),w,b
  1908  000E06  B4D8               	btfsc	status,2,c
  1909  000E08  D6E6               	goto	l3041
  1910  000E0A                     l3111:
  1911                           
  1912                           ; BSR set to: 0
  1913                           ;Main.c: 168: }
  1914                           ;Main.c: 169: if(key=='D'){w=0;}
  1915  000E0A  0100               	movlb	0	; () banked
  1916  000E0C  51CE               	movf	main@key& (0+255),w,b
  1917  000E0E  0A44               	xorlw	68
  1918  000E10  A4D8               	btfss	status,2,c
  1919  000E12  D006               	goto	l3115
  1920                           
  1921                           ; BSR set to: 0
  1922  000E14  0E00               	movlw	0
  1923  000E16  0100               	movlb	0	; () banked
  1924  000E18  6FD8               	movwf	(_w+1)& (0+255),b
  1925  000E1A  0E00               	movlw	0
  1926  000E1C  0100               	movlb	0	; () banked
  1927  000E1E  6FD7               	movwf	_w& (0+255),b
  1928  000E20                     l3115:
  1929                           
  1930                           ; BSR set to: 0
  1931                           ;Main.c: 170: }while(w==1);
  1932  000E20  0100               	movlb	0	; () banked
  1933  000E22  05D7               	decf	_w& (0+255),w,b
  1934  000E24  11D8               	iorwf	(_w+1)& (0+255),w,b
  1935  000E26  B4D8               	btfsc	status,2,c
  1936  000E28  D66E               	goto	l2997
  1937  000E2A                     l3117:
  1938                           
  1939                           ; BSR set to: 0
  1940                           ;Main.c: 171: }
  1941                           ;Main.c: 175: if(key=='B'){
  1942  000E2A  0100               	movlb	0	; () banked
  1943  000E2C  51CE               	movf	main@key& (0+255),w,b
  1944  000E2E  0A42               	xorlw	66
  1945  000E30  A4D8               	btfss	status,2,c
  1946  000E32  D0B8               	goto	l3199
  1947                           
  1948                           ; BSR set to: 0
  1949                           ;Main.c: 176: w=1;
  1950  000E34  0E00               	movlw	0
  1951  000E36  0100               	movlb	0	; () banked
  1952  000E38  6FD8               	movwf	(_w+1)& (0+255),b
  1953  000E3A  0E01               	movlw	1
  1954  000E3C  0100               	movlb	0	; () banked
  1955  000E3E  6FD7               	movwf	_w& (0+255),b
  1956                           
  1957                           ; BSR set to: 0
  1958                           ;Main.c: 177: Lcd_Init();
  1959  000E40  EC7C  F00C         	call	_Lcd_Init	;wreg free
  1960                           
  1961                           ;Main.c: 178: Lcd_Cmd(1);
  1962  000E44  0E01               	movlw	1
  1963  000E46  ECA3  F00D         	call	_Lcd_Cmd
  1964                           
  1965                           ;Main.c: 179: Lcd_Cmd(12);
  1966  000E4A  0E0C               	movlw	12
  1967  000E4C  ECA3  F00D         	call	_Lcd_Cmd
  1968                           
  1969                           ;Main.c: 180: int_teclado();
  1970  000E50  EC80  F012         	call	_int_teclado	;wreg free
  1971                           
  1972                           ;Main.c: 181: key=Recuperar();
  1973  000E54  EC79  F012         	call	_Recuperar	;wreg free
  1974  000E58  0100               	movlb	0	; () banked
  1975  000E5A  6FCE               	movwf	main@key& (0+255),b
  1976  000E5C                     l3131:
  1977                           
  1978                           ; BSR set to: 0
  1979                           ;Main.c: 183: Lcd_Init();
  1980  000E5C  EC7C  F00C         	call	_Lcd_Init	;wreg free
  1981                           
  1982                           ;Main.c: 184: Lcd_Cmd(1);
  1983  000E60  0E01               	movlw	1
  1984  000E62  ECA3  F00D         	call	_Lcd_Cmd
  1985                           
  1986                           ;Main.c: 185: Lcd_Cmd(12);
  1987  000E66  0E0C               	movlw	12
  1988  000E68  ECA3  F00D         	call	_Lcd_Cmd
  1989                           
  1990                           ;Main.c: 186: Lcd_Out2(1,1,"A.-Senal 1");
  1991  000E6C  0E01               	movlw	1
  1992  000E6E  6E04               	movwf	Lcd_Out2@x,c
  1993  000E70  0E08               	movlw	high STR_23
  1994  000E72  6E06               	movwf	Lcd_Out2@buffer+1,c
  1995  000E74  0E7A               	movlw	low STR_23
  1996  000E76  6E05               	movwf	Lcd_Out2@buffer,c
  1997  000E78  0E01               	movlw	1
  1998  000E7A  ECCF  F010         	call	_Lcd_Out2
  1999                           
  2000                           ;Main.c: 187: Lcd_Out2(2,1,"B.-Seal 2");
  2001  000E7E  0E01               	movlw	1
  2002  000E80  6E04               	movwf	Lcd_Out2@x,c
  2003  000E82  0E08               	movlw	high STR_24
  2004  000E84  6E06               	movwf	Lcd_Out2@buffer+1,c
  2005  000E86  0E85               	movlw	low STR_24
  2006  000E88  6E05               	movwf	Lcd_Out2@buffer,c
  2007  000E8A  0E02               	movlw	2
  2008  000E8C  ECCF  F010         	call	_Lcd_Out2
  2009                           
  2010                           ;Main.c: 188: _delay((unsigned long)((100)*(4000000/4000.0)));
  2011  000E90  0E82               	movlw	130
  2012  000E92  6E38               	movwf	??_main& (0+255),c
  2013  000E94  0EDE               	movlw	222
  2014  000E96                     u3067:
  2015  000E96  2EE8               	decfsz	wreg,f,c
  2016  000E98  D7FE               	goto	u3067
  2017  000E9A  2E38               	decfsz	??_main& (0+255),f,c
  2018  000E9C  D7FC               	goto	u3067
  2019                           
  2020                           ;Main.c: 189: _delay((unsigned long)((100)*(4000000/4000.0)));
  2021  000E9E  0E82               	movlw	130
  2022  000EA0  6E38               	movwf	??_main& (0+255),c
  2023  000EA2  0EDE               	movlw	222
  2024  000EA4                     u3077:
  2025  000EA4  2EE8               	decfsz	wreg,f,c
  2026  000EA6  D7FE               	goto	u3077
  2027  000EA8  2E38               	decfsz	??_main& (0+255),f,c
  2028  000EAA  D7FC               	goto	u3077
  2029                           
  2030                           ;Main.c: 190: key = Recuperar();
  2031  000EAC  EC79  F012         	call	_Recuperar	;wreg free
  2032  000EB0  0100               	movlb	0	; () banked
  2033  000EB2  6FCE               	movwf	main@key& (0+255),b
  2034                           
  2035                           ; BSR set to: 0
  2036                           ;Main.c: 191: Lcd_Init();
  2037  000EB4  EC7C  F00C         	call	_Lcd_Init	;wreg free
  2038                           
  2039                           ;Main.c: 192: Lcd_Cmd(1);
  2040  000EB8  0E01               	movlw	1
  2041  000EBA  ECA3  F00D         	call	_Lcd_Cmd
  2042                           
  2043                           ;Main.c: 193: Lcd_Cmd(12);
  2044  000EBE  0E0C               	movlw	12
  2045  000EC0  ECA3  F00D         	call	_Lcd_Cmd
  2046                           
  2047                           ;Main.c: 194: Lcd_Out2(1,1,"C.-Senal 3");
  2048  000EC4  0E01               	movlw	1
  2049  000EC6  6E04               	movwf	Lcd_Out2@x,c
  2050  000EC8  0E08               	movlw	high STR_25
  2051  000ECA  6E06               	movwf	Lcd_Out2@buffer+1,c
  2052  000ECC  0E90               	movlw	low STR_25
  2053  000ECE  6E05               	movwf	Lcd_Out2@buffer,c
  2054  000ED0  0E01               	movlw	1
  2055  000ED2  ECCF  F010         	call	_Lcd_Out2
  2056                           
  2057                           ;Main.c: 195: _delay((unsigned long)((100)*(4000000/4000.0)));
  2058  000ED6  0E82               	movlw	130
  2059  000ED8  6E38               	movwf	??_main& (0+255),c
  2060  000EDA  0EDE               	movlw	222
  2061  000EDC                     u3087:
  2062  000EDC  2EE8               	decfsz	wreg,f,c
  2063  000EDE  D7FE               	goto	u3087
  2064  000EE0  2E38               	decfsz	??_main& (0+255),f,c
  2065  000EE2  D7FC               	goto	u3087
  2066                           
  2067                           ;Main.c: 196: _delay((unsigned long)((100)*(4000000/4000.0)));
  2068  000EE4  0E82               	movlw	130
  2069  000EE6  6E38               	movwf	??_main& (0+255),c
  2070  000EE8  0EDE               	movlw	222
  2071  000EEA                     u3097:
  2072  000EEA  2EE8               	decfsz	wreg,f,c
  2073  000EEC  D7FE               	goto	u3097
  2074  000EEE  2E38               	decfsz	??_main& (0+255),f,c
  2075  000EF0  D7FC               	goto	u3097
  2076                           
  2077                           ;Main.c: 197: key = Recuperar();
  2078  000EF2  EC79  F012         	call	_Recuperar	;wreg free
  2079  000EF6  0100               	movlb	0	; () banked
  2080  000EF8  6FCE               	movwf	main@key& (0+255),b
  2081                           
  2082                           ; BSR set to: 0
  2083                           ;Main.c: 198: if(key=='A'){
  2084  000EFA  0100               	movlb	0	; () banked
  2085  000EFC  51CE               	movf	main@key& (0+255),w,b
  2086  000EFE  0A41               	xorlw	65
  2087  000F00  A4D8               	btfss	status,2,c
  2088  000F02  D040               	goto	l3193
  2089                           
  2090                           ; BSR set to: 0
  2091                           ;Main.c: 199: q=1;
  2092  000F04  0E00               	movlw	0
  2093  000F06  0100               	movlb	0	; () banked
  2094  000F08  6FD0               	movwf	(_q+1)& (0+255),b
  2095  000F0A  0E01               	movlw	1
  2096  000F0C  0100               	movlb	0	; () banked
  2097  000F0E  6FCF               	movwf	_q& (0+255),b
  2098                           
  2099                           ; BSR set to: 0
  2100                           ;Main.c: 200: Lcd_Init();
  2101  000F10  EC7C  F00C         	call	_Lcd_Init	;wreg free
  2102                           
  2103                           ;Main.c: 201: Lcd_Cmd(1);
  2104  000F14  0E01               	movlw	1
  2105  000F16  ECA3  F00D         	call	_Lcd_Cmd
  2106                           
  2107                           ;Main.c: 202: Lcd_Cmd(12);
  2108  000F1A  0E0C               	movlw	12
  2109  000F1C  ECA3  F00D         	call	_Lcd_Cmd
  2110                           
  2111                           ;Main.c: 203: int_teclado();
  2112  000F20  EC80  F012         	call	_int_teclado	;wreg free
  2113                           
  2114                           ;Main.c: 204: key=Recuperar();
  2115  000F24  EC79  F012         	call	_Recuperar	;wreg free
  2116  000F28  0100               	movlb	0	; () banked
  2117  000F2A  6FCE               	movwf	main@key& (0+255),b
  2118  000F2C                     l3175:
  2119                           
  2120                           ; BSR set to: 0
  2121                           ;Main.c: 206: Lcd_Init();
  2122  000F2C  EC7C  F00C         	call	_Lcd_Init	;wreg free
  2123                           
  2124                           ;Main.c: 207: Lcd_Cmd(1);
  2125  000F30  0E01               	movlw	1
  2126  000F32  ECA3  F00D         	call	_Lcd_Cmd
  2127                           
  2128                           ;Main.c: 208: Lcd_Cmd(12);
  2129  000F36  0E0C               	movlw	12
  2130  000F38  ECA3  F00D         	call	_Lcd_Cmd
  2131                           
  2132                           ;Main.c: 209: Lcd_Out2(1,1,"Seal 1");
  2133  000F3C  0E01               	movlw	1
  2134  000F3E  6E04               	movwf	Lcd_Out2@x,c
  2135  000F40  0E08               	movlw	high STR_26
  2136  000F42  6E06               	movwf	Lcd_Out2@buffer+1,c
  2137  000F44  0ECA               	movlw	low STR_26
  2138  000F46  6E05               	movwf	Lcd_Out2@buffer,c
  2139  000F48  0E01               	movlw	1
  2140  000F4A  ECCF  F010         	call	_Lcd_Out2
  2141                           
  2142                           ;Main.c: 210: _delay((unsigned long)((100)*(4000000/4000.0)));
  2143  000F4E  0E82               	movlw	130
  2144  000F50  6E38               	movwf	??_main& (0+255),c
  2145  000F52  0EDE               	movlw	222
  2146  000F54                     u3107:
  2147  000F54  2EE8               	decfsz	wreg,f,c
  2148  000F56  D7FE               	goto	u3107
  2149  000F58  2E38               	decfsz	??_main& (0+255),f,c
  2150  000F5A  D7FC               	goto	u3107
  2151                           
  2152                           ;Main.c: 211: key=Recuperar();
  2153  000F5C  EC79  F012         	call	_Recuperar	;wreg free
  2154  000F60  0100               	movlb	0	; () banked
  2155  000F62  6FCE               	movwf	main@key& (0+255),b
  2156                           
  2157                           ; BSR set to: 0
  2158                           ;Main.c: 212: if(key=='*'){q=0;}
  2159  000F64  0100               	movlb	0	; () banked
  2160  000F66  51CE               	movf	main@key& (0+255),w,b
  2161  000F68  0A2A               	xorlw	42
  2162  000F6A  A4D8               	btfss	status,2,c
  2163  000F6C  D006               	goto	l3191
  2164                           
  2165                           ; BSR set to: 0
  2166  000F6E  0E00               	movlw	0
  2167  000F70  0100               	movlb	0	; () banked
  2168  000F72  6FD0               	movwf	(_q+1)& (0+255),b
  2169  000F74  0E00               	movlw	0
  2170  000F76  0100               	movlb	0	; () banked
  2171  000F78  6FCF               	movwf	_q& (0+255),b
  2172  000F7A                     l3191:
  2173                           
  2174                           ; BSR set to: 0
  2175                           ;Main.c: 213: }while(q==1);
  2176  000F7A  0100               	movlb	0	; () banked
  2177  000F7C  05CF               	decf	_q& (0+255),w,b
  2178  000F7E  11D0               	iorwf	(_q+1)& (0+255),w,b
  2179  000F80  B4D8               	btfsc	status,2,c
  2180  000F82  D7D4               	goto	l3175
  2181  000F84                     l3193:
  2182                           
  2183                           ; BSR set to: 0
  2184                           ;Main.c: 214: }
  2185                           ;Main.c: 215: if(key=='D'){w=0;}
  2186  000F84  0100               	movlb	0	; () banked
  2187  000F86  51CE               	movf	main@key& (0+255),w,b
  2188  000F88  0A44               	xorlw	68
  2189  000F8A  A4D8               	btfss	status,2,c
  2190  000F8C  D006               	goto	l3197
  2191                           
  2192                           ; BSR set to: 0
  2193  000F8E  0E00               	movlw	0
  2194  000F90  0100               	movlb	0	; () banked
  2195  000F92  6FD8               	movwf	(_w+1)& (0+255),b
  2196  000F94  0E00               	movlw	0
  2197  000F96  0100               	movlb	0	; () banked
  2198  000F98  6FD7               	movwf	_w& (0+255),b
  2199  000F9A                     l3197:
  2200                           
  2201                           ; BSR set to: 0
  2202                           ;Main.c: 216: }while(w==1);
  2203  000F9A  0100               	movlb	0	; () banked
  2204  000F9C  05D7               	decf	_w& (0+255),w,b
  2205  000F9E  11D8               	iorwf	(_w+1)& (0+255),w,b
  2206  000FA0  B4D8               	btfsc	status,2,c
  2207  000FA2  D75C               	goto	l3131
  2208  000FA4                     l3199:
  2209                           
  2210                           ; BSR set to: 0
  2211                           ;Main.c: 217: }
  2212                           ;Main.c: 219: if(key=='A'){
  2213  000FA4  0100               	movlb	0	; () banked
  2214  000FA6  51CE               	movf	main@key& (0+255),w,b
  2215  000FA8  0A41               	xorlw	65
  2216  000FAA  A4D8               	btfss	status,2,c
  2217  000FAC  D1A1               	goto	l3329
  2218                           
  2219                           ; BSR set to: 0
  2220                           ;Main.c: 220: w=1;
  2221  000FAE  0E00               	movlw	0
  2222  000FB0  0100               	movlb	0	; () banked
  2223  000FB2  6FD8               	movwf	(_w+1)& (0+255),b
  2224  000FB4  0E01               	movlw	1
  2225  000FB6  0100               	movlb	0	; () banked
  2226  000FB8  6FD7               	movwf	_w& (0+255),b
  2227                           
  2228                           ; BSR set to: 0
  2229                           ;Main.c: 221: Lcd_Init();
  2230  000FBA  EC7C  F00C         	call	_Lcd_Init	;wreg free
  2231                           
  2232                           ;Main.c: 222: Lcd_Cmd(1);
  2233  000FBE  0E01               	movlw	1
  2234  000FC0  ECA3  F00D         	call	_Lcd_Cmd
  2235                           
  2236                           ;Main.c: 223: Lcd_Cmd(12);
  2237  000FC4  0E0C               	movlw	12
  2238  000FC6  ECA3  F00D         	call	_Lcd_Cmd
  2239                           
  2240                           ;Main.c: 224: int_teclado();
  2241  000FCA  EC80  F012         	call	_int_teclado	;wreg free
  2242                           
  2243                           ;Main.c: 225: key=Recuperar();
  2244  000FCE  EC79  F012         	call	_Recuperar	;wreg free
  2245  000FD2  0100               	movlb	0	; () banked
  2246  000FD4  6FCE               	movwf	main@key& (0+255),b
  2247  000FD6                     l3213:
  2248                           
  2249                           ; BSR set to: 0
  2250                           ;Main.c: 227: Lcd_Init();
  2251  000FD6  EC7C  F00C         	call	_Lcd_Init	;wreg free
  2252                           
  2253                           ;Main.c: 228: Lcd_Cmd(1);
  2254  000FDA  0E01               	movlw	1
  2255  000FDC  ECA3  F00D         	call	_Lcd_Cmd
  2256                           
  2257                           ;Main.c: 229: Lcd_Cmd(12);
  2258  000FE0  0E0C               	movlw	12
  2259  000FE2  ECA3  F00D         	call	_Lcd_Cmd
  2260                           
  2261                           ;Main.c: 230: Lcd_Out2(1,1,"1.-Datos");
  2262  000FE6  0E01               	movlw	1
  2263  000FE8  6E04               	movwf	Lcd_Out2@x,c
  2264  000FEA  0E08               	movlw	high STR_8
  2265  000FEC  6E06               	movwf	Lcd_Out2@buffer+1,c
  2266  000FEE  0EB9               	movlw	low STR_8
  2267  000FF0  6E05               	movwf	Lcd_Out2@buffer,c
  2268  000FF2  0E01               	movlw	1
  2269  000FF4  ECCF  F010         	call	_Lcd_Out2
  2270                           
  2271                           ;Main.c: 231: Lcd_Out2(2,1,"2.-Comenzar");
  2272  000FF8  0E01               	movlw	1
  2273  000FFA  6E04               	movwf	Lcd_Out2@x,c
  2274  000FFC  0E08               	movlw	high STR_9
  2275  000FFE  6E06               	movwf	Lcd_Out2@buffer+1,c
  2276  001000  0E6E               	movlw	low STR_9
  2277  001002  6E05               	movwf	Lcd_Out2@buffer,c
  2278  001004  0E02               	movlw	2
  2279  001006  ECCF  F010         	call	_Lcd_Out2
  2280                           
  2281                           ;Main.c: 232: _delay((unsigned long)((100)*(4000000/4000.0)));
  2282  00100A  0E82               	movlw	130
  2283  00100C  6E38               	movwf	??_main& (0+255),c
  2284  00100E  0EDE               	movlw	222
  2285  001010                     u3117:
  2286  001010  2EE8               	decfsz	wreg,f,c
  2287  001012  D7FE               	goto	u3117
  2288  001014  2E38               	decfsz	??_main& (0+255),f,c
  2289  001016  D7FC               	goto	u3117
  2290                           
  2291                           ;Main.c: 233: _delay((unsigned long)((100)*(4000000/4000.0)));
  2292  001018  0E82               	movlw	130
  2293  00101A  6E38               	movwf	??_main& (0+255),c
  2294  00101C  0EDE               	movlw	222
  2295  00101E                     u3127:
  2296  00101E  2EE8               	decfsz	wreg,f,c
  2297  001020  D7FE               	goto	u3127
  2298  001022  2E38               	decfsz	??_main& (0+255),f,c
  2299  001024  D7FC               	goto	u3127
  2300                           
  2301                           ;Main.c: 234: key=Recuperar();
  2302  001026  EC79  F012         	call	_Recuperar	;wreg free
  2303  00102A  0100               	movlb	0	; () banked
  2304  00102C  6FCE               	movwf	main@key& (0+255),b
  2305                           
  2306                           ; BSR set to: 0
  2307                           ;Main.c: 235: if(key=='1') {
  2308  00102E  0100               	movlb	0	; () banked
  2309  001030  51CE               	movf	main@key& (0+255),w,b
  2310  001032  0A31               	xorlw	49
  2311  001034  A4D8               	btfss	status,2,c
  2312  001036  D0B6               	goto	l3289
  2313                           
  2314                           ; BSR set to: 0
  2315                           ;Main.c: 236: r=1;
  2316  001038  0E00               	movlw	0
  2317  00103A  0100               	movlb	0	; () banked
  2318  00103C  6FD2               	movwf	(_r+1)& (0+255),b
  2319  00103E  0E01               	movlw	1
  2320  001040  0100               	movlb	0	; () banked
  2321  001042  6FD1               	movwf	_r& (0+255),b
  2322  001044                     l3233:
  2323                           
  2324                           ; BSR set to: 0
  2325                           ;Main.c: 238: Lcd_Cmd(1);
  2326  001044  0E01               	movlw	1
  2327  001046  ECA3  F00D         	call	_Lcd_Cmd
  2328                           
  2329                           ;Main.c: 239: Lcd_Cmd(12);
  2330  00104A  0E0C               	movlw	12
  2331  00104C  ECA3  F00D         	call	_Lcd_Cmd
  2332                           
  2333                           ;Main.c: 240: Lcd_Out2(1,1,"1.-Frecuencia");
  2334  001050  0E01               	movlw	1
  2335  001052  6E04               	movwf	Lcd_Out2@x,c
  2336  001054  0E08               	movlw	high STR_33
  2337  001056  6E06               	movwf	Lcd_Out2@buffer+1,c
  2338  001058  0E20               	movlw	low STR_33
  2339  00105A  6E05               	movwf	Lcd_Out2@buffer,c
  2340  00105C  0E01               	movlw	1
  2341  00105E  ECCF  F010         	call	_Lcd_Out2
  2342                           
  2343                           ;Main.c: 241: Lcd_Out2(2,1,"2.-Ciclo");
  2344  001062  0E01               	movlw	1
  2345  001064  6E04               	movwf	Lcd_Out2@x,c
  2346  001066  0E08               	movlw	high STR_34
  2347  001068  6E06               	movwf	Lcd_Out2@buffer+1,c
  2348  00106A  0EB0               	movlw	low STR_34
  2349  00106C  6E05               	movwf	Lcd_Out2@buffer,c
  2350  00106E  0E02               	movlw	2
  2351  001070  ECCF  F010         	call	_Lcd_Out2
  2352                           
  2353                           ;Main.c: 242: _delay((unsigned long)((100)*(4000000/4000.0)));
  2354  001074  0E82               	movlw	130
  2355  001076  6E38               	movwf	??_main& (0+255),c
  2356  001078  0EDE               	movlw	222
  2357  00107A                     u3137:
  2358  00107A  2EE8               	decfsz	wreg,f,c
  2359  00107C  D7FE               	goto	u3137
  2360  00107E  2E38               	decfsz	??_main& (0+255),f,c
  2361  001080  D7FC               	goto	u3137
  2362                           
  2363                           ;Main.c: 243: _delay((unsigned long)((100)*(4000000/4000.0)));
  2364  001082  0E82               	movlw	130
  2365  001084  6E38               	movwf	??_main& (0+255),c
  2366  001086  0EDE               	movlw	222
  2367  001088                     u3147:
  2368  001088  2EE8               	decfsz	wreg,f,c
  2369  00108A  D7FE               	goto	u3147
  2370  00108C  2E38               	decfsz	??_main& (0+255),f,c
  2371  00108E  D7FC               	goto	u3147
  2372                           
  2373                           ;Main.c: 244: key=Recuperar();
  2374  001090  EC79  F012         	call	_Recuperar	;wreg free
  2375  001094  0100               	movlb	0	; () banked
  2376  001096  6FCE               	movwf	main@key& (0+255),b
  2377                           
  2378                           ; BSR set to: 0
  2379                           ;Main.c: 245: if(key=='1'){
  2380  001098  0100               	movlb	0	; () banked
  2381  00109A  51CE               	movf	main@key& (0+255),w,b
  2382  00109C  0A31               	xorlw	49
  2383  00109E  A4D8               	btfss	status,2,c
  2384  0010A0  D036               	goto	l3265
  2385                           
  2386                           ; BSR set to: 0
  2387                           ;Main.c: 246: int zx=1;
  2388  0010A2  0E00               	movlw	0
  2389  0010A4  0100               	movlb	0	; () banked
  2390  0010A6  6FC7               	movwf	(main@zx+1)& (0+255),b
  2391  0010A8  0E01               	movlw	1
  2392  0010AA  0100               	movlb	0	; () banked
  2393  0010AC  6FC6               	movwf	main@zx& (0+255),b
  2394  0010AE                     l3251:
  2395                           
  2396                           ; BSR set to: 0
  2397                           ;Main.c: 248: Frecuencia(frecuencia);
  2398  0010AE  0100               	movlb	0	; () banked
  2399  0010B0  0E00               	movlw	high _frecuencia
  2400  0010B2  6E16               	movwf	Frecuencia@frecuencia+1,c
  2401  0010B4  0100               	movlb	0	; () banked
  2402  0010B6  0EED               	movlw	low _frecuencia
  2403  0010B8  6E15               	movwf	Frecuencia@frecuencia,c
  2404  0010BA  EC26  F012         	call	_Frecuencia	;wreg free
  2405                           
  2406                           ;Main.c: 249: Imprimir_pantalla(frecuencia);
  2407  0010BE  0100               	movlb	0	; () banked
  2408  0010C0  0E00               	movlw	high _frecuencia
  2409  0010C2  6E0A               	movwf	Imprimir_pantalla@N+1,c
  2410  0010C4  0100               	movlb	0	; () banked
  2411  0010C6  0EED               	movlw	low _frecuencia
  2412  0010C8  6E09               	movwf	Imprimir_pantalla@N,c
  2413  0010CA  EC08  F012         	call	_Imprimir_pantalla	;wreg free
  2414                           
  2415                           ;Main.c: 250: s=atoi(frecuencia);
  2416  0010CE  0100               	movlb	0	; () banked
  2417  0010D0  0E00               	movlw	high _frecuencia
  2418  0010D2  6E08               	movwf	atoi@s+1,c
  2419  0010D4  0100               	movlb	0	; () banked
  2420  0010D6  0EED               	movlw	low _frecuencia
  2421  0010D8  6E07               	movwf	atoi@s,c
  2422  0010DA  EC1D  F010         	call	_atoi	;wreg free
  2423  0010DE  C007  F0D3         	movff	?_atoi,_s
  2424  0010E2  C008  F0D4         	movff	?_atoi+1,_s+1
  2425                           
  2426                           ;Main.c: 251: key=Recuperar();
  2427  0010E6  EC79  F012         	call	_Recuperar	;wreg free
  2428  0010EA  0100               	movlb	0	; () banked
  2429  0010EC  6FCE               	movwf	main@key& (0+255),b
  2430                           
  2431                           ; BSR set to: 0
  2432                           ;Main.c: 252: if(key=='#'){
  2433  0010EE  0100               	movlb	0	; () banked
  2434  0010F0  51CE               	movf	main@key& (0+255),w,b
  2435  0010F2  0A23               	xorlw	35
  2436  0010F4  A4D8               	btfss	status,2,c
  2437  0010F6  D006               	goto	l3263
  2438                           
  2439                           ; BSR set to: 0
  2440                           ;Main.c: 253: zx=0;
  2441  0010F8  0E00               	movlw	0
  2442  0010FA  0100               	movlb	0	; () banked
  2443  0010FC  6FC7               	movwf	(main@zx+1)& (0+255),b
  2444  0010FE  0E00               	movlw	0
  2445  001100  0100               	movlb	0	; () banked
  2446  001102  6FC6               	movwf	main@zx& (0+255),b
  2447  001104                     l3263:
  2448                           
  2449                           ; BSR set to: 0
  2450                           ;Main.c: 254: }
  2451                           ;Main.c: 255: }while(zx==1);
  2452  001104  0100               	movlb	0	; () banked
  2453  001106  05C6               	decf	main@zx& (0+255),w,b
  2454  001108  11C7               	iorwf	(main@zx+1)& (0+255),w,b
  2455  00110A  B4D8               	btfsc	status,2,c
  2456  00110C  D7D0               	goto	l3251
  2457  00110E                     l3265:
  2458                           
  2459                           ; BSR set to: 0
  2460                           ;Main.c: 256: }
  2461                           ;Main.c: 257: if(key=='2'){
  2462  00110E  0100               	movlb	0	; () banked
  2463  001110  51CE               	movf	main@key& (0+255),w,b
  2464  001112  0A32               	xorlw	50
  2465  001114  A4D8               	btfss	status,2,c
  2466  001116  D036               	goto	l3283
  2467                           
  2468                           ; BSR set to: 0
  2469                           ;Main.c: 258: int zx=1;
  2470  001118  0E00               	movlw	0
  2471  00111A  0100               	movlb	0	; () banked
  2472  00111C  6FC9               	movwf	(main@zx_420+1)& (0+255),b
  2473  00111E  0E01               	movlw	1
  2474  001120  0100               	movlb	0	; () banked
  2475  001122  6FC8               	movwf	main@zx_420& (0+255),b
  2476  001124                     l3269:
  2477                           
  2478                           ; BSR set to: 0
  2479                           ;Main.c: 260: Ciclo(ciclo);
  2480  001124  0100               	movlb	0	; () banked
  2481  001126  0E00               	movlw	high _ciclo
  2482  001128  6E16               	movwf	Ciclo@ciclo+1,c
  2483  00112A  0100               	movlb	0	; () banked
  2484  00112C  0EE3               	movlw	low _ciclo
  2485  00112E  6E15               	movwf	Ciclo@ciclo,c
  2486  001130  EC3E  F012         	call	_Ciclo	;wreg free
  2487                           
  2488                           ;Main.c: 261: Imprimir_pantalla(ciclo);
  2489  001134  0100               	movlb	0	; () banked
  2490  001136  0E00               	movlw	high _ciclo
  2491  001138  6E0A               	movwf	Imprimir_pantalla@N+1,c
  2492  00113A  0100               	movlb	0	; () banked
  2493  00113C  0EE3               	movlw	low _ciclo
  2494  00113E  6E09               	movwf	Imprimir_pantalla@N,c
  2495  001140  EC08  F012         	call	_Imprimir_pantalla	;wreg free
  2496                           
  2497                           ;Main.c: 262: t=atoi(ciclo);
  2498  001144  0100               	movlb	0	; () banked
  2499  001146  0E00               	movlw	high _ciclo
  2500  001148  6E08               	movwf	atoi@s+1,c
  2501  00114A  0100               	movlb	0	; () banked
  2502  00114C  0EE3               	movlw	low _ciclo
  2503  00114E  6E07               	movwf	atoi@s,c
  2504  001150  EC1D  F010         	call	_atoi	;wreg free
  2505  001154  C007  F0D5         	movff	?_atoi,_t
  2506  001158  C008  F0D6         	movff	?_atoi+1,_t+1
  2507                           
  2508                           ;Main.c: 263: key=Recuperar();
  2509  00115C  EC79  F012         	call	_Recuperar	;wreg free
  2510  001160  0100               	movlb	0	; () banked
  2511  001162  6FCE               	movwf	main@key& (0+255),b
  2512                           
  2513                           ; BSR set to: 0
  2514                           ;Main.c: 264: if(key=='#'){
  2515  001164  0100               	movlb	0	; () banked
  2516  001166  51CE               	movf	main@key& (0+255),w,b
  2517  001168  0A23               	xorlw	35
  2518  00116A  A4D8               	btfss	status,2,c
  2519  00116C  D006               	goto	l3281
  2520                           
  2521                           ; BSR set to: 0
  2522                           ;Main.c: 265: zx=0;
  2523  00116E  0E00               	movlw	0
  2524  001170  0100               	movlb	0	; () banked
  2525  001172  6FC9               	movwf	(main@zx_420+1)& (0+255),b
  2526  001174  0E00               	movlw	0
  2527  001176  0100               	movlb	0	; () banked
  2528  001178  6FC8               	movwf	main@zx_420& (0+255),b
  2529  00117A                     l3281:
  2530                           
  2531                           ; BSR set to: 0
  2532                           ;Main.c: 266: }
  2533                           ;Main.c: 267: }while(zx==1);
  2534  00117A  0100               	movlb	0	; () banked
  2535  00117C  05C8               	decf	main@zx_420& (0+255),w,b
  2536  00117E  11C9               	iorwf	(main@zx_420+1)& (0+255),w,b
  2537  001180  B4D8               	btfsc	status,2,c
  2538  001182  D7D0               	goto	l3269
  2539  001184                     l3283:
  2540                           
  2541                           ; BSR set to: 0
  2542                           ;Main.c: 268: }
  2543                           ;Main.c: 269: if(key=='*'){
  2544  001184  0100               	movlb	0	; () banked
  2545  001186  51CE               	movf	main@key& (0+255),w,b
  2546  001188  0A2A               	xorlw	42
  2547  00118A  A4D8               	btfss	status,2,c
  2548  00118C  D006               	goto	l3287
  2549                           
  2550                           ; BSR set to: 0
  2551                           ;Main.c: 270: r=0;
  2552  00118E  0E00               	movlw	0
  2553  001190  0100               	movlb	0	; () banked
  2554  001192  6FD2               	movwf	(_r+1)& (0+255),b
  2555  001194  0E00               	movlw	0
  2556  001196  0100               	movlb	0	; () banked
  2557  001198  6FD1               	movwf	_r& (0+255),b
  2558  00119A                     l3287:
  2559                           
  2560                           ; BSR set to: 0
  2561                           ;Main.c: 271: }
  2562                           ;Main.c: 272: }while(r==1);
  2563  00119A  0100               	movlb	0	; () banked
  2564  00119C  05D1               	decf	_r& (0+255),w,b
  2565  00119E  11D2               	iorwf	(_r+1)& (0+255),w,b
  2566  0011A0  B4D8               	btfsc	status,2,c
  2567  0011A2  D750               	goto	l3233
  2568  0011A4                     l3289:
  2569                           
  2570                           ; BSR set to: 0
  2571                           ;Main.c: 273: }
  2572                           ;Main.c: 276: if(key=='2') {
  2573  0011A4  0100               	movlb	0	; () banked
  2574  0011A6  51CE               	movf	main@key& (0+255),w,b
  2575  0011A8  0A32               	xorlw	50
  2576  0011AA  A4D8               	btfss	status,2,c
  2577  0011AC  D08E               	goto	l3321
  2578                           
  2579                           ; BSR set to: 0
  2580                           ;Main.c: 277: Lcd_Init();
  2581  0011AE  EC7C  F00C         	call	_Lcd_Init	;wreg free
  2582                           
  2583                           ;Main.c: 278: Lcd_Cmd(1);
  2584  0011B2  0E01               	movlw	1
  2585  0011B4  ECA3  F00D         	call	_Lcd_Cmd
  2586                           
  2587                           ;Main.c: 279: Lcd_Cmd(12);
  2588  0011B8  0E0C               	movlw	12
  2589  0011BA  ECA3  F00D         	call	_Lcd_Cmd
  2590                           
  2591                           ;Main.c: 280: Lcd_Out2(1,1,"Fre: ");
  2592  0011BE  0E01               	movlw	1
  2593  0011C0  6E04               	movwf	Lcd_Out2@x,c
  2594  0011C2  0E08               	movlw	high STR_12
  2595  0011C4  6E06               	movwf	Lcd_Out2@buffer+1,c
  2596  0011C6  0ED2               	movlw	low STR_12
  2597  0011C8  6E05               	movwf	Lcd_Out2@buffer,c
  2598  0011CA  0E01               	movlw	1
  2599  0011CC  ECCF  F010         	call	_Lcd_Out2
  2600                           
  2601                           ;Main.c: 281: Lcd_Out2(1,13,"Hz");
  2602  0011D0  0E0D               	movlw	13
  2603  0011D2  6E04               	movwf	Lcd_Out2@x,c
  2604  0011D4  0E08               	movlw	high STR_13
  2605  0011D6  6E06               	movwf	Lcd_Out2@buffer+1,c
  2606  0011D8  0EDE               	movlw	low STR_13
  2607  0011DA  6E05               	movwf	Lcd_Out2@buffer,c
  2608  0011DC  0E01               	movlw	1
  2609  0011DE  ECCF  F010         	call	_Lcd_Out2
  2610                           
  2611                           ;Main.c: 283: cantidad= Conv_Entero(s,cadena);
  2612  0011E2  0100               	movlb	0	; () banked
  2613  0011E4  C0D3  F00F         	movff	_s,Conv_Entero@numero
  2614  0011E8  0100               	movlb	0	; () banked
  2615  0011EA  C0D4  F010         	movff	_s+1,Conv_Entero@numero+1
  2616  0011EE  6A11               	clrf	Conv_Entero@numero+2,c
  2617  0011F0  6A12               	clrf	Conv_Entero@numero+3,c
  2618  0011F2  0100               	movlb	0	; () banked
  2619  0011F4  0E00               	movlw	high _cadena
  2620  0011F6  6E14               	movwf	Conv_Entero@conv+1,c
  2621  0011F8  0100               	movlb	0	; () banked
  2622  0011FA  0ED9               	movlw	low _cadena
  2623  0011FC  6E13               	movwf	Conv_Entero@conv,c
  2624  0011FE  ECFA  F00A         	call	_Conv_Entero	;wreg free
  2625  001202  500F               	movf	?_Conv_Entero,w,c
  2626  001204  6E4F               	movwf	_cantidad,c
  2627                           
  2628                           ;Main.c: 285: Lcd_Out(1,8,cadena);
  2629  001206  0E08               	movlw	8
  2630  001208  6E04               	movwf	Lcd_Out@x,c
  2631  00120A  0100               	movlb	0	; () banked
  2632  00120C  0E00               	movlw	high _cadena
  2633  00120E  6E06               	movwf	Lcd_Out@buffer+1,c
  2634  001210  0100               	movlb	0	; () banked
  2635  001212  0ED9               	movlw	low _cadena
  2636  001214  6E05               	movwf	Lcd_Out@buffer,c
  2637  001216  0E01               	movlw	1
  2638  001218  EC58  F011         	call	_Lcd_Out
  2639                           
  2640                           ;Main.c: 286: Lcd_Out2(2,1,"Ciclo: ");
  2641  00121C  0E01               	movlw	1
  2642  00121E  6E04               	movwf	Lcd_Out2@x,c
  2643  001220  0E08               	movlw	high STR_14
  2644  001222  6E06               	movwf	Lcd_Out2@buffer+1,c
  2645  001224  0EC2               	movlw	low STR_14
  2646  001226  6E05               	movwf	Lcd_Out2@buffer,c
  2647  001228  0E02               	movlw	2
  2648  00122A  ECCF  F010         	call	_Lcd_Out2
  2649                           
  2650                           ;Main.c: 287: Lcd_Out2(2,12,"%");
  2651  00122E  0E0C               	movlw	12
  2652  001230  6E04               	movwf	Lcd_Out2@x,c
  2653  001232  0E08               	movlw	high STR_15
  2654  001234  6E06               	movwf	Lcd_Out2@buffer+1,c
  2655  001236  0EE1               	movlw	low STR_15
  2656  001238  6E05               	movwf	Lcd_Out2@buffer,c
  2657  00123A  0E02               	movlw	2
  2658  00123C  ECCF  F010         	call	_Lcd_Out2
  2659                           
  2660                           ;Main.c: 289: cantidad= Conv_Entero(t,cadena);
  2661  001240  0100               	movlb	0	; () banked
  2662  001242  C0D5  F00F         	movff	_t,Conv_Entero@numero
  2663  001246  0100               	movlb	0	; () banked
  2664  001248  C0D6  F010         	movff	_t+1,Conv_Entero@numero+1
  2665  00124C  6A11               	clrf	Conv_Entero@numero+2,c
  2666  00124E  6A12               	clrf	Conv_Entero@numero+3,c
  2667  001250  0100               	movlb	0	; () banked
  2668  001252  0E00               	movlw	high _cadena
  2669  001254  6E14               	movwf	Conv_Entero@conv+1,c
  2670  001256  0100               	movlb	0	; () banked
  2671  001258  0ED9               	movlw	low _cadena
  2672  00125A  6E13               	movwf	Conv_Entero@conv,c
  2673  00125C  ECFA  F00A         	call	_Conv_Entero	;wreg free
  2674  001260  500F               	movf	?_Conv_Entero,w,c
  2675  001262  6E4F               	movwf	_cantidad,c
  2676                           
  2677                           ;Main.c: 291: Lcd_Out(2,8,cadena);
  2678  001264  0E08               	movlw	8
  2679  001266  6E04               	movwf	Lcd_Out@x,c
  2680  001268  0100               	movlb	0	; () banked
  2681  00126A  0E00               	movlw	high _cadena
  2682  00126C  6E06               	movwf	Lcd_Out@buffer+1,c
  2683  00126E  0100               	movlb	0	; () banked
  2684  001270  0ED9               	movlw	low _cadena
  2685  001272  6E05               	movwf	Lcd_Out@buffer,c
  2686  001274  0E02               	movlw	2
  2687  001276  EC58  F011         	call	_Lcd_Out
  2688                           
  2689                           ;Main.c: 292: PWM_generar(t,s);
  2690  00127A  C0D5  F00E         	movff	_t,PWM_generar@duty
  2691  00127E  C0D6  F00F         	movff	_t+1,PWM_generar@duty+1
  2692  001282  C0D3  F010         	movff	_s,PWM_generar@fpwm
  2693  001286  C0D4  F011         	movff	_s+1,PWM_generar@fpwm+1
  2694  00128A  ECE3  F009         	call	_PWM_generar	;wreg free
  2695                           
  2696                           ;Main.c: 294: key=Recuperar();
  2697  00128E  EC79  F012         	call	_Recuperar	;wreg free
  2698  001292  0100               	movlb	0	; () banked
  2699  001294  6FCE               	movwf	main@key& (0+255),b
  2700                           
  2701                           ; BSR set to: 0
  2702                           ;Main.c: 295: r=1;
  2703  001296  0E00               	movlw	0
  2704  001298  0100               	movlb	0	; () banked
  2705  00129A  6FD2               	movwf	(_r+1)& (0+255),b
  2706  00129C  0E01               	movlw	1
  2707  00129E  0100               	movlb	0	; () banked
  2708  0012A0  6FD1               	movwf	_r& (0+255),b
  2709  0012A2                     l3313:
  2710                           
  2711                           ; BSR set to: 0
  2712                           ;Main.c: 298: key=Recuperar();
  2713  0012A2  EC79  F012         	call	_Recuperar	;wreg free
  2714  0012A6  0100               	movlb	0	; () banked
  2715  0012A8  6FCE               	movwf	main@key& (0+255),b
  2716                           
  2717                           ; BSR set to: 0
  2718                           ;Main.c: 301: if(key=='*'){
  2719  0012AA  0100               	movlb	0	; () banked
  2720  0012AC  51CE               	movf	main@key& (0+255),w,b
  2721  0012AE  0A2A               	xorlw	42
  2722  0012B0  A4D8               	btfss	status,2,c
  2723  0012B2  D006               	goto	l3319
  2724                           
  2725                           ; BSR set to: 0
  2726                           ;Main.c: 303: r=0;
  2727  0012B4  0E00               	movlw	0
  2728  0012B6  0100               	movlb	0	; () banked
  2729  0012B8  6FD2               	movwf	(_r+1)& (0+255),b
  2730  0012BA  0E00               	movlw	0
  2731  0012BC  0100               	movlb	0	; () banked
  2732  0012BE  6FD1               	movwf	_r& (0+255),b
  2733  0012C0                     l3319:
  2734                           
  2735                           ; BSR set to: 0
  2736                           ;Main.c: 304: }
  2737                           ;Main.c: 306: }while(r==1);
  2738  0012C0  0100               	movlb	0	; () banked
  2739  0012C2  05D1               	decf	_r& (0+255),w,b
  2740  0012C4  11D2               	iorwf	(_r+1)& (0+255),w,b
  2741  0012C6  B4D8               	btfsc	status,2,c
  2742  0012C8  D7EC               	goto	l3313
  2743  0012CA                     l3321:
  2744                           
  2745                           ; BSR set to: 0
  2746                           ;Main.c: 307: }
  2747                           ;Main.c: 310: if(key=='D')
  2748  0012CA  0100               	movlb	0	; () banked
  2749  0012CC  51CE               	movf	main@key& (0+255),w,b
  2750  0012CE  0A44               	xorlw	68
  2751  0012D0  A4D8               	btfss	status,2,c
  2752  0012D2  D009               	goto	l3327
  2753                           
  2754                           ; BSR set to: 0
  2755                           ;Main.c: 311: {
  2756                           ;Main.c: 313: Lcd_Cmd(1);
  2757  0012D4  0E01               	movlw	1
  2758  0012D6  ECA3  F00D         	call	_Lcd_Cmd
  2759                           
  2760                           ;Main.c: 314: w=0;
  2761  0012DA  0E00               	movlw	0
  2762  0012DC  0100               	movlb	0	; () banked
  2763  0012DE  6FD8               	movwf	(_w+1)& (0+255),b
  2764  0012E0  0E00               	movlw	0
  2765  0012E2  0100               	movlb	0	; () banked
  2766  0012E4  6FD7               	movwf	_w& (0+255),b
  2767  0012E6                     l3327:
  2768                           
  2769                           ; BSR set to: 0
  2770                           ;Main.c: 315: }
  2771                           ;Main.c: 316: }while(w==1);
  2772  0012E6  0100               	movlb	0	; () banked
  2773  0012E8  05D7               	decf	_w& (0+255),w,b
  2774  0012EA  11D8               	iorwf	(_w+1)& (0+255),w,b
  2775  0012EC  B4D8               	btfsc	status,2,c
  2776  0012EE  D673               	goto	l3213
  2777  0012F0                     l3329:
  2778                           
  2779                           ; BSR set to: 0
  2780                           ;Main.c: 318: };
  2781                           ;Main.c: 320: if(key=='#'){
  2782  0012F0  0100               	movlb	0	; () banked
  2783  0012F2  51CE               	movf	main@key& (0+255),w,b
  2784  0012F4  0A23               	xorlw	35
  2785  0012F6  A4D8               	btfss	status,2,c
  2786  0012F8  D009               	goto	l3335
  2787                           
  2788                           ; BSR set to: 0
  2789                           ;Main.c: 321: Lcd_Cmd(1);
  2790  0012FA  0E01               	movlw	1
  2791  0012FC  ECA3  F00D         	call	_Lcd_Cmd
  2792                           
  2793                           ;Main.c: 322: q=0;
  2794  001300  0E00               	movlw	0
  2795  001302  0100               	movlb	0	; () banked
  2796  001304  6FD0               	movwf	(_q+1)& (0+255),b
  2797  001306  0E00               	movlw	0
  2798  001308  0100               	movlb	0	; () banked
  2799  00130A  6FCF               	movwf	_q& (0+255),b
  2800  00130C                     l3335:
  2801                           
  2802                           ; BSR set to: 0
  2803                           ;Main.c: 323: }
  2804                           ;Main.c: 324: }while(q==1);
  2805  00130C  0100               	movlb	0	; () banked
  2806  00130E  05CF               	decf	_q& (0+255),w,b
  2807  001310  11D0               	iorwf	(_q+1)& (0+255),w,b
  2808  001312  B4D8               	btfsc	status,2,c
  2809  001314  EF0D  F005         	goto	l2949
  2810  001318                     l3337:
  2811                           
  2812                           ; BSR set to: 0
  2813                           ;Main.c: 325: }
  2814                           ;Main.c: 327: if(key=='0'){
  2815  001318  0100               	movlb	0	; () banked
  2816  00131A  51CE               	movf	main@key& (0+255),w,b
  2817  00131C  0A30               	xorlw	48
  2818  00131E  A4D8               	btfss	status,2,c
  2819  001320  EF79  F004         	goto	l2895
  2820                           
  2821                           ; BSR set to: 0
  2822                           ;Main.c: 328: q=1;
  2823  001324  0E00               	movlw	0
  2824  001326  0100               	movlb	0	; () banked
  2825  001328  6FD0               	movwf	(_q+1)& (0+255),b
  2826  00132A  0E01               	movlw	1
  2827  00132C  0100               	movlb	0	; () banked
  2828  00132E  6FCF               	movwf	_q& (0+255),b
  2829                           
  2830                           ; BSR set to: 0
  2831                           ;Main.c: 329: Lcd_Init();
  2832  001330  EC7C  F00C         	call	_Lcd_Init	;wreg free
  2833                           
  2834                           ;Main.c: 330: Lcd_Cmd(1);
  2835  001334  0E01               	movlw	1
  2836  001336  ECA3  F00D         	call	_Lcd_Cmd
  2837                           
  2838                           ;Main.c: 331: Lcd_Cmd(12);
  2839  00133A  0E0C               	movlw	12
  2840  00133C  ECA3  F00D         	call	_Lcd_Cmd
  2841                           
  2842                           ;Main.c: 332: Lcd_Out2(1,1,"Adios");
  2843  001340  0E01               	movlw	1
  2844  001342  6E04               	movwf	Lcd_Out2@x,c
  2845  001344  0E08               	movlw	high STR_39
  2846  001346  6E06               	movwf	Lcd_Out2@buffer+1,c
  2847  001348  0ED8               	movlw	low STR_39
  2848  00134A  6E05               	movwf	Lcd_Out2@buffer,c
  2849  00134C  0E01               	movlw	1
  2850  00134E  ECCF  F010         	call	_Lcd_Out2
  2851                           
  2852                           ;Main.c: 334: _delay((unsigned long)((100)*(4000000/4000.0)));
  2853  001352  0E82               	movlw	130
  2854  001354  6E38               	movwf	??_main& (0+255),c
  2855  001356  0EDE               	movlw	222
  2856  001358                     u3157:
  2857  001358  2EE8               	decfsz	wreg,f,c
  2858  00135A  D7FE               	goto	u3157
  2859  00135C  2E38               	decfsz	??_main& (0+255),f,c
  2860  00135E  D7FC               	goto	u3157
  2861                           
  2862                           ;Main.c: 335: _delay((unsigned long)((100)*(4000000/4000.0)));
  2863  001360  0E82               	movlw	130
  2864  001362  6E38               	movwf	??_main& (0+255),c
  2865  001364  0EDE               	movlw	222
  2866  001366                     u3167:
  2867  001366  2EE8               	decfsz	wreg,f,c
  2868  001368  D7FE               	goto	u3167
  2869  00136A  2E38               	decfsz	??_main& (0+255),f,c
  2870  00136C  D7FC               	goto	u3167
  2871                           
  2872                           ;Main.c: 336: _delay((unsigned long)((100)*(4000000/4000.0)));
  2873  00136E  0E82               	movlw	130
  2874  001370  6E38               	movwf	??_main& (0+255),c
  2875  001372  0EDE               	movlw	222
  2876  001374                     u3177:
  2877  001374  2EE8               	decfsz	wreg,f,c
  2878  001376  D7FE               	goto	u3177
  2879  001378  2E38               	decfsz	??_main& (0+255),f,c
  2880  00137A  D7FC               	goto	u3177
  2881                           
  2882                           ;Main.c: 337: key = Recuperar();
  2883  00137C  EC79  F012         	call	_Recuperar	;wreg free
  2884  001380  0100               	movlb	0	; () banked
  2885  001382  6FCE               	movwf	main@key& (0+255),b
  2886  001384                     l3357:
  2887                           
  2888                           ; BSR set to: 0
  2889                           ;Main.c: 339: Lcd_Init();
  2890  001384  EC7C  F00C         	call	_Lcd_Init	;wreg free
  2891                           
  2892                           ;Main.c: 340: Lcd_Cmd(1);
  2893  001388  0E01               	movlw	1
  2894  00138A  ECA3  F00D         	call	_Lcd_Cmd
  2895                           
  2896                           ;Main.c: 341: Lcd_Cmd(12);
  2897  00138E  0E0C               	movlw	12
  2898  001390  ECA3  F00D         	call	_Lcd_Cmd
  2899                           
  2900                           ;Main.c: 342: Lcd_Cmd(0);
  2901  001394  0E00               	movlw	0
  2902  001396  ECA3  F00D         	call	_Lcd_Cmd
  2903                           
  2904                           ;Main.c: 343: key = Recuperar();
  2905  00139A  EC79  F012         	call	_Recuperar	;wreg free
  2906  00139E  0100               	movlb	0	; () banked
  2907  0013A0  6FCE               	movwf	main@key& (0+255),b
  2908                           
  2909                           ; BSR set to: 0
  2910                           ;Main.c: 345: if(key=='*'){
  2911  0013A2  0100               	movlb	0	; () banked
  2912  0013A4  51CE               	movf	main@key& (0+255),w,b
  2913  0013A6  0A2A               	xorlw	42
  2914  0013A8  A4D8               	btfss	status,2,c
  2915  0013AA  D006               	goto	l3371
  2916                           
  2917                           ; BSR set to: 0
  2918                           ;Main.c: 346: q=0;
  2919  0013AC  0E00               	movlw	0
  2920  0013AE  0100               	movlb	0	; () banked
  2921  0013B0  6FD0               	movwf	(_q+1)& (0+255),b
  2922  0013B2  0E00               	movlw	0
  2923  0013B4  0100               	movlb	0	; () banked
  2924  0013B6  6FCF               	movwf	_q& (0+255),b
  2925  0013B8                     l3371:
  2926                           
  2927                           ; BSR set to: 0
  2928                           ;Main.c: 347: }
  2929                           ;Main.c: 348: }while(q==1);
  2930  0013B8  0100               	movlb	0	; () banked
  2931  0013BA  05CF               	decf	_q& (0+255),w,b
  2932  0013BC  11D0               	iorwf	(_q+1)& (0+255),w,b
  2933  0013BE  A4D8               	btfss	status,2,c
  2934  0013C0  EF79  F004         	goto	l2895
  2935  0013C4  D7DF               	goto	l3357
  2936  0013C6                     __end_of_main:
  2937                           	opt stack 0
  2938                           tblptru	equ	0xFF8
  2939                           tblptrh	equ	0xFF7
  2940                           tblptrl	equ	0xFF6
  2941                           tablat	equ	0xFF5
  2942                           postinc0	equ	0xFEE
  2943                           wreg	equ	0xFE8
  2944                           postinc1	equ	0xFE6
  2945                           postdec1	equ	0xFE5
  2946                           fsr1l	equ	0xFE1
  2947                           postinc2	equ	0xFDE
  2948                           postdec2	equ	0xFDD
  2949                           fsr2h	equ	0xFDA
  2950                           fsr2l	equ	0xFD9
  2951                           status	equ	0xFD8
  2952                           
  2953 ;; *************** function _int_teclado *****************
  2954 ;; Defined at:
  2955 ;;		line 13 in file "teclado.c"
  2956 ;; Parameters:    Size  Location     Type
  2957 ;;		None
  2958 ;; Auto vars:     Size  Location     Type
  2959 ;;		None
  2960 ;; Return value:  Size  Location     Type
  2961 ;;		None               void
  2962 ;; Registers used:
  2963 ;;		wreg, status,2
  2964 ;; Tracked objects:
  2965 ;;		On entry : 0/0
  2966 ;;		On exit  : 0/0
  2967 ;;		Unchanged: 0/0
  2968 ;; Data sizes:     COMRAM   BANK0   BANK1   BANK2   BANK3   BANK4   BANK5   BANK6   BANK7
  2969 ;;      Params:         0       0       0       0       0       0       0       0       0
  2970 ;;      Locals:         0       0       0       0       0       0       0       0       0
  2971 ;;      Temps:          0       0       0       0       0       0       0       0       0
  2972 ;;      Totals:         0       0       0       0       0       0       0       0       0
  2973 ;;Total ram usage:        0 bytes
  2974 ;; Hardware stack levels used:    1
  2975 ;; This function calls:
  2976 ;;		Nothing
  2977 ;; This function is called by:
  2978 ;;		_main
  2979 ;; This function uses a non-reentrant model
  2980 ;;
  2981                           
  2982                           	psect	text1
  2983  002500                     __ptext1:
  2984                           	opt stack 0
  2985  002500                     _int_teclado:
  2986                           	opt stack 30
  2987                           
  2988                           ;teclado.c: 15: INTCON2bits.RBPU=0;
  2989                           
  2990                           ; BSR set to: 0
  2991                           ;incstack = 0
  2992  002500  9EF1               	bcf	intcon2,7,c	;volatile
  2993                           
  2994                           ;teclado.c: 16: ANSELB=0;
  2995  002502  0E00               	movlw	0
  2996  002504  010F               	movlb	15	; () banked
  2997  002506  6F5C               	movwf	92,b	;volatile
  2998                           
  2999                           ; BSR set to: 15
  3000  002508  0012               	return	
  3001  00250A                     __end_of_int_teclado:
  3002                           	opt stack 0
  3003                           tblptru	equ	0xFF8
  3004                           tblptrh	equ	0xFF7
  3005                           tblptrl	equ	0xFF6
  3006                           tablat	equ	0xFF5
  3007                           intcon2	equ	0xFF1
  3008                           postinc0	equ	0xFEE
  3009                           wreg	equ	0xFE8
  3010                           postinc1	equ	0xFE6
  3011                           postdec1	equ	0xFE5
  3012                           fsr1l	equ	0xFE1
  3013                           postinc2	equ	0xFDE
  3014                           postdec2	equ	0xFDD
  3015                           fsr2h	equ	0xFDA
  3016                           fsr2l	equ	0xFD9
  3017                           status	equ	0xFD8
  3018                           
  3019 ;; *************** function _atoi *****************
  3020 ;; Defined at:
  3021 ;;		line 5 in file "/opt/microchip/xc8/v1.32/sources/common/atoi.c"
  3022 ;; Parameters:    Size  Location     Type
  3023 ;;  s               2    6[COMRAM] PTR const unsigned char 
  3024 ;;		 -> ciclo(10), frecuencia(10), 
  3025 ;; Auto vars:     Size  Location     Type
  3026 ;;  a               2   11[COMRAM] int 
  3027 ;;  sign            1   10[COMRAM] unsigned char 
  3028 ;; Return value:  Size  Location     Type
  3029 ;;                  2    6[COMRAM] int 
  3030 ;; Registers used:
  3031 ;;		wreg, fsr2l, fsr2h, status,2, status,0, prodl, prodh, cstack
  3032 ;; Tracked objects:
  3033 ;;		On entry : 0/0
  3034 ;;		On exit  : 0/0
  3035 ;;		Unchanged: 0/0
  3036 ;; Data sizes:     COMRAM   BANK0   BANK1   BANK2   BANK3   BANK4   BANK5   BANK6   BANK7
  3037 ;;      Params:         2       0       0       0       0       0       0       0       0
  3038 ;;      Locals:         3       0       0       0       0       0       0       0       0
  3039 ;;      Temps:          2       0       0       0       0       0       0       0       0
  3040 ;;      Totals:         7       0       0       0       0       0       0       0       0
  3041 ;;Total ram usage:        7 bytes
  3042 ;; Hardware stack levels used:    1
  3043 ;; Hardware stack levels required when called:    1
  3044 ;; This function calls:
  3045 ;;		___wmul
  3046 ;;		_isdigit
  3047 ;; This function is called by:
  3048 ;;		_main
  3049 ;;		_Prueba1
  3050 ;; This function uses a non-reentrant model
  3051 ;;
  3052                           
  3053                           	psect	text2
  3054  00203A                     __ptext2:
  3055                           	opt stack 0
  3056  00203A                     _atoi:
  3057                           	opt stack 29
  3058                           
  3059                           ; BSR set to: 15
  3060                           ;incstack = 0
  3061  00203A  D002               	goto	l2707
  3062  00203C                     l2705:
  3063  00203C  4A07               	infsnz	atoi@s,f,c
  3064  00203E  2A08               	incf	atoi@s+1,f,c
  3065  002040                     l2707:
  3066  002040  C007  FFD9         	movff	atoi@s,fsr2l
  3067  002044  C008  FFDA         	movff	atoi@s+1,fsr2h
  3068  002048  50DF               	movf	indf2,w,c
  3069  00204A  0A20               	xorlw	32
  3070  00204C  B4D8               	btfsc	status,2,c
  3071  00204E  D7F6               	goto	l2705
  3072  002050  C007  FFD9         	movff	atoi@s,fsr2l
  3073  002054  C008  FFDA         	movff	atoi@s+1,fsr2h
  3074  002058  50DF               	movf	indf2,w,c
  3075  00205A  0A09               	xorlw	9
  3076  00205C  B4D8               	btfsc	status,2,c
  3077  00205E  D7EE               	goto	l2705
  3078  002060  0E00               	movlw	0
  3079  002062  6E0D               	movwf	atoi@a+1,c
  3080  002064  0E00               	movlw	0
  3081  002066  6E0C               	movwf	atoi@a,c
  3082  002068  0E00               	movlw	0
  3083  00206A  6E0B               	movwf	atoi@sign,c
  3084  00206C  0E2D               	movlw	45
  3085  00206E  C007  FFD9         	movff	atoi@s,fsr2l
  3086  002072  C008  FFDA         	movff	atoi@s+1,fsr2h
  3087  002076  62DF               	cpfseq	indf2,c
  3088  002078  D002               	goto	l2717
  3089  00207A  2A0B               	incf	atoi@sign,f,c
  3090  00207C  D023               	goto	L3
  3091  00207E                     l2717:
  3092  00207E  0E2B               	movlw	43
  3093  002080  C007  FFD9         	movff	atoi@s,fsr2l
  3094  002084  C008  FFDA         	movff	atoi@s+1,fsr2h
  3095  002088  62DF               	cpfseq	indf2,c
  3096  00208A  D01E               	goto	l2725
  3097  00208C  D01B               	goto	L3
  3098  00208E                     l2721:
  3099  00208E  C00C  F001         	movff	atoi@a,___wmul@multiplier
  3100  002092  C00D  F002         	movff	atoi@a+1,___wmul@multiplier+1
  3101  002096  0E00               	movlw	0
  3102  002098  6E04               	movwf	___wmul@multiplicand+1,c
  3103  00209A  0E0A               	movlw	10
  3104  00209C  6E03               	movwf	___wmul@multiplicand,c
  3105  00209E  EC56  F012         	call	___wmul	;wreg free
  3106  0020A2  C007  FFD9         	movff	atoi@s,fsr2l
  3107  0020A6  C008  FFDA         	movff	atoi@s+1,fsr2h
  3108  0020AA  50DF               	movf	indf2,w,c
  3109  0020AC  6E09               	movwf	??_atoi& (0+255),c
  3110  0020AE  6A0A               	clrf	(??_atoi+1)& (0+255),c
  3111  0020B0  5001               	movf	?___wmul,w,c
  3112  0020B2  2609               	addwf	??_atoi,f,c
  3113  0020B4  5002               	movf	?___wmul+1,w,c
  3114  0020B6  220A               	addwfc	??_atoi+1,f,c
  3115  0020B8  0ED0               	movlw	208
  3116  0020BA  2409               	addwf	??_atoi,w,c
  3117  0020BC  6E0C               	movwf	atoi@a,c
  3118  0020BE  0EFF               	movlw	255
  3119  0020C0  200A               	addwfc	??_atoi+1,w,c
  3120  0020C2  6E0D               	movwf	atoi@a+1,c
  3121  0020C4                     L3:
  3122  0020C4  4A07               	infsnz	atoi@s,f,c
  3123  0020C6  2A08               	incf	atoi@s+1,f,c
  3124  0020C8                     l2725:
  3125  0020C8  C007  FFD9         	movff	atoi@s,fsr2l
  3126  0020CC  C008  FFDA         	movff	atoi@s+1,fsr2h
  3127  0020D0  50DF               	movf	indf2,w,c
  3128  0020D2  EC69  F012         	call	_isdigit
  3129  0020D6  B0D8               	btfsc	status,0,c
  3130  0020D8  D7DA               	goto	l2721
  3131  0020DA  500B               	movf	atoi@sign,w,c
  3132  0020DC  B4D8               	btfsc	status,2,c
  3133  0020DE  D00D               	goto	l538
  3134  0020E0  C00C  F009         	movff	atoi@a,??_atoi
  3135  0020E4  C00D  F00A         	movff	atoi@a+1,??_atoi+1
  3136  0020E8  1E09               	comf	??_atoi,f,c
  3137  0020EA  1E0A               	comf	??_atoi+1,f,c
  3138  0020EC  4A09               	infsnz	??_atoi,f,c
  3139  0020EE  2A0A               	incf	??_atoi+1,f,c
  3140  0020F0  C009  F007         	movff	??_atoi,?_atoi
  3141  0020F4  C00A  F008         	movff	??_atoi+1,?_atoi+1
  3142  0020F8  0012               	return	
  3143  0020FA                     l538:
  3144  0020FA  C00C  F007         	movff	atoi@a,?_atoi
  3145  0020FE  C00D  F008         	movff	atoi@a+1,?_atoi+1
  3146  002102  0012               	return	
  3147  002104                     __end_of_atoi:
  3148                           	opt stack 0
  3149                           tblptru	equ	0xFF8
  3150                           tblptrh	equ	0xFF7
  3151                           tblptrl	equ	0xFF6
  3152                           tablat	equ	0xFF5
  3153                           intcon2	equ	0xFF1
  3154                           postinc0	equ	0xFEE
  3155                           wreg	equ	0xFE8
  3156                           postinc1	equ	0xFE6
  3157                           postdec1	equ	0xFE5
  3158                           fsr1l	equ	0xFE1
  3159                           indf2	equ	0xFDF
  3160                           postinc2	equ	0xFDE
  3161                           postdec2	equ	0xFDD
  3162                           fsr2h	equ	0xFDA
  3163                           fsr2l	equ	0xFD9
  3164                           status	equ	0xFD8
  3165                           
  3166 ;; *************** function _isdigit *****************
  3167 ;; Defined at:
  3168 ;;		line 8 in file "/opt/microchip/xc8/v1.32/sources/common/isdigit.c"
  3169 ;; Parameters:    Size  Location     Type
  3170 ;;  c               1    wreg     unsigned char 
  3171 ;; Auto vars:     Size  Location     Type
  3172 ;;  c               1    2[COMRAM] unsigned char 
  3173 ;; Return value:  Size  Location     Type
  3174 ;;		None               void
  3175 ;; Registers used:
  3176 ;;		wreg, status,2, status,0
  3177 ;; Tracked objects:
  3178 ;;		On entry : 0/0
  3179 ;;		On exit  : 0/0
  3180 ;;		Unchanged: 0/0
  3181 ;; Data sizes:     COMRAM   BANK0   BANK1   BANK2   BANK3   BANK4   BANK5   BANK6   BANK7
  3182 ;;      Params:         0       0       0       0       0       0       0       0       0
  3183 ;;      Locals:         2       0       0       0       0       0       0       0       0
  3184 ;;      Temps:          1       0       0       0       0       0       0       0       0
  3185 ;;      Totals:         3       0       0       0       0       0       0       0       0
  3186 ;;Total ram usage:        3 bytes
  3187 ;; Hardware stack levels used:    1
  3188 ;; This function calls:
  3189 ;;		Nothing
  3190 ;; This function is called by:
  3191 ;;		_atoi
  3192 ;; This function uses a non-reentrant model
  3193 ;;
  3194                           
  3195                           	psect	text3
  3196  0024D2                     __ptext3:
  3197                           	opt stack 0
  3198  0024D2                     _isdigit:
  3199                           	opt stack 29
  3200                           
  3201                           ;incstack = 0
  3202                           ;isdigit@c stored from wreg
  3203  0024D2  6E03               	movwf	isdigit@c,c
  3204  0024D4  0E00               	movlw	0
  3205  0024D6  6E02               	movwf	_isdigit$968,c
  3206  0024D8  0E3A               	movlw	58
  3207  0024DA  5C03               	subwf	isdigit@c,w,c
  3208  0024DC  B0D8               	btfsc	status,0,c
  3209  0024DE  D005               	goto	l2627
  3210  0024E0  0E2F               	movlw	47
  3211  0024E2  6403               	cpfsgt	isdigit@c,c
  3212  0024E4  D002               	goto	l2627
  3213  0024E6  0E01               	movlw	1
  3214  0024E8  6E02               	movwf	_isdigit$968,c
  3215  0024EA                     l2627:
  3216  0024EA  C002  F001         	movff	_isdigit$968,??_isdigit
  3217  0024EE  3001               	rrcf	??_isdigit,w,c
  3218  0024F0  0012               	return	
  3219  0024F2                     __end_of_isdigit:
  3220                           	opt stack 0
  3221                           tblptru	equ	0xFF8
  3222                           tblptrh	equ	0xFF7
  3223                           tblptrl	equ	0xFF6
  3224                           tablat	equ	0xFF5
  3225                           intcon2	equ	0xFF1
  3226                           postinc0	equ	0xFEE
  3227                           wreg	equ	0xFE8
  3228                           postinc1	equ	0xFE6
  3229                           postdec1	equ	0xFE5
  3230                           fsr1l	equ	0xFE1
  3231                           indf2	equ	0xFDF
  3232                           postinc2	equ	0xFDE
  3233                           postdec2	equ	0xFDD
  3234                           fsr2h	equ	0xFDA
  3235                           fsr2l	equ	0xFD9
  3236                           status	equ	0xFD8
  3237                           
  3238 ;; *************** function ___wmul *****************
  3239 ;; Defined at:
  3240 ;;		line 15 in file "/opt/microchip/xc8/v1.32/sources/common/Umul16.c"
  3241 ;; Parameters:    Size  Location     Type
  3242 ;;  multiplier      2    0[COMRAM] unsigned int 
  3243 ;;  multiplicand    2    2[COMRAM] unsigned int 
  3244 ;; Auto vars:     Size  Location     Type
  3245 ;;  product         2    4[COMRAM] unsigned int 
  3246 ;; Return value:  Size  Location     Type
  3247 ;;                  2    0[COMRAM] unsigned int 
  3248 ;; Registers used:
  3249 ;;		wreg, status,2, status,0, prodl, prodh
  3250 ;; Tracked objects:
  3251 ;;		On entry : 0/0
  3252 ;;		On exit  : 0/0
  3253 ;;		Unchanged: 0/0
  3254 ;; Data sizes:     COMRAM   BANK0   BANK1   BANK2   BANK3   BANK4   BANK5   BANK6   BANK7
  3255 ;;      Params:         4       0       0       0       0       0       0       0       0
  3256 ;;      Locals:         2       0       0       0       0       0       0       0       0
  3257 ;;      Temps:          0       0       0       0       0       0       0       0       0
  3258 ;;      Totals:         6       0       0       0       0       0       0       0       0
  3259 ;;Total ram usage:        6 bytes
  3260 ;; Hardware stack levels used:    1
  3261 ;; This function calls:
  3262 ;;		Nothing
  3263 ;; This function is called by:
  3264 ;;		_atoi
  3265 ;; This function uses a non-reentrant model
  3266 ;;
  3267                           
  3268                           	psect	text4
  3269  0024AC                     __ptext4:
  3270                           	opt stack 0
  3271  0024AC                     ___wmul:
  3272                           	opt stack 29
  3273                           
  3274                           ;incstack = 0
  3275  0024AC  5001               	movf	___wmul@multiplier,w,c
  3276  0024AE  0203               	mulwf	___wmul@multiplicand,c
  3277  0024B0  CFF3 F005          	movff	prodl,___wmul@product
  3278  0024B4  CFF4 F006          	movff	prodh,___wmul@product+1
  3279  0024B8  5001               	movf	___wmul@multiplier,w,c
  3280  0024BA  0204               	mulwf	___wmul@multiplicand+1,c
  3281  0024BC  50F3               	movf	prodl,w,c
  3282  0024BE  2606               	addwf	___wmul@product+1,f,c
  3283  0024C0  5002               	movf	___wmul@multiplier+1,w,c
  3284  0024C2  0203               	mulwf	___wmul@multiplicand,c
  3285  0024C4  50F3               	movf	prodl,w,c
  3286  0024C6  2606               	addwf	___wmul@product+1,f,c
  3287  0024C8  C005  F001         	movff	___wmul@product,?___wmul
  3288  0024CC  C006  F002         	movff	___wmul@product+1,?___wmul+1
  3289  0024D0  0012               	return	
  3290  0024D2                     __end_of___wmul:
  3291                           	opt stack 0
  3292                           tblptru	equ	0xFF8
  3293                           tblptrh	equ	0xFF7
  3294                           tblptrl	equ	0xFF6
  3295                           tablat	equ	0xFF5
  3296                           prodh	equ	0xFF4
  3297                           prodl	equ	0xFF3
  3298                           intcon2	equ	0xFF1
  3299                           postinc0	equ	0xFEE
  3300                           wreg	equ	0xFE8
  3301                           postinc1	equ	0xFE6
  3302                           postdec1	equ	0xFE5
  3303                           fsr1l	equ	0xFE1
  3304                           indf2	equ	0xFDF
  3305                           postinc2	equ	0xFDE
  3306                           postdec2	equ	0xFDD
  3307                           fsr2h	equ	0xFDA
  3308                           fsr2l	equ	0xFD9
  3309                           status	equ	0xFD8
  3310                           
  3311 ;; *************** function _PWM_generar *****************
  3312 ;; Defined at:
  3313 ;;		line 10 in file "PWM.c"
  3314 ;; Parameters:    Size  Location     Type
  3315 ;;  duty            2   13[COMRAM] unsigned int 
  3316 ;;  fpwm            2   15[COMRAM] unsigned int 
  3317 ;; Auto vars:     Size  Location     Type
  3318 ;;  AuxCCPR2L       4   29[COMRAM] unsigned long 
  3319 ;;  PR2cal          4   25[COMRAM] unsigned long 
  3320 ;;  AuxCCP2CON      2   23[COMRAM] unsigned int 
  3321 ;;  prescalador     2   21[COMRAM] unsigned int 
  3322 ;; Return value:  Size  Location     Type
  3323 ;;		None               void
  3324 ;; Registers used:
  3325 ;;		wreg, status,2, status,0, cstack
  3326 ;; Tracked objects:
  3327 ;;		On entry : 0/0
  3328 ;;		On exit  : 0/0
  3329 ;;		Unchanged: 0/0
  3330 ;; Data sizes:     COMRAM   BANK0   BANK1   BANK2   BANK3   BANK4   BANK5   BANK6   BANK7
  3331 ;;      Params:         4       0       0       0       0       0       0       0       0
  3332 ;;      Locals:        12       0       0       0       0       0       0       0       0
  3333 ;;      Temps:          4       0       0       0       0       0       0       0       0
  3334 ;;      Totals:        20       0       0       0       0       0       0       0       0
  3335 ;;Total ram usage:       20 bytes
  3336 ;; Hardware stack levels used:    1
  3337 ;; Hardware stack levels required when called:    1
  3338 ;; This function calls:
  3339 ;;		___lldiv
  3340 ;;		___lmul
  3341 ;; This function is called by:
  3342 ;;		_main
  3343 ;;		_Prueba2
  3344 ;; This function uses a non-reentrant model
  3345 ;;
  3346                           
  3347                           	psect	text5
  3348  0013C6                     __ptext5:
  3349                           	opt stack 0
  3350  0013C6                     _PWM_generar:
  3351                           	opt stack 29
  3352                           
  3353                           ;PWM.c: 17: TRISCbits.RC1=0;
  3354                           
  3355                           ;incstack = 0
  3356  0013C6  9294               	bcf	3988,1,c	;volatile
  3357                           
  3358                           ;PWM.c: 19: unsigned int prescalador=1;
  3359  0013C8  0E00               	movlw	0
  3360  0013CA  6E17               	movwf	PWM_generar@prescalador+1,c
  3361  0013CC  0E01               	movlw	1
  3362  0013CE  6E16               	movwf	PWM_generar@prescalador,c
  3363                           
  3364                           ;PWM.c: 20: unsigned long PR2cal=4000000;
  3365  0013D0  0E00               	movlw	0
  3366  0013D2  6E1A               	movwf	PWM_generar@PR2cal,c
  3367  0013D4  0E09               	movlw	9
  3368  0013D6  6E1B               	movwf	PWM_generar@PR2cal+1,c
  3369  0013D8  0E3D               	movlw	61
  3370  0013DA  6E1C               	movwf	PWM_generar@PR2cal+2,c
  3371  0013DC  0E00               	movlw	0
  3372  0013DE  6E1D               	movwf	PWM_generar@PR2cal+3,c
  3373                           
  3374                           ;PWM.c: 21: PR2cal=PR2cal/fpwm;
  3375  0013E0  C01A  F001         	movff	PWM_generar@PR2cal,___lldiv@dividend
  3376  0013E4  C01B  F002         	movff	PWM_generar@PR2cal+1,___lldiv@dividend+1
  3377  0013E8  C01C  F003         	movff	PWM_generar@PR2cal+2,___lldiv@dividend+2
  3378  0013EC  C01D  F004         	movff	PWM_generar@PR2cal+3,___lldiv@dividend+3
  3379  0013F0  C010  F005         	movff	PWM_generar@fpwm,___lldiv@divisor
  3380  0013F4  C011  F006         	movff	PWM_generar@fpwm+1,___lldiv@divisor+1
  3381  0013F8  6A07               	clrf	___lldiv@divisor+2,c
  3382  0013FA  6A08               	clrf	___lldiv@divisor+3,c
  3383  0013FC  EC17  F011         	call	___lldiv	;wreg free
  3384  001400  C001  F01A         	movff	?___lldiv,PWM_generar@PR2cal
  3385  001404  C002  F01B         	movff	?___lldiv+1,PWM_generar@PR2cal+1
  3386  001408  C003  F01C         	movff	?___lldiv+2,PWM_generar@PR2cal+2
  3387  00140C  C004  F01D         	movff	?___lldiv+3,PWM_generar@PR2cal+3
  3388                           
  3389                           ;PWM.c: 22: PR2cal=PR2cal/4;
  3390  001410  C01A  F012         	movff	PWM_generar@PR2cal,??_PWM_generar
  3391  001414  C01B  F013         	movff	PWM_generar@PR2cal+1,??_PWM_generar+1
  3392  001418  C01C  F014         	movff	PWM_generar@PR2cal+2,??_PWM_generar+2
  3393  00141C  C01D  F015         	movff	PWM_generar@PR2cal+3,??_PWM_generar+3
  3394  001420  0E03               	movlw	3
  3395  001422  D005               	goto	u2010
  3396  001424                     u2015:
  3397  001424  90D8               	bcf	status,0,c
  3398  001426  3215               	rrcf	??_PWM_generar+3,f,c
  3399  001428  3214               	rrcf	??_PWM_generar+2,f,c
  3400  00142A  3213               	rrcf	??_PWM_generar+1,f,c
  3401  00142C  3212               	rrcf	??_PWM_generar,f,c
  3402  00142E                     u2010:
  3403  00142E  2EE8               	decfsz	wreg,f,c
  3404  001430  D7F9               	goto	u2015
  3405  001432  C012  F01A         	movff	??_PWM_generar,PWM_generar@PR2cal
  3406  001436  C013  F01B         	movff	??_PWM_generar+1,PWM_generar@PR2cal+1
  3407  00143A  C014  F01C         	movff	??_PWM_generar+2,PWM_generar@PR2cal+2
  3408  00143E  C015  F01D         	movff	??_PWM_generar+3,PWM_generar@PR2cal+3
  3409                           
  3410                           ;PWM.c: 23: T2CON=0b00000000;
  3411  001442  0E00               	movlw	0
  3412  001444  6EBA               	movwf	4026,c	;volatile
  3413                           
  3414                           ;PWM.c: 24: while(PR2cal>256){
  3415  001446  D028               	goto	l2785
  3416  001448                     l2781:
  3417                           
  3418                           ;PWM.c: 25: prescalador=prescalador*4;
  3419  001448  C016  F012         	movff	PWM_generar@prescalador,??_PWM_generar
  3420  00144C  C017  F013         	movff	PWM_generar@prescalador+1,??_PWM_generar+1
  3421  001450  90D8               	bcf	status,0,c
  3422  001452  3612               	rlcf	??_PWM_generar,f,c
  3423  001454  3613               	rlcf	??_PWM_generar+1,f,c
  3424  001456  90D8               	bcf	status,0,c
  3425  001458  3612               	rlcf	??_PWM_generar,f,c
  3426  00145A  3613               	rlcf	??_PWM_generar+1,f,c
  3427  00145C  C012  F016         	movff	??_PWM_generar,PWM_generar@prescalador
  3428  001460  C013  F017         	movff	??_PWM_generar+1,PWM_generar@prescalador+1
  3429                           
  3430                           ;PWM.c: 26: T2CON++;
  3431  001464  2ABA               	incf	4026,f,c	;volatile
  3432                           
  3433                           ;PWM.c: 27: PR2cal=PR2cal/4;
  3434  001466  C01A  F012         	movff	PWM_generar@PR2cal,??_PWM_generar
  3435  00146A  C01B  F013         	movff	PWM_generar@PR2cal+1,??_PWM_generar+1
  3436  00146E  C01C  F014         	movff	PWM_generar@PR2cal+2,??_PWM_generar+2
  3437  001472  C01D  F015         	movff	PWM_generar@PR2cal+3,??_PWM_generar+3
  3438  001476  0E03               	movlw	3
  3439  001478  D005               	goto	u2020
  3440  00147A                     u2025:
  3441  00147A  90D8               	bcf	status,0,c
  3442  00147C  3215               	rrcf	??_PWM_generar+3,f,c
  3443  00147E  3214               	rrcf	??_PWM_generar+2,f,c
  3444  001480  3213               	rrcf	??_PWM_generar+1,f,c
  3445  001482  3212               	rrcf	??_PWM_generar,f,c
  3446  001484                     u2020:
  3447  001484  2EE8               	decfsz	wreg,f,c
  3448  001486  D7F9               	goto	u2025
  3449  001488  C012  F01A         	movff	??_PWM_generar,PWM_generar@PR2cal
  3450  00148C  C013  F01B         	movff	??_PWM_generar+1,PWM_generar@PR2cal+1
  3451  001490  C014  F01C         	movff	??_PWM_generar+2,PWM_generar@PR2cal+2
  3452  001494  C015  F01D         	movff	??_PWM_generar+3,PWM_generar@PR2cal+3
  3453  001498                     l2785:
  3454  001498  0E01               	movlw	1
  3455  00149A  6E12               	movwf	??_PWM_generar& (0+255),c
  3456  00149C  0E01               	movlw	1
  3457  00149E  6E13               	movwf	(??_PWM_generar+1)& (0+255),c
  3458  0014A0  0E00               	movlw	0
  3459  0014A2  6E14               	movwf	(??_PWM_generar+2)& (0+255),c
  3460  0014A4  0E00               	movlw	0
  3461  0014A6  6E15               	movwf	(??_PWM_generar+3)& (0+255),c
  3462  0014A8  5012               	movf	??_PWM_generar,w,c
  3463  0014AA  5C1A               	subwf	PWM_generar@PR2cal,w,c
  3464  0014AC  5013               	movf	??_PWM_generar+1,w,c
  3465  0014AE  581B               	subwfb	PWM_generar@PR2cal+1,w,c
  3466  0014B0  5014               	movf	??_PWM_generar+2,w,c
  3467  0014B2  581C               	subwfb	PWM_generar@PR2cal+2,w,c
  3468  0014B4  5015               	movf	??_PWM_generar+3,w,c
  3469  0014B6  581D               	subwfb	PWM_generar@PR2cal+3,w,c
  3470  0014B8  B0D8               	btfsc	status,0,c
  3471  0014BA  D7C6               	goto	l2781
  3472                           
  3473                           ;PWM.c: 28: }
  3474                           ;PWM.c: 29: PR2cal--;
  3475  0014BC  061A               	decf	PWM_generar@PR2cal,f,c
  3476  0014BE  0E00               	movlw	0
  3477  0014C0  5A1B               	subwfb	PWM_generar@PR2cal+1,f,c
  3478  0014C2  5A1C               	subwfb	PWM_generar@PR2cal+2,f,c
  3479  0014C4  5A1D               	subwfb	PWM_generar@PR2cal+3,f,c
  3480                           
  3481                           ;PWM.c: 30: PR2=PR2cal;
  3482  0014C6  C01A  FFBB         	movff	PWM_generar@PR2cal,4027	;volatile
  3483                           
  3484                           ;PWM.c: 37: unsigned long AuxCCPR2L=PR2cal;
  3485  0014CA  C01A  F01E         	movff	PWM_generar@PR2cal,PWM_generar@AuxCCPR2L
  3486  0014CE  C01B  F01F         	movff	PWM_generar@PR2cal+1,PWM_generar@AuxCCPR2L+1
  3487  0014D2  C01C  F020         	movff	PWM_generar@PR2cal+2,PWM_generar@AuxCCPR2L+2
  3488  0014D6  C01D  F021         	movff	PWM_generar@PR2cal+3,PWM_generar@AuxCCPR2L+3
  3489                           
  3490                           ;PWM.c: 38: AuxCCPR2L++;
  3491  0014DA  0E01               	movlw	1
  3492  0014DC  261E               	addwf	PWM_generar@AuxCCPR2L,f,c
  3493  0014DE  0E00               	movlw	0
  3494  0014E0  221F               	addwfc	PWM_generar@AuxCCPR2L+1,f,c
  3495  0014E2  2220               	addwfc	PWM_generar@AuxCCPR2L+2,f,c
  3496  0014E4  2221               	addwfc	PWM_generar@AuxCCPR2L+3,f,c
  3497                           
  3498                           ;PWM.c: 39: AuxCCPR2L=AuxCCPR2L*duty;
  3499  0014E6  C00E  F001         	movff	PWM_generar@duty,___lmul@multiplier
  3500  0014EA  C00F  F002         	movff	PWM_generar@duty+1,___lmul@multiplier+1
  3501  0014EE  6A03               	clrf	___lmul@multiplier+2,c
  3502  0014F0  6A04               	clrf	___lmul@multiplier+3,c
  3503  0014F2  C01E  F005         	movff	PWM_generar@AuxCCPR2L,___lmul@multiplicand
  3504  0014F6  C01F  F006         	movff	PWM_generar@AuxCCPR2L+1,___lmul@multiplicand+1
  3505  0014FA  C020  F007         	movff	PWM_generar@AuxCCPR2L+2,___lmul@multiplicand+2
  3506  0014FE  C021  F008         	movff	PWM_generar@AuxCCPR2L+3,___lmul@multiplicand+3
  3507  001502  ECB6  F011         	call	___lmul	;wreg free
  3508  001506  C001  F01E         	movff	?___lmul,PWM_generar@AuxCCPR2L
  3509  00150A  C002  F01F         	movff	?___lmul+1,PWM_generar@AuxCCPR2L+1
  3510  00150E  C003  F020         	movff	?___lmul+2,PWM_generar@AuxCCPR2L+2
  3511  001512  C004  F021         	movff	?___lmul+3,PWM_generar@AuxCCPR2L+3
  3512                           
  3513                           ;PWM.c: 40: AuxCCPR2L=AuxCCPR2L*4;
  3514  001516  C01E  F012         	movff	PWM_generar@AuxCCPR2L,??_PWM_generar
  3515  00151A  C01F  F013         	movff	PWM_generar@AuxCCPR2L+1,??_PWM_generar+1
  3516  00151E  C020  F014         	movff	PWM_generar@AuxCCPR2L+2,??_PWM_generar+2
  3517  001522  C021  F015         	movff	PWM_generar@AuxCCPR2L+3,??_PWM_generar+3
  3518  001526  0E02               	movlw	2
  3519  001528                     u2045:
  3520  001528  90D8               	bcf	status,0,c
  3521  00152A  3612               	rlcf	??_PWM_generar,f,c
  3522  00152C  3613               	rlcf	??_PWM_generar+1,f,c
  3523  00152E  3614               	rlcf	??_PWM_generar+2,f,c
  3524  001530  3615               	rlcf	??_PWM_generar+3,f,c
  3525  001532  2EE8               	decfsz	wreg,f,c
  3526  001534  D7F9               	goto	u2045
  3527  001536  C012  F01E         	movff	??_PWM_generar,PWM_generar@AuxCCPR2L
  3528  00153A  C013  F01F         	movff	??_PWM_generar+1,PWM_generar@AuxCCPR2L+1
  3529  00153E  C014  F020         	movff	??_PWM_generar+2,PWM_generar@AuxCCPR2L+2
  3530  001542  C015  F021         	movff	??_PWM_generar+3,PWM_generar@AuxCCPR2L+3
  3531                           
  3532                           ;PWM.c: 41: AuxCCPR2L=AuxCCPR2L/100;
  3533  001546  C01E  F001         	movff	PWM_generar@AuxCCPR2L,___lldiv@dividend
  3534  00154A  C01F  F002         	movff	PWM_generar@AuxCCPR2L+1,___lldiv@dividend+1
  3535  00154E  C020  F003         	movff	PWM_generar@AuxCCPR2L+2,___lldiv@dividend+2
  3536  001552  C021  F004         	movff	PWM_generar@AuxCCPR2L+3,___lldiv@dividend+3
  3537  001556  0E64               	movlw	100
  3538  001558  6E05               	movwf	___lldiv@divisor,c
  3539  00155A  0E00               	movlw	0
  3540  00155C  6E06               	movwf	___lldiv@divisor+1,c
  3541  00155E  0E00               	movlw	0
  3542  001560  6E07               	movwf	___lldiv@divisor+2,c
  3543  001562  0E00               	movlw	0
  3544  001564  6E08               	movwf	___lldiv@divisor+3,c
  3545  001566  EC17  F011         	call	___lldiv	;wreg free
  3546  00156A  C001  F01E         	movff	?___lldiv,PWM_generar@AuxCCPR2L
  3547  00156E  C002  F01F         	movff	?___lldiv+1,PWM_generar@AuxCCPR2L+1
  3548  001572  C003  F020         	movff	?___lldiv+2,PWM_generar@AuxCCPR2L+2
  3549  001576  C004  F021         	movff	?___lldiv+3,PWM_generar@AuxCCPR2L+3
  3550                           
  3551                           ;PWM.c: 42: unsigned int AuxCCP2CON= AuxCCPR2L;
  3552  00157A  C01E  F018         	movff	PWM_generar@AuxCCPR2L,PWM_generar@AuxCCP2CON
  3553  00157E  C01F  F019         	movff	PWM_generar@AuxCCPR2L+1,PWM_generar@AuxCCP2CON+1
  3554                           
  3555                           ;PWM.c: 43: AuxCCP2CON= AuxCCP2CON & 0b00000011 ;
  3556  001582  0E03               	movlw	3
  3557  001584  1418               	andwf	PWM_generar@AuxCCP2CON,w,c
  3558  001586  6E18               	movwf	PWM_generar@AuxCCP2CON,c
  3559  001588  6A19               	clrf	PWM_generar@AuxCCP2CON+1,c
  3560                           
  3561                           ;PWM.c: 44: AuxCCP2CON= AuxCCP2CON*16;
  3562  00158A  C018  F012         	movff	PWM_generar@AuxCCP2CON,??_PWM_generar
  3563  00158E  C019  F013         	movff	PWM_generar@AuxCCP2CON+1,??_PWM_generar+1
  3564  001592  3A12               	swapf	??_PWM_generar,f,c
  3565  001594  3A13               	swapf	??_PWM_generar+1,f,c
  3566  001596  0EF0               	movlw	240
  3567  001598  1613               	andwf	??_PWM_generar+1,f,c
  3568  00159A  5012               	movf	??_PWM_generar,w,c
  3569  00159C  0B0F               	andlw	15
  3570  00159E  1213               	iorwf	??_PWM_generar+1,f,c
  3571  0015A0  0EF0               	movlw	240
  3572  0015A2  1612               	andwf	??_PWM_generar,f,c
  3573  0015A4  C012  F018         	movff	??_PWM_generar,PWM_generar@AuxCCP2CON
  3574  0015A8  C013  F019         	movff	??_PWM_generar+1,PWM_generar@AuxCCP2CON+1
  3575                           
  3576                           ;PWM.c: 45: CCP2CON= 0b00001100;
  3577  0015AC  0E0C               	movlw	12
  3578  0015AE  6E97               	movwf	3991,c	;volatile
  3579                           
  3580                           ;PWM.c: 46: CCP2CON= CCP2CON|AuxCCP2CON;
  3581  0015B0  5097               	movf	3991,w,c
  3582  0015B2  1018               	iorwf	PWM_generar@AuxCCP2CON,w,c
  3583  0015B4  6E97               	movwf	3991,c	;volatile
  3584                           
  3585                           ;PWM.c: 47: AuxCCPR2L=AuxCCPR2L/4;
  3586  0015B6  C01E  F012         	movff	PWM_generar@AuxCCPR2L,??_PWM_generar
  3587  0015BA  C01F  F013         	movff	PWM_generar@AuxCCPR2L+1,??_PWM_generar+1
  3588  0015BE  C020  F014         	movff	PWM_generar@AuxCCPR2L+2,??_PWM_generar+2
  3589  0015C2  C021  F015         	movff	PWM_generar@AuxCCPR2L+3,??_PWM_generar+3
  3590  0015C6  0E03               	movlw	3
  3591  0015C8  D005               	goto	u2050
  3592  0015CA                     u2055:
  3593  0015CA  90D8               	bcf	status,0,c
  3594  0015CC  3215               	rrcf	??_PWM_generar+3,f,c
  3595  0015CE  3214               	rrcf	??_PWM_generar+2,f,c
  3596  0015D0  3213               	rrcf	??_PWM_generar+1,f,c
  3597  0015D2  3212               	rrcf	??_PWM_generar,f,c
  3598  0015D4                     u2050:
  3599  0015D4  2EE8               	decfsz	wreg,f,c
  3600  0015D6  D7F9               	goto	u2055
  3601  0015D8  C012  F01E         	movff	??_PWM_generar,PWM_generar@AuxCCPR2L
  3602  0015DC  C013  F01F         	movff	??_PWM_generar+1,PWM_generar@AuxCCPR2L+1
  3603  0015E0  C014  F020         	movff	??_PWM_generar+2,PWM_generar@AuxCCPR2L+2
  3604  0015E4  C015  F021         	movff	??_PWM_generar+3,PWM_generar@AuxCCPR2L+3
  3605                           
  3606                           ;PWM.c: 48: CCPR2L=AuxCCPR2L;
  3607  0015E8  C01E  FF90         	movff	PWM_generar@AuxCCPR2L,3984	;volatile
  3608                           
  3609                           ;PWM.c: 49: T2CONbits.TMR2ON=1;
  3610  0015EC  84BA               	bsf	4026,2,c	;volatile
  3611                           
  3612                           ;PWM.c: 50: TMR2=0;
  3613  0015EE  0E00               	movlw	0
  3614  0015F0  6EBC               	movwf	4028,c	;volatile
  3615  0015F2  0012               	return	
  3616  0015F4                     __end_of_PWM_generar:
  3617                           	opt stack 0
  3618                           tblptru	equ	0xFF8
  3619                           tblptrh	equ	0xFF7
  3620                           tblptrl	equ	0xFF6
  3621                           tablat	equ	0xFF5
  3622                           prodh	equ	0xFF4
  3623                           prodl	equ	0xFF3
  3624                           intcon2	equ	0xFF1
  3625                           postinc0	equ	0xFEE
  3626                           wreg	equ	0xFE8
  3627                           postinc1	equ	0xFE6
  3628                           postdec1	equ	0xFE5
  3629                           fsr1l	equ	0xFE1
  3630                           indf2	equ	0xFDF
  3631                           postinc2	equ	0xFDE
  3632                           postdec2	equ	0xFDD
  3633                           fsr2h	equ	0xFDA
  3634                           fsr2l	equ	0xFD9
  3635                           status	equ	0xFD8
  3636                           
  3637 ;; *************** function ___lldiv *****************
  3638 ;; Defined at:
  3639 ;;		line 8 in file "/opt/microchip/xc8/v1.32/sources/common/lldiv.c"
  3640 ;; Parameters:    Size  Location     Type
  3641 ;;  dividend        4    0[COMRAM] unsigned long 
  3642 ;;  divisor         4    4[COMRAM] unsigned long 
  3643 ;; Auto vars:     Size  Location     Type
  3644 ;;  quotient        4    8[COMRAM] unsigned long 
  3645 ;;  counter         1   12[COMRAM] unsigned char 
  3646 ;; Return value:  Size  Location     Type
  3647 ;;                  4    0[COMRAM] unsigned long 
  3648 ;; Registers used:
  3649 ;;		wreg, status,2, status,0
  3650 ;; Tracked objects:
  3651 ;;		On entry : 0/0
  3652 ;;		On exit  : 0/0
  3653 ;;		Unchanged: 0/0
  3654 ;; Data sizes:     COMRAM   BANK0   BANK1   BANK2   BANK3   BANK4   BANK5   BANK6   BANK7
  3655 ;;      Params:         8       0       0       0       0       0       0       0       0
  3656 ;;      Locals:         5       0       0       0       0       0       0       0       0
  3657 ;;      Temps:          0       0       0       0       0       0       0       0       0
  3658 ;;      Totals:        13       0       0       0       0       0       0       0       0
  3659 ;;Total ram usage:       13 bytes
  3660 ;; Hardware stack levels used:    1
  3661 ;; This function calls:
  3662 ;;		Nothing
  3663 ;; This function is called by:
  3664 ;;		_PWM_generar
  3665 ;; This function uses a non-reentrant model
  3666 ;;
  3667                           
  3668                           	psect	text6
  3669  00222E                     __ptext6:
  3670                           	opt stack 0
  3671  00222E                     ___lldiv:
  3672                           	opt stack 29
  3673                           
  3674                           ;incstack = 0
  3675  00222E  0E00               	movlw	0
  3676  002230  6E09               	movwf	___lldiv@quotient,c
  3677  002232  0E00               	movlw	0
  3678  002234  6E0A               	movwf	___lldiv@quotient+1,c
  3679  002236  0E00               	movlw	0
  3680  002238  6E0B               	movwf	___lldiv@quotient+2,c
  3681  00223A  0E00               	movlw	0
  3682  00223C  6E0C               	movwf	___lldiv@quotient+3,c
  3683  00223E  5008               	movf	___lldiv@divisor+3,w,c
  3684  002240  1005               	iorwf	___lldiv@divisor,w,c
  3685  002242  1006               	iorwf	___lldiv@divisor+1,w,c
  3686  002244  1007               	iorwf	___lldiv@divisor+2,w,c
  3687  002246  B4D8               	btfsc	status,2,c
  3688  002248  D02A               	goto	l825
  3689  00224A  0E01               	movlw	1
  3690  00224C  6E0D               	movwf	___lldiv@counter,c
  3691  00224E  D006               	goto	l2639
  3692  002250                     l2637:
  3693  002250  90D8               	bcf	status,0,c
  3694  002252  3605               	rlcf	___lldiv@divisor,f,c
  3695  002254  3606               	rlcf	___lldiv@divisor+1,f,c
  3696  002256  3607               	rlcf	___lldiv@divisor+2,f,c
  3697  002258  3608               	rlcf	___lldiv@divisor+3,f,c
  3698  00225A  2A0D               	incf	___lldiv@counter,f,c
  3699  00225C                     l2639:
  3700  00225C  AE08               	btfss	___lldiv@divisor+3,7,c
  3701  00225E  D7F8               	goto	l2637
  3702  002260                     l2641:
  3703  002260  90D8               	bcf	status,0,c
  3704  002262  3609               	rlcf	___lldiv@quotient,f,c
  3705  002264  360A               	rlcf	___lldiv@quotient+1,f,c
  3706  002266  360B               	rlcf	___lldiv@quotient+2,f,c
  3707  002268  360C               	rlcf	___lldiv@quotient+3,f,c
  3708  00226A  5005               	movf	___lldiv@divisor,w,c
  3709  00226C  5C01               	subwf	___lldiv@dividend,w,c
  3710  00226E  5006               	movf	___lldiv@divisor+1,w,c
  3711  002270  5802               	subwfb	___lldiv@dividend+1,w,c
  3712  002272  5007               	movf	___lldiv@divisor+2,w,c
  3713  002274  5803               	subwfb	___lldiv@dividend+2,w,c
  3714  002276  5008               	movf	___lldiv@divisor+3,w,c
  3715  002278  5804               	subwfb	___lldiv@dividend+3,w,c
  3716  00227A  A0D8               	btfss	status,0,c
  3717  00227C  D009               	goto	l2649
  3718  00227E  5005               	movf	___lldiv@divisor,w,c
  3719  002280  5E01               	subwf	___lldiv@dividend,f,c
  3720  002282  5006               	movf	___lldiv@divisor+1,w,c
  3721  002284  5A02               	subwfb	___lldiv@dividend+1,f,c
  3722  002286  5007               	movf	___lldiv@divisor+2,w,c
  3723  002288  5A03               	subwfb	___lldiv@dividend+2,f,c
  3724  00228A  5008               	movf	___lldiv@divisor+3,w,c
  3725  00228C  5A04               	subwfb	___lldiv@dividend+3,f,c
  3726  00228E  8009               	bsf	___lldiv@quotient,0,c
  3727  002290                     l2649:
  3728  002290  90D8               	bcf	status,0,c
  3729  002292  3208               	rrcf	___lldiv@divisor+3,f,c
  3730  002294  3207               	rrcf	___lldiv@divisor+2,f,c
  3731  002296  3206               	rrcf	___lldiv@divisor+1,f,c
  3732  002298  3205               	rrcf	___lldiv@divisor,f,c
  3733  00229A  2E0D               	decfsz	___lldiv@counter,f,c
  3734  00229C  D7E1               	goto	l2641
  3735  00229E                     l825:
  3736  00229E  C009  F001         	movff	___lldiv@quotient,?___lldiv
  3737  0022A2  C00A  F002         	movff	___lldiv@quotient+1,?___lldiv+1
  3738  0022A6  C00B  F003         	movff	___lldiv@quotient+2,?___lldiv+2
  3739  0022AA  C00C  F004         	movff	___lldiv@quotient+3,?___lldiv+3
  3740  0022AE  0012               	return	
  3741  0022B0                     __end_of___lldiv:
  3742                           	opt stack 0
  3743                           tblptru	equ	0xFF8
  3744                           tblptrh	equ	0xFF7
  3745                           tblptrl	equ	0xFF6
  3746                           tablat	equ	0xFF5
  3747                           prodh	equ	0xFF4
  3748                           prodl	equ	0xFF3
  3749                           intcon2	equ	0xFF1
  3750                           postinc0	equ	0xFEE
  3751                           wreg	equ	0xFE8
  3752                           postinc1	equ	0xFE6
  3753                           postdec1	equ	0xFE5
  3754                           fsr1l	equ	0xFE1
  3755                           indf2	equ	0xFDF
  3756                           postinc2	equ	0xFDE
  3757                           postdec2	equ	0xFDD
  3758                           fsr2h	equ	0xFDA
  3759                           fsr2l	equ	0xFD9
  3760                           status	equ	0xFD8
  3761                           
  3762 ;; *************** function _Lcd_Out *****************
  3763 ;; Defined at:
  3764 ;;		line 92 in file "pantalla.h"
  3765 ;; Parameters:    Size  Location     Type
  3766 ;;  y               1    wreg     unsigned char 
  3767 ;;  x               1    3[COMRAM] unsigned char 
  3768 ;;  buffer          2    4[COMRAM] PTR const unsigned char 
  3769 ;;		 -> cadena(10), 
  3770 ;; Auto vars:     Size  Location     Type
  3771 ;;  y               1    6[COMRAM] unsigned char 
  3772 ;;  data            1    7[COMRAM] unsigned char 
  3773 ;; Return value:  Size  Location     Type
  3774 ;;		None               void
  3775 ;; Registers used:
  3776 ;;		wreg, fsr2l, fsr2h, status,2, status,0, cstack
  3777 ;; Tracked objects:
  3778 ;;		On entry : 0/0
  3779 ;;		On exit  : 0/0
  3780 ;;		Unchanged: 0/0
  3781 ;; Data sizes:     COMRAM   BANK0   BANK1   BANK2   BANK3   BANK4   BANK5   BANK6   BANK7
  3782 ;;      Params:         3       0       0       0       0       0       0       0       0
  3783 ;;      Locals:         2       0       0       0       0       0       0       0       0
  3784 ;;      Temps:          0       0       0       0       0       0       0       0       0
  3785 ;;      Totals:         5       0       0       0       0       0       0       0       0
  3786 ;;Total ram usage:        5 bytes
  3787 ;; Hardware stack levels used:    1
  3788 ;; Hardware stack levels required when called:    1
  3789 ;; This function calls:
  3790 ;;		_Lcd_Chr_CP
  3791 ;;		_Lcd_Cmd
  3792 ;; This function is called by:
  3793 ;;		_main
  3794 ;;		_Prueba2
  3795 ;; This function uses a non-reentrant model
  3796 ;;
  3797                           
  3798                           	psect	text7
  3799  0022B0                     __ptext7:
  3800                           	opt stack 0
  3801  0022B0                     _Lcd_Out:
  3802                           	opt stack 29
  3803                           
  3804                           ;incstack = 0
  3805                           ;Lcd_Out@y stored from wreg
  3806  0022B0  6E07               	movwf	Lcd_Out@y,c
  3807                           
  3808                           ;pantalla.h: 94: unsigned char data;
  3809                           ;pantalla.h: 95: switch (y)
  3810  0022B2  D00D               	goto	l2665
  3811  0022B4                     l2655:
  3812  0022B4  5004               	movf	Lcd_Out@x,w,c
  3813  0022B6  0F80               	addlw	128
  3814  0022B8  D008               	goto	L6
  3815  0022BA                     l2657:
  3816  0022BA  5004               	movf	Lcd_Out@x,w,c
  3817  0022BC  0FC0               	addlw	192
  3818  0022BE  D005               	goto	L6
  3819  0022C0                     l2659:
  3820  0022C0  5004               	movf	Lcd_Out@x,w,c
  3821  0022C2  0F94               	addlw	148
  3822  0022C4  D002               	goto	L6
  3823  0022C6                     l2661:
  3824  0022C6  5004               	movf	Lcd_Out@x,w,c
  3825  0022C8  0FD4               	addlw	212
  3826  0022CA                     L6:
  3827  0022CA  6E08               	movwf	Lcd_Out@data,c
  3828  0022CC  D00D               	goto	l2667
  3829  0022CE                     l2665:
  3830  0022CE  5007               	movf	Lcd_Out@y,w,c
  3831                           
  3832                           ; Switch size 1, requested type "space"
  3833                           ; Number of cases is 4, Range of values is 1 to 4
  3834                           ; switch strategies available:
  3835                           ; Name         Instructions Cycles
  3836                           ; simple_byte           13     7 (average)
  3837                           ;	Chosen strategy is simple_byte
  3838  0022D0  0A01               	xorlw	1	; case 1
  3839  0022D2  B4D8               	btfsc	status,2,c
  3840  0022D4  D7EF               	goto	l2655
  3841  0022D6  0A03               	xorlw	3	; case 2
  3842  0022D8  B4D8               	btfsc	status,2,c
  3843  0022DA  D7EF               	goto	l2657
  3844  0022DC  0A01               	xorlw	1	; case 3
  3845  0022DE  B4D8               	btfsc	status,2,c
  3846  0022E0  D7EF               	goto	l2659
  3847  0022E2  0A07               	xorlw	7	; case 4
  3848  0022E4  B4D8               	btfsc	status,2,c
  3849  0022E6  D7EF               	goto	l2661
  3850  0022E8                     l2667:
  3851                           
  3852                           ;pantalla.h: 103: Lcd_Cmd(data);
  3853  0022E8  5008               	movf	Lcd_Out@data,w,c
  3854  0022EA  ECA3  F00D         	call	_Lcd_Cmd
  3855                           
  3856                           ;pantalla.h: 104: while(*buffer)
  3857  0022EE  D009               	goto	l2673
  3858  0022F0                     l2669:
  3859                           
  3860                           ;pantalla.h: 105: {
  3861                           ;pantalla.h: 106: Lcd_Chr_CP(*buffer);
  3862  0022F0  C005  FFD9         	movff	Lcd_Out@buffer,fsr2l
  3863  0022F4  C006  FFDA         	movff	Lcd_Out@buffer+1,fsr2h
  3864  0022F8  50DF               	movf	indf2,w,c
  3865  0022FA  ECE6  F00B         	call	_Lcd_Chr_CP
  3866                           
  3867                           ;pantalla.h: 107: buffer++;
  3868  0022FE  4A05               	infsnz	Lcd_Out@buffer,f,c
  3869  002300  2A06               	incf	Lcd_Out@buffer+1,f,c
  3870  002302                     l2673:
  3871  002302  C005  FFD9         	movff	Lcd_Out@buffer,fsr2l
  3872  002306  C006  FFDA         	movff	Lcd_Out@buffer+1,fsr2h
  3873  00230A  50DF               	movf	indf2,w,c
  3874  00230C  B4D8               	btfsc	status,2,c
  3875                           
  3876                           ;pantalla.h: 108: }
  3877                           ;pantalla.h: 109: return;
  3878  00230E  0012               	return	
  3879  002310  D7EF               	goto	l2669
  3880  002312                     __end_of_Lcd_Out:
  3881                           	opt stack 0
  3882                           tblptru	equ	0xFF8
  3883                           tblptrh	equ	0xFF7
  3884                           tblptrl	equ	0xFF6
  3885                           tablat	equ	0xFF5
  3886                           prodh	equ	0xFF4
  3887                           prodl	equ	0xFF3
  3888                           intcon2	equ	0xFF1
  3889                           postinc0	equ	0xFEE
  3890                           wreg	equ	0xFE8
  3891                           postinc1	equ	0xFE6
  3892                           postdec1	equ	0xFE5
  3893                           fsr1l	equ	0xFE1
  3894                           indf2	equ	0xFDF
  3895                           postinc2	equ	0xFDE
  3896                           postdec2	equ	0xFDD
  3897                           fsr2h	equ	0xFDA
  3898                           fsr2l	equ	0xFD9
  3899                           status	equ	0xFD8
  3900                           
  3901 ;; *************** function _Imprimir_pantalla *****************
  3902 ;; Defined at:
  3903 ;;		line 127 in file "Funciones.h"
  3904 ;; Parameters:    Size  Location     Type
  3905 ;;  N               2    8[COMRAM] PTR unsigned char 
  3906 ;;		 -> ciclo(10), frecuencia(10), 
  3907 ;; Auto vars:     Size  Location     Type
  3908 ;;  columna         1   11[COMRAM] unsigned char 
  3909 ;;  fila            1   10[COMRAM] unsigned char 
  3910 ;; Return value:  Size  Location     Type
  3911 ;;		None               void
  3912 ;; Registers used:
  3913 ;;		wreg, fsr0l, fsr0h, status,2, status,0, tblptrl, tblptrh, tblptru, cstack
  3914 ;; Tracked objects:
  3915 ;;		On entry : 0/0
  3916 ;;		On exit  : 0/0
  3917 ;;		Unchanged: 0/0
  3918 ;; Data sizes:     COMRAM   BANK0   BANK1   BANK2   BANK3   BANK4   BANK5   BANK6   BANK7
  3919 ;;      Params:         2       0       0       0       0       0       0       0       0
  3920 ;;      Locals:         2       0       0       0       0       0       0       0       0
  3921 ;;      Temps:          0       0       0       0       0       0       0       0       0
  3922 ;;      Totals:         4       0       0       0       0       0       0       0       0
  3923 ;;Total ram usage:        4 bytes
  3924 ;; Hardware stack levels used:    1
  3925 ;; Hardware stack levels required when called:    2
  3926 ;; This function calls:
  3927 ;;		_Lcd_Cmd
  3928 ;;		_Lcd_Init
  3929 ;;		_Lcd_Out2
  3930 ;;		_Recuperar
  3931 ;;		_tm_1s
  3932 ;; This function is called by:
  3933 ;;		_main
  3934 ;;		_Prueba1
  3935 ;; This function uses a non-reentrant model
  3936 ;;
  3937                           
  3938                           	psect	text8
  3939  002410                     __ptext8:
  3940                           	opt stack 0
  3941  002410                     _Imprimir_pantalla:
  3942                           	opt stack 28
  3943                           
  3944                           ;Funciones.h: 129: unsigned char fila = 0, columna=0;
  3945                           
  3946                           ;incstack = 0
  3947  002410  0E00               	movlw	0
  3948  002412  6E0B               	movwf	Imprimir_pantalla@fila,c
  3949  002414  0E00               	movlw	0
  3950  002416  6E0C               	movwf	Imprimir_pantalla@columna,c
  3951                           
  3952                           ;Funciones.h: 130: Lcd_Init();
  3953  002418  EC7C  F00C         	call	_Lcd_Init	;wreg free
  3954                           
  3955                           ;Funciones.h: 131: Lcd_Cmd(1);
  3956  00241C  0E01               	movlw	1
  3957  00241E  ECA3  F00D         	call	_Lcd_Cmd
  3958                           
  3959                           ;Funciones.h: 132: Lcd_Cmd(12);
  3960  002422  0E0C               	movlw	12
  3961  002424  ECA3  F00D         	call	_Lcd_Cmd
  3962                           
  3963                           ;Funciones.h: 135: Lcd_Out2(1,1,N);
  3964  002428  0E01               	movlw	1
  3965  00242A  6E04               	movwf	Lcd_Out2@x,c
  3966  00242C  C00A  F006         	movff	Imprimir_pantalla@N+1,Lcd_Out2@buffer+1
  3967  002430  C009  F005         	movff	Imprimir_pantalla@N,Lcd_Out2@buffer
  3968  002434  0E01               	movlw	1
  3969  002436  ECCF  F010         	call	_Lcd_Out2
  3970                           
  3971                           ;Funciones.h: 136: tm_1s();
  3972  00243A  EC36  F00E         	call	_tm_1s	;wreg free
  3973                           
  3974                           ;Funciones.h: 137: Lcd_Cmd(1);
  3975  00243E  0E01               	movlw	1
  3976  002440  ECA3  F00D         	call	_Lcd_Cmd
  3977                           
  3978                           ;Funciones.h: 138: key=Recuperar();
  3979  002444  EC79  F012         	call	_Recuperar	;wreg free
  3980  002448  6E52               	movwf	_key,c
  3981  00244A  0012               	return	
  3982  00244C                     __end_of_Imprimir_pantalla:
  3983                           	opt stack 0
  3984                           tblptru	equ	0xFF8
  3985                           tblptrh	equ	0xFF7
  3986                           tblptrl	equ	0xFF6
  3987                           tablat	equ	0xFF5
  3988                           prodh	equ	0xFF4
  3989                           prodl	equ	0xFF3
  3990                           intcon2	equ	0xFF1
  3991                           postinc0	equ	0xFEE
  3992                           wreg	equ	0xFE8
  3993                           postinc1	equ	0xFE6
  3994                           postdec1	equ	0xFE5
  3995                           fsr1l	equ	0xFE1
  3996                           indf2	equ	0xFDF
  3997                           postinc2	equ	0xFDE
  3998                           postdec2	equ	0xFDD
  3999                           fsr2h	equ	0xFDA
  4000                           fsr2l	equ	0xFD9
  4001                           status	equ	0xFD8
  4002                           
  4003 ;; *************** function _tm_1s *****************
  4004 ;; Defined at:
  4005 ;;		line 35 in file "delays.h"
  4006 ;; Parameters:    Size  Location     Type
  4007 ;;		None
  4008 ;; Auto vars:     Size  Location     Type
  4009 ;;		None
  4010 ;; Return value:  Size  Location     Type
  4011 ;;		None               void
  4012 ;; Registers used:
  4013 ;;		wreg
  4014 ;; Tracked objects:
  4015 ;;		On entry : 0/0
  4016 ;;		On exit  : 0/0
  4017 ;;		Unchanged: 0/0
  4018 ;; Data sizes:     COMRAM   BANK0   BANK1   BANK2   BANK3   BANK4   BANK5   BANK6   BANK7
  4019 ;;      Params:         0       0       0       0       0       0       0       0       0
  4020 ;;      Locals:         0       0       0       0       0       0       0       0       0
  4021 ;;      Temps:          1       0       0       0       0       0       0       0       0
  4022 ;;      Totals:         1       0       0       0       0       0       0       0       0
  4023 ;;Total ram usage:        1 bytes
  4024 ;; Hardware stack levels used:    1
  4025 ;; This function calls:
  4026 ;;		Nothing
  4027 ;; This function is called by:
  4028 ;;		_Imprimir_pantalla
  4029 ;;		_Presentacion
  4030 ;;		_Menu
  4031 ;; This function uses a non-reentrant model
  4032 ;;
  4033                           
  4034                           	psect	text9
  4035  001C6C                     __ptext9:
  4036                           	opt stack 0
  4037  001C6C                     _tm_1s:
  4038                           	opt stack 29
  4039                           
  4040                           ;delays.h: 36: _delay((unsigned long)((50)*(8000000/4000.0)));
  4041                           
  4042                           ;incstack = 0
  4043  001C6C  0E82               	movlw	130
  4044  001C6E  6E01               	movwf	??_tm_1s& (0+255),c
  4045  001C70  0EDE               	movlw	222
  4046  001C72                     u3187:
  4047  001C72  2EE8               	decfsz	wreg,f,c
  4048  001C74  D7FE               	goto	u3187
  4049  001C76  2E01               	decfsz	??_tm_1s& (0+255),f,c
  4050  001C78  D7FC               	goto	u3187
  4051                           
  4052                           ;delays.h: 37: _delay((unsigned long)((50)*(8000000/4000.0)));
  4053  001C7A  0E82               	movlw	130
  4054  001C7C  6E01               	movwf	??_tm_1s& (0+255),c
  4055  001C7E  0EDE               	movlw	222
  4056  001C80                     u3197:
  4057  001C80  2EE8               	decfsz	wreg,f,c
  4058  001C82  D7FE               	goto	u3197
  4059  001C84  2E01               	decfsz	??_tm_1s& (0+255),f,c
  4060  001C86  D7FC               	goto	u3197
  4061                           
  4062                           ;delays.h: 38: _delay((unsigned long)((50)*(8000000/4000.0)));
  4063  001C88  0E82               	movlw	130
  4064  001C8A  6E01               	movwf	??_tm_1s& (0+255),c
  4065  001C8C  0EDE               	movlw	222
  4066  001C8E                     u3207:
  4067  001C8E  2EE8               	decfsz	wreg,f,c
  4068  001C90  D7FE               	goto	u3207
  4069  001C92  2E01               	decfsz	??_tm_1s& (0+255),f,c
  4070  001C94  D7FC               	goto	u3207
  4071                           
  4072                           ;delays.h: 39: _delay((unsigned long)((50)*(8000000/4000.0)));
  4073  001C96  0E82               	movlw	130
  4074  001C98  6E01               	movwf	??_tm_1s& (0+255),c
  4075  001C9A  0EDE               	movlw	222
  4076  001C9C                     u3217:
  4077  001C9C  2EE8               	decfsz	wreg,f,c
  4078  001C9E  D7FE               	goto	u3217
  4079  001CA0  2E01               	decfsz	??_tm_1s& (0+255),f,c
  4080  001CA2  D7FC               	goto	u3217
  4081                           
  4082                           ;delays.h: 41: _delay((unsigned long)((50)*(8000000/4000.0)));
  4083  001CA4  0E82               	movlw	130
  4084  001CA6  6E01               	movwf	??_tm_1s& (0+255),c
  4085  001CA8  0EDE               	movlw	222
  4086  001CAA                     u3227:
  4087  001CAA  2EE8               	decfsz	wreg,f,c
  4088  001CAC  D7FE               	goto	u3227
  4089  001CAE  2E01               	decfsz	??_tm_1s& (0+255),f,c
  4090  001CB0  D7FC               	goto	u3227
  4091                           
  4092                           ;delays.h: 42: _delay((unsigned long)((50)*(8000000/4000.0)));
  4093  001CB2  0E82               	movlw	130
  4094  001CB4  6E01               	movwf	??_tm_1s& (0+255),c
  4095  001CB6  0EDE               	movlw	222
  4096  001CB8                     u3237:
  4097  001CB8  2EE8               	decfsz	wreg,f,c
  4098  001CBA  D7FE               	goto	u3237
  4099  001CBC  2E01               	decfsz	??_tm_1s& (0+255),f,c
  4100  001CBE  D7FC               	goto	u3237
  4101                           
  4102                           ;delays.h: 43: _delay((unsigned long)((50)*(8000000/4000.0)));
  4103  001CC0  0E82               	movlw	130
  4104  001CC2  6E01               	movwf	??_tm_1s& (0+255),c
  4105  001CC4  0EDE               	movlw	222
  4106  001CC6                     u3247:
  4107  001CC6  2EE8               	decfsz	wreg,f,c
  4108  001CC8  D7FE               	goto	u3247
  4109  001CCA  2E01               	decfsz	??_tm_1s& (0+255),f,c
  4110  001CCC  D7FC               	goto	u3247
  4111                           
  4112                           ;delays.h: 44: _delay((unsigned long)((50)*(8000000/4000.0)));
  4113  001CCE  0E82               	movlw	130
  4114  001CD0  6E01               	movwf	??_tm_1s& (0+255),c
  4115  001CD2  0EDE               	movlw	222
  4116  001CD4                     u3257:
  4117  001CD4  2EE8               	decfsz	wreg,f,c
  4118  001CD6  D7FE               	goto	u3257
  4119  001CD8  2E01               	decfsz	??_tm_1s& (0+255),f,c
  4120  001CDA  D7FC               	goto	u3257
  4121                           
  4122                           ;delays.h: 46: _delay((unsigned long)((50)*(8000000/4000.0)));
  4123  001CDC  0E82               	movlw	130
  4124  001CDE  6E01               	movwf	??_tm_1s& (0+255),c
  4125  001CE0  0EDE               	movlw	222
  4126  001CE2                     u3267:
  4127  001CE2  2EE8               	decfsz	wreg,f,c
  4128  001CE4  D7FE               	goto	u3267
  4129  001CE6  2E01               	decfsz	??_tm_1s& (0+255),f,c
  4130  001CE8  D7FC               	goto	u3267
  4131                           
  4132                           ;delays.h: 47: _delay((unsigned long)((50)*(8000000/4000.0)));
  4133  001CEA  0E82               	movlw	130
  4134  001CEC  6E01               	movwf	??_tm_1s& (0+255),c
  4135  001CEE  0EDE               	movlw	222
  4136  001CF0                     u3277:
  4137  001CF0  2EE8               	decfsz	wreg,f,c
  4138  001CF2  D7FE               	goto	u3277
  4139  001CF4  2E01               	decfsz	??_tm_1s& (0+255),f,c
  4140  001CF6  D7FC               	goto	u3277
  4141                           
  4142                           ;delays.h: 49: _delay((unsigned long)((50)*(8000000/4000.0)));
  4143  001CF8  0E82               	movlw	130
  4144  001CFA  6E01               	movwf	??_tm_1s& (0+255),c
  4145  001CFC  0EDE               	movlw	222
  4146  001CFE                     u3287:
  4147  001CFE  2EE8               	decfsz	wreg,f,c
  4148  001D00  D7FE               	goto	u3287
  4149  001D02  2E01               	decfsz	??_tm_1s& (0+255),f,c
  4150  001D04  D7FC               	goto	u3287
  4151                           
  4152                           ;delays.h: 50: _delay((unsigned long)((50)*(8000000/4000.0)));
  4153  001D06  0E82               	movlw	130
  4154  001D08  6E01               	movwf	??_tm_1s& (0+255),c
  4155  001D0A  0EDE               	movlw	222
  4156  001D0C                     u3297:
  4157  001D0C  2EE8               	decfsz	wreg,f,c
  4158  001D0E  D7FE               	goto	u3297
  4159  001D10  2E01               	decfsz	??_tm_1s& (0+255),f,c
  4160  001D12  D7FC               	goto	u3297
  4161                           
  4162                           ;delays.h: 51: _delay((unsigned long)((50)*(8000000/4000.0)));
  4163  001D14  0E82               	movlw	130
  4164  001D16  6E01               	movwf	??_tm_1s& (0+255),c
  4165  001D18  0EDE               	movlw	222
  4166  001D1A                     u3307:
  4167  001D1A  2EE8               	decfsz	wreg,f,c
  4168  001D1C  D7FE               	goto	u3307
  4169  001D1E  2E01               	decfsz	??_tm_1s& (0+255),f,c
  4170  001D20  D7FC               	goto	u3307
  4171                           
  4172                           ;delays.h: 52: _delay((unsigned long)((50)*(8000000/4000.0)));
  4173  001D22  0E82               	movlw	130
  4174  001D24  6E01               	movwf	??_tm_1s& (0+255),c
  4175  001D26  0EDE               	movlw	222
  4176  001D28                     u3317:
  4177  001D28  2EE8               	decfsz	wreg,f,c
  4178  001D2A  D7FE               	goto	u3317
  4179  001D2C  2E01               	decfsz	??_tm_1s& (0+255),f,c
  4180  001D2E  D7FC               	goto	u3317
  4181                           
  4182                           ;delays.h: 54: _delay((unsigned long)((50)*(8000000/4000.0)));
  4183  001D30  0E82               	movlw	130
  4184  001D32  6E01               	movwf	??_tm_1s& (0+255),c
  4185  001D34  0EDE               	movlw	222
  4186  001D36                     u3327:
  4187  001D36  2EE8               	decfsz	wreg,f,c
  4188  001D38  D7FE               	goto	u3327
  4189  001D3A  2E01               	decfsz	??_tm_1s& (0+255),f,c
  4190  001D3C  D7FC               	goto	u3327
  4191                           
  4192                           ;delays.h: 55: _delay((unsigned long)((50)*(8000000/4000.0)));
  4193  001D3E  0E82               	movlw	130
  4194  001D40  6E01               	movwf	??_tm_1s& (0+255),c
  4195  001D42  0EDE               	movlw	222
  4196  001D44                     u3337:
  4197  001D44  2EE8               	decfsz	wreg,f,c
  4198  001D46  D7FE               	goto	u3337
  4199  001D48  2E01               	decfsz	??_tm_1s& (0+255),f,c
  4200  001D4A  D7FC               	goto	u3337
  4201                           
  4202                           ;delays.h: 56: _delay((unsigned long)((50)*(8000000/4000.0)));
  4203  001D4C  0E82               	movlw	130
  4204  001D4E  6E01               	movwf	??_tm_1s& (0+255),c
  4205  001D50  0EDE               	movlw	222
  4206  001D52                     u3347:
  4207  001D52  2EE8               	decfsz	wreg,f,c
  4208  001D54  D7FE               	goto	u3347
  4209  001D56  2E01               	decfsz	??_tm_1s& (0+255),f,c
  4210  001D58  D7FC               	goto	u3347
  4211                           
  4212                           ;delays.h: 57: _delay((unsigned long)((50)*(8000000/4000.0)));
  4213  001D5A  0E82               	movlw	130
  4214  001D5C  6E01               	movwf	??_tm_1s& (0+255),c
  4215  001D5E  0EDE               	movlw	222
  4216  001D60                     u3357:
  4217  001D60  2EE8               	decfsz	wreg,f,c
  4218  001D62  D7FE               	goto	u3357
  4219  001D64  2E01               	decfsz	??_tm_1s& (0+255),f,c
  4220  001D66  D7FC               	goto	u3357
  4221                           
  4222                           ;delays.h: 59: _delay((unsigned long)((50)*(8000000/4000.0)));
  4223  001D68  0E82               	movlw	130
  4224  001D6A  6E01               	movwf	??_tm_1s& (0+255),c
  4225  001D6C  0EDE               	movlw	222
  4226  001D6E                     u3367:
  4227  001D6E  2EE8               	decfsz	wreg,f,c
  4228  001D70  D7FE               	goto	u3367
  4229  001D72  2E01               	decfsz	??_tm_1s& (0+255),f,c
  4230  001D74  D7FC               	goto	u3367
  4231                           
  4232                           ;delays.h: 60: _delay((unsigned long)((50)*(8000000/4000.0)));
  4233  001D76  0E82               	movlw	130
  4234  001D78  6E01               	movwf	??_tm_1s& (0+255),c
  4235  001D7A  0EDE               	movlw	222
  4236  001D7C                     u3377:
  4237  001D7C  2EE8               	decfsz	wreg,f,c
  4238  001D7E  D7FE               	goto	u3377
  4239  001D80  2E01               	decfsz	??_tm_1s& (0+255),f,c
  4240  001D82  D7FC               	goto	u3377
  4241  001D84  0012               	return	
  4242  001D86                     __end_of_tm_1s:
  4243                           	opt stack 0
  4244                           tblptru	equ	0xFF8
  4245                           tblptrh	equ	0xFF7
  4246                           tblptrl	equ	0xFF6
  4247                           tablat	equ	0xFF5
  4248                           prodh	equ	0xFF4
  4249                           prodl	equ	0xFF3
  4250                           intcon2	equ	0xFF1
  4251                           postinc0	equ	0xFEE
  4252                           wreg	equ	0xFE8
  4253                           postinc1	equ	0xFE6
  4254                           postdec1	equ	0xFE5
  4255                           fsr1l	equ	0xFE1
  4256                           indf2	equ	0xFDF
  4257                           postinc2	equ	0xFDE
  4258                           postdec2	equ	0xFDD
  4259                           fsr2h	equ	0xFDA
  4260                           fsr2l	equ	0xFD9
  4261                           status	equ	0xFD8
  4262                           
  4263 ;; *************** function _Frecuencia *****************
  4264 ;; Defined at:
  4265 ;;		line 69 in file "Funciones.h"
  4266 ;; Parameters:    Size  Location     Type
  4267 ;;  frecuencia      2   20[COMRAM] PTR unsigned char 
  4268 ;;		 -> frecuencia(10), 
  4269 ;; Auto vars:     Size  Location     Type
  4270 ;;		None
  4271 ;; Return value:  Size  Location     Type
  4272 ;;		None               void
  4273 ;; Registers used:
  4274 ;;		wreg, fsr0l, fsr0h, fsr2l, fsr2h, status,2, status,0, tblptrl, tblptrh, tblptru, cstack
  4275 ;; Tracked objects:
  4276 ;;		On entry : 0/0
  4277 ;;		On exit  : 0/0
  4278 ;;		Unchanged: 0/0
  4279 ;; Data sizes:     COMRAM   BANK0   BANK1   BANK2   BANK3   BANK4   BANK5   BANK6   BANK7
  4280 ;;      Params:         2       0       0       0       0       0       0       0       0
  4281 ;;      Locals:         0       0       0       0       0       0       0       0       0
  4282 ;;      Temps:          0       0       0       0       0       0       0       0       0
  4283 ;;      Totals:         2       0       0       0       0       0       0       0       0
  4284 ;;Total ram usage:        2 bytes
  4285 ;; Hardware stack levels used:    1
  4286 ;; Hardware stack levels required when called:    3
  4287 ;; This function calls:
  4288 ;;		_Lcd_Cmd
  4289 ;;		_Lcd_Init
  4290 ;;		_Lcd_Out2
  4291 ;;		_Tec
  4292 ;; This function is called by:
  4293 ;;		_main
  4294 ;;		_Prueba1
  4295 ;; This function uses a non-reentrant model
  4296 ;;
  4297                           
  4298                           	psect	text10
  4299  00244C                     __ptext10:
  4300                           	opt stack 0
  4301  00244C                     _Frecuencia:
  4302                           	opt stack 27
  4303                           
  4304                           ;Funciones.h: 70: Lcd_Init();
  4305                           
  4306                           ;incstack = 0
  4307  00244C  EC7C  F00C         	call	_Lcd_Init	;wreg free
  4308                           
  4309                           ;Funciones.h: 71: Lcd_Cmd(1);
  4310  002450  0E01               	movlw	1
  4311  002452  ECA3  F00D         	call	_Lcd_Cmd
  4312                           
  4313                           ;Funciones.h: 72: Lcd_Cmd(12);
  4314  002456  0E0C               	movlw	12
  4315  002458  ECA3  F00D         	call	_Lcd_Cmd
  4316                           
  4317                           ;Funciones.h: 73: Lcd_Out2(1,1,"Frecuencia:");
  4318  00245C  0E01               	movlw	1
  4319  00245E  6E04               	movwf	Lcd_Out2@x,c
  4320  002460  0E08               	movlw	high STR_10
  4321  002462  6E06               	movwf	Lcd_Out2@buffer+1,c
  4322  002464  0E4A               	movlw	low STR_10
  4323  002466  6E05               	movwf	Lcd_Out2@buffer,c
  4324  002468  0E01               	movlw	1
  4325  00246A  ECCF  F010         	call	_Lcd_Out2
  4326                           
  4327                           ;Funciones.h: 74: Tec(frecuencia);
  4328  00246E  C016  F00C         	movff	Frecuencia@frecuencia+1,Tec@cadena+1
  4329  002472  C015  F00B         	movff	Frecuencia@frecuencia,Tec@cadena
  4330  002476  EC10  F00D         	call	_Tec	;wreg free
  4331  00247A  0012               	return	
  4332  00247C                     __end_of_Frecuencia:
  4333                           	opt stack 0
  4334                           tblptru	equ	0xFF8
  4335                           tblptrh	equ	0xFF7
  4336                           tblptrl	equ	0xFF6
  4337                           tablat	equ	0xFF5
  4338                           prodh	equ	0xFF4
  4339                           prodl	equ	0xFF3
  4340                           intcon2	equ	0xFF1
  4341                           postinc0	equ	0xFEE
  4342                           wreg	equ	0xFE8
  4343                           postinc1	equ	0xFE6
  4344                           postdec1	equ	0xFE5
  4345                           fsr1l	equ	0xFE1
  4346                           indf2	equ	0xFDF
  4347                           postinc2	equ	0xFDE
  4348                           postdec2	equ	0xFDD
  4349                           fsr2h	equ	0xFDA
  4350                           fsr2l	equ	0xFD9
  4351                           status	equ	0xFD8
  4352                           
  4353 ;; *************** function _Conv_Entero *****************
  4354 ;; Defined at:
  4355 ;;		line 12 in file "conversion.c"
  4356 ;; Parameters:    Size  Location     Type
  4357 ;;  numero          4   14[COMRAM] long 
  4358 ;;  conv            2   18[COMRAM] PTR unsigned char 
  4359 ;;		 -> cadena(10), 
  4360 ;; Auto vars:     Size  Location     Type
  4361 ;;  convTemp       21   25[COMRAM] unsigned char [21]
  4362 ;;  numeroReg       4   51[COMRAM] long 
  4363 ;;  punteroActua    2   49[COMRAM] PTR unsigned char 
  4364 ;;		 -> Conv_Entero@convTemp(21), 
  4365 ;;  num             2   46[COMRAM] int 
  4366 ;;  i               1   48[COMRAM] unsigned char 
  4367 ;; Return value:  Size  Location     Type
  4368 ;;                  2   14[COMRAM] int 
  4369 ;; Registers used:
  4370 ;;		wreg, fsr1l, fsr1h, fsr2l, fsr2h, status,2, status,0, prodl, prodh, cstack
  4371 ;; Tracked objects:
  4372 ;;		On entry : 0/0
  4373 ;;		On exit  : 0/0
  4374 ;;		Unchanged: 0/0
  4375 ;; Data sizes:     COMRAM   BANK0   BANK1   BANK2   BANK3   BANK4   BANK5   BANK6   BANK7
  4376 ;;      Params:         6       0       0       0       0       0       0       0       0
  4377 ;;      Locals:        30       0       0       0       0       0       0       0       0
  4378 ;;      Temps:          5       0       0       0       0       0       0       0       0
  4379 ;;      Totals:        41       0       0       0       0       0       0       0       0
  4380 ;;Total ram usage:       41 bytes
  4381 ;; Hardware stack levels used:    1
  4382 ;; Hardware stack levels required when called:    1
  4383 ;; This function calls:
  4384 ;;		___aldiv
  4385 ;;		___almod
  4386 ;;		___lmul
  4387 ;; This function is called by:
  4388 ;;		_main
  4389 ;;		_Prueba2
  4390 ;; This function uses a non-reentrant model
  4391 ;;
  4392                           
  4393                           	psect	text11
  4394  0015F4                     __ptext11:
  4395                           	opt stack 0
  4396  0015F4                     _Conv_Entero:
  4397                           	opt stack 29
  4398                           
  4399                           ;conversion.c: 14: char convTemp[21];
  4400                           ;conversion.c: 15: register char *punteroActual;
  4401                           ;conversion.c: 16: register int num=0;
  4402                           
  4403                           ;incstack = 0
  4404  0015F4  0E00               	movlw	0
  4405  0015F6  6E30               	movwf	Conv_Entero@num+1,c
  4406  0015F8  0E00               	movlw	0
  4407  0015FA  6E2F               	movwf	Conv_Entero@num,c
  4408                           
  4409                           ;conversion.c: 17: register char i=0;
  4410  0015FC  0E00               	movlw	0
  4411  0015FE  6E31               	movwf	Conv_Entero@i,c
  4412                           
  4413                           ;conversion.c: 18: register long long numeroReg = numero;
  4414  001600  C00F  F034         	movff	Conv_Entero@numero,Conv_Entero@numeroReg
  4415  001604  C010  F035         	movff	Conv_Entero@numero+1,Conv_Entero@numeroReg+1
  4416  001608  C011  F036         	movff	Conv_Entero@numero+2,Conv_Entero@numeroReg+2
  4417  00160C  C012  F037         	movff	Conv_Entero@numero+3,Conv_Entero@numeroReg+3
  4418                           
  4419                           ;conversion.c: 20: punteroActual = &convTemp[21 - 1];
  4420  001610  0E00               	movlw	high (Conv_Entero@convTemp+20)
  4421  001612  6E33               	movwf	Conv_Entero@punteroActual+1,c
  4422  001614  0E2E               	movlw	low (Conv_Entero@convTemp+20)
  4423  001616  6E32               	movwf	Conv_Entero@punteroActual,c
  4424                           
  4425                           ;conversion.c: 21: *punteroActual = 0;
  4426  001618  C032  FFD9         	movff	Conv_Entero@punteroActual,fsr2l
  4427  00161C  C033  FFDA         	movff	Conv_Entero@punteroActual+1,fsr2h
  4428  001620  0E00               	movlw	0
  4429  001622  6EDF               	movwf	indf2,c
  4430                           
  4431                           ;conversion.c: 23: if( numeroReg < 0)
  4432  001624  5037               	movf	Conv_Entero@numeroReg+3,w,c
  4433  001626  0A80               	xorlw	128
  4434  001628  0F80               	addlw	128
  4435  00162A  E108               	bnz	u1975
  4436  00162C  0E00               	movlw	0
  4437  00162E  5C36               	subwf	Conv_Entero@numeroReg+2,w,c
  4438  001630  E105               	bnz	u1975
  4439  001632  0E00               	movlw	0
  4440  001634  5C35               	subwf	Conv_Entero@numeroReg+1,w,c
  4441  001636  E102               	bnz	u1975
  4442  001638  0E00               	movlw	0
  4443  00163A  5C34               	subwf	Conv_Entero@numeroReg,w,c
  4444  00163C                     u1975:
  4445  00163C  B0D8               	btfsc	status,0,c
  4446  00163E  D01A               	goto	l2743
  4447                           
  4448                           ;conversion.c: 24: {
  4449                           ;conversion.c: 25: numeroReg*=-1;
  4450  001640  C034  F001         	movff	Conv_Entero@numeroReg,___lmul@multiplier
  4451  001644  C035  F002         	movff	Conv_Entero@numeroReg+1,___lmul@multiplier+1
  4452  001648  C036  F003         	movff	Conv_Entero@numeroReg+2,___lmul@multiplier+2
  4453  00164C  C037  F004         	movff	Conv_Entero@numeroReg+3,___lmul@multiplier+3
  4454  001650  0EFF               	movlw	255
  4455  001652  6E05               	movwf	___lmul@multiplicand,c
  4456  001654  0EFF               	movlw	255
  4457  001656  6E06               	movwf	___lmul@multiplicand+1,c
  4458  001658  0EFF               	movlw	255
  4459  00165A  6E07               	movwf	___lmul@multiplicand+2,c
  4460  00165C  0EFF               	movlw	255
  4461  00165E  6E08               	movwf	___lmul@multiplicand+3,c
  4462  001660  ECB6  F011         	call	___lmul	;wreg free
  4463  001664  C001  F034         	movff	?___lmul,Conv_Entero@numeroReg
  4464  001668  C002  F035         	movff	?___lmul+1,Conv_Entero@numeroReg+1
  4465  00166C  C003  F036         	movff	?___lmul+2,Conv_Entero@numeroReg+2
  4466  001670  C004  F037         	movff	?___lmul+3,Conv_Entero@numeroReg+3
  4467  001674                     l2743:
  4468                           
  4469                           ;conversion.c: 29: punteroActual--;
  4470  001674  0632               	decf	Conv_Entero@punteroActual,f,c
  4471  001676  A0D8               	btfss	status,0,c
  4472  001678  0633               	decf	Conv_Entero@punteroActual+1,f,c
  4473                           
  4474                           ;conversion.c: 30: num=numeroReg % 10;
  4475  00167A  C034  F001         	movff	Conv_Entero@numeroReg,___almod@dividend
  4476  00167E  C035  F002         	movff	Conv_Entero@numeroReg+1,___almod@dividend+1
  4477  001682  C036  F003         	movff	Conv_Entero@numeroReg+2,___almod@dividend+2
  4478  001686  C037  F004         	movff	Conv_Entero@numeroReg+3,___almod@dividend+3
  4479  00168A  0E0A               	movlw	10
  4480  00168C  6E05               	movwf	___almod@divisor,c
  4481  00168E  0E00               	movlw	0
  4482  001690  6E06               	movwf	___almod@divisor+1,c
  4483  001692  0E00               	movlw	0
  4484  001694  6E07               	movwf	___almod@divisor+2,c
  4485  001696  0E00               	movlw	0
  4486  001698  6E08               	movwf	___almod@divisor+3,c
  4487  00169A  ECAF  F00F         	call	___almod	;wreg free
  4488  00169E  C001  F015         	movff	?___almod,??_Conv_Entero
  4489  0016A2  C002  F016         	movff	?___almod+1,??_Conv_Entero+1
  4490  0016A6  C003  F017         	movff	?___almod+2,??_Conv_Entero+2
  4491  0016AA  C004  F018         	movff	?___almod+3,??_Conv_Entero+3
  4492  0016AE  C015  F02F         	movff	??_Conv_Entero,Conv_Entero@num
  4493  0016B2  C016  F030         	movff	??_Conv_Entero+1,Conv_Entero@num+1
  4494                           
  4495                           ;conversion.c: 32: *punteroActual = num + '0';
  4496  0016B6  502F               	movf	Conv_Entero@num,w,c
  4497  0016B8  0F30               	addlw	48
  4498  0016BA  C032  FFD9         	movff	Conv_Entero@punteroActual,fsr2l
  4499  0016BE  C033  FFDA         	movff	Conv_Entero@punteroActual+1,fsr2h
  4500  0016C2  6EDF               	movwf	indf2,c
  4501                           
  4502                           ;conversion.c: 33: } while(numeroReg /= 10);
  4503  0016C4  C034  F001         	movff	Conv_Entero@numeroReg,___aldiv@dividend
  4504  0016C8  C035  F002         	movff	Conv_Entero@numeroReg+1,___aldiv@dividend+1
  4505  0016CC  C036  F003         	movff	Conv_Entero@numeroReg+2,___aldiv@dividend+2
  4506  0016D0  C037  F004         	movff	Conv_Entero@numeroReg+3,___aldiv@dividend+3
  4507  0016D4  0E0A               	movlw	10
  4508  0016D6  6E05               	movwf	___aldiv@divisor,c
  4509  0016D8  0E00               	movlw	0
  4510  0016DA  6E06               	movwf	___aldiv@divisor+1,c
  4511  0016DC  0E00               	movlw	0
  4512  0016DE  6E07               	movwf	___aldiv@divisor+2,c
  4513  0016E0  0E00               	movlw	0
  4514  0016E2  6E08               	movwf	___aldiv@divisor+3,c
  4515  0016E4  ECC3  F00E         	call	___aldiv	;wreg free
  4516  0016E8  C001  F034         	movff	?___aldiv,Conv_Entero@numeroReg
  4517  0016EC  C002  F035         	movff	?___aldiv+1,Conv_Entero@numeroReg+1
  4518  0016F0  C003  F036         	movff	?___aldiv+2,Conv_Entero@numeroReg+2
  4519  0016F4  C004  F037         	movff	?___aldiv+3,Conv_Entero@numeroReg+3
  4520  0016F8  5037               	movf	(Conv_Entero@numeroReg+3)& (0+255),w,c
  4521  0016FA  1034               	iorwf	Conv_Entero@numeroReg& (0+255),w,c
  4522  0016FC  1035               	iorwf	(Conv_Entero@numeroReg+1)& (0+255),w,c
  4523  0016FE  1036               	iorwf	(Conv_Entero@numeroReg+2)& (0+255),w,c
  4524  001700  A4D8               	btfss	status,2,c
  4525  001702  D7B8               	goto	l2743
  4526                           
  4527                           ;conversion.c: 35: if ( numero < 0)
  4528  001704  5012               	movf	Conv_Entero@numero+3,w,c
  4529  001706  0A80               	xorlw	128
  4530  001708  0F80               	addlw	128
  4531  00170A  E108               	bnz	u1995
  4532  00170C  0E00               	movlw	0
  4533  00170E  5C11               	subwf	Conv_Entero@numero+2,w,c
  4534  001710  E105               	bnz	u1995
  4535  001712  0E00               	movlw	0
  4536  001714  5C10               	subwf	Conv_Entero@numero+1,w,c
  4537  001716  E102               	bnz	u1995
  4538  001718  0E00               	movlw	0
  4539  00171A  5C0F               	subwf	Conv_Entero@numero,w,c
  4540  00171C                     u1995:
  4541  00171C  B0D8               	btfsc	status,0,c
  4542  00171E  D009               	goto	l2757
  4543                           
  4544                           ;conversion.c: 36: {
  4545                           ;conversion.c: 37: punteroActual--;
  4546  001720  0632               	decf	Conv_Entero@punteroActual,f,c
  4547  001722  A0D8               	btfss	status,0,c
  4548  001724  0633               	decf	Conv_Entero@punteroActual+1,f,c
  4549                           
  4550                           ;conversion.c: 38: *punteroActual = '-';
  4551  001726  C032  FFD9         	movff	Conv_Entero@punteroActual,fsr2l
  4552  00172A  C033  FFDA         	movff	Conv_Entero@punteroActual+1,fsr2h
  4553  00172E  0E2D               	movlw	45
  4554  001730  6EDF               	movwf	indf2,c
  4555  001732                     l2757:
  4556                           
  4557                           ;conversion.c: 39: }
  4558                           ;conversion.c: 41: numeroReg=convTemp+21-punteroActual;
  4559  001732  C032  F015         	movff	Conv_Entero@punteroActual,??_Conv_Entero
  4560  001736  C033  F016         	movff	Conv_Entero@punteroActual+1,??_Conv_Entero+1
  4561  00173A  1E15               	comf	??_Conv_Entero,f,c
  4562  00173C  1E16               	comf	??_Conv_Entero+1,f,c
  4563  00173E  4A15               	infsnz	??_Conv_Entero,f,c
  4564  001740  2A16               	incf	??_Conv_Entero+1,f,c
  4565  001742  0E15               	movlw	21
  4566  001744  2615               	addwf	??_Conv_Entero,f,c
  4567  001746  0E00               	movlw	0
  4568  001748  2216               	addwfc	??_Conv_Entero+1,f,c
  4569  00174A  0E1A               	movlw	low Conv_Entero@convTemp
  4570  00174C  6E17               	movwf	(??_Conv_Entero+2)& (0+255),c
  4571  00174E  0E00               	movlw	high Conv_Entero@convTemp
  4572  001750  6E18               	movwf	(??_Conv_Entero+3)& (0+255),c
  4573  001752  5015               	movf	??_Conv_Entero,w,c
  4574  001754  2617               	addwf	??_Conv_Entero+2,f,c
  4575  001756  5016               	movf	??_Conv_Entero+1,w,c
  4576  001758  2218               	addwfc	??_Conv_Entero+3,f,c
  4577  00175A  C017  F034         	movff	??_Conv_Entero+2,Conv_Entero@numeroReg
  4578  00175E  C018  F035         	movff	??_Conv_Entero+3,Conv_Entero@numeroReg+1
  4579  001762  0E00               	movlw	0
  4580  001764  BE35               	btfsc	Conv_Entero@numeroReg+1,7,c
  4581  001766  0EFF               	movlw	-1
  4582  001768  6E36               	movwf	Conv_Entero@numeroReg+2,c
  4583  00176A  6E37               	movwf	Conv_Entero@numeroReg+3,c
  4584                           
  4585                           ;conversion.c: 42: for (i = 0; i< numeroReg; i++)
  4586  00176C  0E00               	movlw	0
  4587  00176E  6E31               	movwf	Conv_Entero@i,c
  4588  001770  D013               	goto	l2765
  4589  001772                     l2761:
  4590                           
  4591                           ;conversion.c: 43: {
  4592                           ;conversion.c: 49: ((unsigned char *)conv)[i] = ((const unsigned char *)punteroActual)[i
      +                          ];
  4593  001772  5031               	movf	Conv_Entero@i,w,c
  4594  001774  0D01               	mullw	1
  4595  001776  50F3               	movf	prodl,w,c
  4596  001778  2432               	addwf	Conv_Entero@punteroActual,w,c
  4597  00177A  6ED9               	movwf	fsr2l,c
  4598  00177C  50F4               	movf	prodh,w,c
  4599  00177E  2033               	addwfc	Conv_Entero@punteroActual+1,w,c
  4600  001780  6EDA               	movwf	fsr2h,c
  4601  001782  5031               	movf	Conv_Entero@i,w,c
  4602  001784  0D01               	mullw	1
  4603  001786  50F3               	movf	prodl,w,c
  4604  001788  2413               	addwf	Conv_Entero@conv,w,c
  4605  00178A  6EE1               	movwf	fsr1l,c
  4606  00178C  50F4               	movf	prodh,w,c
  4607  00178E  2014               	addwfc	Conv_Entero@conv+1,w,c
  4608  001790  6EE2               	movwf	fsr1h,c
  4609  001792  CFDF FFE7          	movff	indf2,indf1
  4610  001796  2A31               	incf	Conv_Entero@i,f,c
  4611  001798                     l2765:
  4612  001798  C031  F015         	movff	Conv_Entero@i,??_Conv_Entero
  4613  00179C  6A16               	clrf	(??_Conv_Entero+1)& (0+255),c
  4614  00179E  6A17               	clrf	(??_Conv_Entero+2)& (0+255),c
  4615  0017A0  6A18               	clrf	(??_Conv_Entero+3)& (0+255),c
  4616  0017A2  5018               	movf	??_Conv_Entero+3,w,c
  4617  0017A4  0A80               	xorlw	128
  4618  0017A6  6E19               	movwf	(??_Conv_Entero+4)& (0+255),c
  4619  0017A8  5034               	movf	Conv_Entero@numeroReg,w,c
  4620  0017AA  5C15               	subwf	??_Conv_Entero,w,c
  4621  0017AC  5035               	movf	Conv_Entero@numeroReg+1,w,c
  4622  0017AE  5816               	subwfb	??_Conv_Entero+1,w,c
  4623  0017B0  5036               	movf	Conv_Entero@numeroReg+2,w,c
  4624  0017B2  5817               	subwfb	??_Conv_Entero+2,w,c
  4625  0017B4  5037               	movf	Conv_Entero@numeroReg+3,w,c
  4626  0017B6  0A80               	xorlw	128
  4627  0017B8  5819               	subwfb	(??_Conv_Entero+4)& (0+255),w,c
  4628  0017BA  A0D8               	btfss	status,0,c
  4629  0017BC  D7DA               	goto	l2761
  4630                           
  4631                           ;conversion.c: 50: }
  4632                           ;conversion.c: 52: return numeroReg - 1;
  4633  0017BE  0EFF               	movlw	255
  4634  0017C0  2434               	addwf	Conv_Entero@numeroReg,w,c
  4635  0017C2  6E0F               	movwf	?_Conv_Entero,c
  4636  0017C4  0EFF               	movlw	255
  4637  0017C6  2035               	addwfc	Conv_Entero@numeroReg+1,w,c
  4638  0017C8  6E10               	movwf	?_Conv_Entero+1,c
  4639  0017CA  0012               	return	
  4640  0017CC                     __end_of_Conv_Entero:
  4641                           	opt stack 0
  4642                           tblptru	equ	0xFF8
  4643                           tblptrh	equ	0xFF7
  4644                           tblptrl	equ	0xFF6
  4645                           tablat	equ	0xFF5
  4646                           prodh	equ	0xFF4
  4647                           prodl	equ	0xFF3
  4648                           intcon2	equ	0xFF1
  4649                           postinc0	equ	0xFEE
  4650                           wreg	equ	0xFE8
  4651                           indf1	equ	0xFE7
  4652                           postinc1	equ	0xFE6
  4653                           postdec1	equ	0xFE5
  4654                           fsr1h	equ	0xFE2
  4655                           fsr1l	equ	0xFE1
  4656                           indf2	equ	0xFDF
  4657                           postinc2	equ	0xFDE
  4658                           postdec2	equ	0xFDD
  4659                           fsr2h	equ	0xFDA
  4660                           fsr2l	equ	0xFD9
  4661                           status	equ	0xFD8
  4662                           
  4663 ;; *************** function ___lmul *****************
  4664 ;; Defined at:
  4665 ;;		line 15 in file "/opt/microchip/xc8/v1.32/sources/common/Umul32.c"
  4666 ;; Parameters:    Size  Location     Type
  4667 ;;  multiplier      4    0[COMRAM] unsigned long 
  4668 ;;  multiplicand    4    4[COMRAM] unsigned long 
  4669 ;; Auto vars:     Size  Location     Type
  4670 ;;  product         4    8[COMRAM] unsigned long 
  4671 ;; Return value:  Size  Location     Type
  4672 ;;                  4    0[COMRAM] unsigned long 
  4673 ;; Registers used:
  4674 ;;		wreg, status,2, status,0
  4675 ;; Tracked objects:
  4676 ;;		On entry : 0/0
  4677 ;;		On exit  : 0/0
  4678 ;;		Unchanged: 0/0
  4679 ;; Data sizes:     COMRAM   BANK0   BANK1   BANK2   BANK3   BANK4   BANK5   BANK6   BANK7
  4680 ;;      Params:         8       0       0       0       0       0       0       0       0
  4681 ;;      Locals:         4       0       0       0       0       0       0       0       0
  4682 ;;      Temps:          0       0       0       0       0       0       0       0       0
  4683 ;;      Totals:        12       0       0       0       0       0       0       0       0
  4684 ;;Total ram usage:       12 bytes
  4685 ;; Hardware stack levels used:    1
  4686 ;; This function calls:
  4687 ;;		Nothing
  4688 ;; This function is called by:
  4689 ;;		_PWM_generar
  4690 ;;		_Conv_Entero
  4691 ;; This function uses a non-reentrant model
  4692 ;;
  4693                           
  4694                           	psect	text12
  4695  00236C                     __ptext12:
  4696                           	opt stack 0
  4697  00236C                     ___lmul:
  4698                           	opt stack 29
  4699                           
  4700                           ;incstack = 0
  4701  00236C  0E00               	movlw	0
  4702  00236E  6E09               	movwf	___lmul@product,c
  4703  002370  0E00               	movlw	0
  4704  002372  6E0A               	movwf	___lmul@product+1,c
  4705  002374  0E00               	movlw	0
  4706  002376  6E0B               	movwf	___lmul@product+2,c
  4707  002378  0E00               	movlw	0
  4708  00237A  6E0C               	movwf	___lmul@product+3,c
  4709  00237C                     l2531:
  4710  00237C  A001               	btfss	___lmul@multiplier,0,c
  4711  00237E  D008               	goto	l2535
  4712  002380  5005               	movf	___lmul@multiplicand,w,c
  4713  002382  2609               	addwf	___lmul@product,f,c
  4714  002384  5006               	movf	___lmul@multiplicand+1,w,c
  4715  002386  220A               	addwfc	___lmul@product+1,f,c
  4716  002388  5007               	movf	___lmul@multiplicand+2,w,c
  4717  00238A  220B               	addwfc	___lmul@product+2,f,c
  4718  00238C  5008               	movf	___lmul@multiplicand+3,w,c
  4719  00238E  220C               	addwfc	___lmul@product+3,f,c
  4720  002390                     l2535:
  4721  002390  90D8               	bcf	status,0,c
  4722  002392  3605               	rlcf	___lmul@multiplicand,f,c
  4723  002394  3606               	rlcf	___lmul@multiplicand+1,f,c
  4724  002396  3607               	rlcf	___lmul@multiplicand+2,f,c
  4725  002398  3608               	rlcf	___lmul@multiplicand+3,f,c
  4726  00239A  90D8               	bcf	status,0,c
  4727  00239C  3204               	rrcf	___lmul@multiplier+3,f,c
  4728  00239E  3203               	rrcf	___lmul@multiplier+2,f,c
  4729  0023A0  3202               	rrcf	___lmul@multiplier+1,f,c
  4730  0023A2  3201               	rrcf	___lmul@multiplier,f,c
  4731  0023A4  5004               	movf	___lmul@multiplier+3,w,c
  4732  0023A6  1001               	iorwf	___lmul@multiplier,w,c
  4733  0023A8  1002               	iorwf	___lmul@multiplier+1,w,c
  4734  0023AA  1003               	iorwf	___lmul@multiplier+2,w,c
  4735  0023AC  A4D8               	btfss	status,2,c
  4736  0023AE  D7E6               	goto	l2531
  4737  0023B0  C009  F001         	movff	___lmul@product,?___lmul
  4738  0023B4  C00A  F002         	movff	___lmul@product+1,?___lmul+1
  4739  0023B8  C00B  F003         	movff	___lmul@product+2,?___lmul+2
  4740  0023BC  C00C  F004         	movff	___lmul@product+3,?___lmul+3
  4741  0023C0  0012               	return	
  4742  0023C2                     __end_of___lmul:
  4743                           	opt stack 0
  4744                           tblptru	equ	0xFF8
  4745                           tblptrh	equ	0xFF7
  4746                           tblptrl	equ	0xFF6
  4747                           tablat	equ	0xFF5
  4748                           prodh	equ	0xFF4
  4749                           prodl	equ	0xFF3
  4750                           intcon2	equ	0xFF1
  4751                           postinc0	equ	0xFEE
  4752                           wreg	equ	0xFE8
  4753                           indf1	equ	0xFE7
  4754                           postinc1	equ	0xFE6
  4755                           postdec1	equ	0xFE5
  4756                           fsr1h	equ	0xFE2
  4757                           fsr1l	equ	0xFE1
  4758                           indf2	equ	0xFDF
  4759                           postinc2	equ	0xFDE
  4760                           postdec2	equ	0xFDD
  4761                           fsr2h	equ	0xFDA
  4762                           fsr2l	equ	0xFD9
  4763                           status	equ	0xFD8
  4764                           
  4765 ;; *************** function ___almod *****************
  4766 ;; Defined at:
  4767 ;;		line 8 in file "/opt/microchip/xc8/v1.32/sources/common/almod.c"
  4768 ;; Parameters:    Size  Location     Type
  4769 ;;  dividend        4    0[COMRAM] long 
  4770 ;;  divisor         4    4[COMRAM] long 
  4771 ;; Auto vars:     Size  Location     Type
  4772 ;;  sign            1    9[COMRAM] unsigned char 
  4773 ;;  counter         1    8[COMRAM] unsigned char 
  4774 ;; Return value:  Size  Location     Type
  4775 ;;                  4    0[COMRAM] long 
  4776 ;; Registers used:
  4777 ;;		wreg, status,2, status,0
  4778 ;; Tracked objects:
  4779 ;;		On entry : 0/0
  4780 ;;		On exit  : 0/0
  4781 ;;		Unchanged: 0/0
  4782 ;; Data sizes:     COMRAM   BANK0   BANK1   BANK2   BANK3   BANK4   BANK5   BANK6   BANK7
  4783 ;;      Params:         8       0       0       0       0       0       0       0       0
  4784 ;;      Locals:         2       0       0       0       0       0       0       0       0
  4785 ;;      Temps:          0       0       0       0       0       0       0       0       0
  4786 ;;      Totals:        10       0       0       0       0       0       0       0       0
  4787 ;;Total ram usage:       10 bytes
  4788 ;; Hardware stack levels used:    1
  4789 ;; This function calls:
  4790 ;;		Nothing
  4791 ;; This function is called by:
  4792 ;;		_Conv_Entero
  4793 ;; This function uses a non-reentrant model
  4794 ;;
  4795                           
  4796                           	psect	text13
  4797  001F5E                     __ptext13:
  4798                           	opt stack 0
  4799  001F5E                     ___almod:
  4800                           	opt stack 29
  4801                           
  4802                           ;incstack = 0
  4803  001F5E  0E00               	movlw	0
  4804  001F60  6E0A               	movwf	___almod@sign,c
  4805  001F62  5004               	movf	___almod@dividend+3,w,c
  4806  001F64  0A80               	xorlw	128
  4807  001F66  0F80               	addlw	128
  4808  001F68  E108               	bnz	u1795
  4809  001F6A  0E00               	movlw	0
  4810  001F6C  5C03               	subwf	___almod@dividend+2,w,c
  4811  001F6E  E105               	bnz	u1795
  4812  001F70  0E00               	movlw	0
  4813  001F72  5C02               	subwf	___almod@dividend+1,w,c
  4814  001F74  E102               	bnz	u1795
  4815  001F76  0E00               	movlw	0
  4816  001F78  5C01               	subwf	___almod@dividend,w,c
  4817  001F7A                     u1795:
  4818  001F7A  B0D8               	btfsc	status,0,c
  4819  001F7C  D00A               	goto	l2591
  4820  001F7E  1E04               	comf	___almod@dividend+3,f,c
  4821  001F80  1E03               	comf	___almod@dividend+2,f,c
  4822  001F82  1E02               	comf	___almod@dividend+1,f,c
  4823  001F84  6C01               	negf	___almod@dividend,c
  4824  001F86  0E00               	movlw	0
  4825  001F88  2202               	addwfc	___almod@dividend+1,f,c
  4826  001F8A  2203               	addwfc	___almod@dividend+2,f,c
  4827  001F8C  2204               	addwfc	___almod@dividend+3,f,c
  4828  001F8E  0E01               	movlw	1
  4829  001F90  6E0A               	movwf	___almod@sign,c
  4830  001F92                     l2591:
  4831  001F92  5008               	movf	___almod@divisor+3,w,c
  4832  001F94  0A80               	xorlw	128
  4833  001F96  0F80               	addlw	128
  4834  001F98  E108               	bnz	u1805
  4835  001F9A  0E00               	movlw	0
  4836  001F9C  5C07               	subwf	___almod@divisor+2,w,c
  4837  001F9E  E105               	bnz	u1805
  4838  001FA0  0E00               	movlw	0
  4839  001FA2  5C06               	subwf	___almod@divisor+1,w,c
  4840  001FA4  E102               	bnz	u1805
  4841  001FA6  0E00               	movlw	0
  4842  001FA8  5C05               	subwf	___almod@divisor,w,c
  4843  001FAA                     u1805:
  4844  001FAA  B0D8               	btfsc	status,0,c
  4845  001FAC  D008               	goto	l2595
  4846  001FAE  1E08               	comf	___almod@divisor+3,f,c
  4847  001FB0  1E07               	comf	___almod@divisor+2,f,c
  4848  001FB2  1E06               	comf	___almod@divisor+1,f,c
  4849  001FB4  6C05               	negf	___almod@divisor,c
  4850  001FB6  0E00               	movlw	0
  4851  001FB8  2206               	addwfc	___almod@divisor+1,f,c
  4852  001FBA  2207               	addwfc	___almod@divisor+2,f,c
  4853  001FBC  2208               	addwfc	___almod@divisor+3,f,c
  4854  001FBE                     l2595:
  4855  001FBE  5008               	movf	___almod@divisor+3,w,c
  4856  001FC0  1005               	iorwf	___almod@divisor,w,c
  4857  001FC2  1006               	iorwf	___almod@divisor+1,w,c
  4858  001FC4  1007               	iorwf	___almod@divisor+2,w,c
  4859  001FC6  B4D8               	btfsc	status,2,c
  4860  001FC8  D024               	goto	l2611
  4861  001FCA  0E01               	movlw	1
  4862  001FCC  6E09               	movwf	___almod@counter,c
  4863  001FCE  D006               	goto	l2601
  4864  001FD0                     l2599:
  4865  001FD0  90D8               	bcf	status,0,c
  4866  001FD2  3605               	rlcf	___almod@divisor,f,c
  4867  001FD4  3606               	rlcf	___almod@divisor+1,f,c
  4868  001FD6  3607               	rlcf	___almod@divisor+2,f,c
  4869  001FD8  3608               	rlcf	___almod@divisor+3,f,c
  4870  001FDA  2A09               	incf	___almod@counter,f,c
  4871  001FDC                     l2601:
  4872  001FDC  AE08               	btfss	___almod@divisor+3,7,c
  4873  001FDE  D7F8               	goto	l2599
  4874  001FE0                     l2603:
  4875  001FE0  5005               	movf	___almod@divisor,w,c
  4876  001FE2  5C01               	subwf	___almod@dividend,w,c
  4877  001FE4  5006               	movf	___almod@divisor+1,w,c
  4878  001FE6  5802               	subwfb	___almod@dividend+1,w,c
  4879  001FE8  5007               	movf	___almod@divisor+2,w,c
  4880  001FEA  5803               	subwfb	___almod@dividend+2,w,c
  4881  001FEC  5008               	movf	___almod@divisor+3,w,c
  4882  001FEE  5804               	subwfb	___almod@dividend+3,w,c
  4883  001FF0  A0D8               	btfss	status,0,c
  4884  001FF2  D008               	goto	l2607
  4885  001FF4  5005               	movf	___almod@divisor,w,c
  4886  001FF6  5E01               	subwf	___almod@dividend,f,c
  4887  001FF8  5006               	movf	___almod@divisor+1,w,c
  4888  001FFA  5A02               	subwfb	___almod@dividend+1,f,c
  4889  001FFC  5007               	movf	___almod@divisor+2,w,c
  4890  001FFE  5A03               	subwfb	___almod@dividend+2,f,c
  4891  002000  5008               	movf	___almod@divisor+3,w,c
  4892  002002  5A04               	subwfb	___almod@dividend+3,f,c
  4893  002004                     l2607:
  4894  002004  90D8               	bcf	status,0,c
  4895  002006  3208               	rrcf	___almod@divisor+3,f,c
  4896  002008  3207               	rrcf	___almod@divisor+2,f,c
  4897  00200A  3206               	rrcf	___almod@divisor+1,f,c
  4898  00200C  3205               	rrcf	___almod@divisor,f,c
  4899  00200E  2E09               	decfsz	___almod@counter,f,c
  4900  002010  D7E7               	goto	l2603
  4901  002012                     l2611:
  4902  002012  500A               	movf	___almod@sign,w,c
  4903  002014  B4D8               	btfsc	status,2,c
  4904  002016  D008               	goto	l2615
  4905  002018  1E04               	comf	___almod@dividend+3,f,c
  4906  00201A  1E03               	comf	___almod@dividend+2,f,c
  4907  00201C  1E02               	comf	___almod@dividend+1,f,c
  4908  00201E  6C01               	negf	___almod@dividend,c
  4909  002020  0E00               	movlw	0
  4910  002022  2202               	addwfc	___almod@dividend+1,f,c
  4911  002024  2203               	addwfc	___almod@dividend+2,f,c
  4912  002026  2204               	addwfc	___almod@dividend+3,f,c
  4913  002028                     l2615:
  4914  002028  C001  F001         	movff	___almod@dividend,?___almod
  4915  00202C  C002  F002         	movff	___almod@dividend+1,?___almod+1
  4916  002030  C003  F003         	movff	___almod@dividend+2,?___almod+2
  4917  002034  C004  F004         	movff	___almod@dividend+3,?___almod+3
  4918  002038  0012               	return	
  4919  00203A                     __end_of___almod:
  4920                           	opt stack 0
  4921                           tblptru	equ	0xFF8
  4922                           tblptrh	equ	0xFF7
  4923                           tblptrl	equ	0xFF6
  4924                           tablat	equ	0xFF5
  4925                           prodh	equ	0xFF4
  4926                           prodl	equ	0xFF3
  4927                           intcon2	equ	0xFF1
  4928                           postinc0	equ	0xFEE
  4929                           wreg	equ	0xFE8
  4930                           indf1	equ	0xFE7
  4931                           postinc1	equ	0xFE6
  4932                           postdec1	equ	0xFE5
  4933                           fsr1h	equ	0xFE2
  4934                           fsr1l	equ	0xFE1
  4935                           indf2	equ	0xFDF
  4936                           postinc2	equ	0xFDE
  4937                           postdec2	equ	0xFDD
  4938                           fsr2h	equ	0xFDA
  4939                           fsr2l	equ	0xFD9
  4940                           status	equ	0xFD8
  4941                           
  4942 ;; *************** function ___aldiv *****************
  4943 ;; Defined at:
  4944 ;;		line 8 in file "/opt/microchip/xc8/v1.32/sources/common/aldiv.c"
  4945 ;; Parameters:    Size  Location     Type
  4946 ;;  dividend        4    0[COMRAM] long 
  4947 ;;  divisor         4    4[COMRAM] long 
  4948 ;; Auto vars:     Size  Location     Type
  4949 ;;  quotient        4   10[COMRAM] long 
  4950 ;;  sign            1    9[COMRAM] unsigned char 
  4951 ;;  counter         1    8[COMRAM] unsigned char 
  4952 ;; Return value:  Size  Location     Type
  4953 ;;                  4    0[COMRAM] long 
  4954 ;; Registers used:
  4955 ;;		wreg, status,2, status,0
  4956 ;; Tracked objects:
  4957 ;;		On entry : 0/0
  4958 ;;		On exit  : 0/0
  4959 ;;		Unchanged: 0/0
  4960 ;; Data sizes:     COMRAM   BANK0   BANK1   BANK2   BANK3   BANK4   BANK5   BANK6   BANK7
  4961 ;;      Params:         8       0       0       0       0       0       0       0       0
  4962 ;;      Locals:         6       0       0       0       0       0       0       0       0
  4963 ;;      Temps:          0       0       0       0       0       0       0       0       0
  4964 ;;      Totals:        14       0       0       0       0       0       0       0       0
  4965 ;;Total ram usage:       14 bytes
  4966 ;; Hardware stack levels used:    1
  4967 ;; This function calls:
  4968 ;;		Nothing
  4969 ;; This function is called by:
  4970 ;;		_Conv_Entero
  4971 ;; This function uses a non-reentrant model
  4972 ;;
  4973                           
  4974                           	psect	text14
  4975  001D86                     __ptext14:
  4976                           	opt stack 0
  4977  001D86                     ___aldiv:
  4978                           	opt stack 29
  4979                           
  4980                           ;incstack = 0
  4981  001D86  0E00               	movlw	0
  4982  001D88  6E0A               	movwf	___aldiv@sign,c
  4983  001D8A  5008               	movf	___aldiv@divisor+3,w,c
  4984  001D8C  0A80               	xorlw	128
  4985  001D8E  0F80               	addlw	128
  4986  001D90  E108               	bnz	u1735
  4987  001D92  0E00               	movlw	0
  4988  001D94  5C07               	subwf	___aldiv@divisor+2,w,c
  4989  001D96  E105               	bnz	u1735
  4990  001D98  0E00               	movlw	0
  4991  001D9A  5C06               	subwf	___aldiv@divisor+1,w,c
  4992  001D9C  E102               	bnz	u1735
  4993  001D9E  0E00               	movlw	0
  4994  001DA0  5C05               	subwf	___aldiv@divisor,w,c
  4995  001DA2                     u1735:
  4996  001DA2  B0D8               	btfsc	status,0,c
  4997  001DA4  D00A               	goto	l2547
  4998  001DA6  1E08               	comf	___aldiv@divisor+3,f,c
  4999  001DA8  1E07               	comf	___aldiv@divisor+2,f,c
  5000  001DAA  1E06               	comf	___aldiv@divisor+1,f,c
  5001  001DAC  6C05               	negf	___aldiv@divisor,c
  5002  001DAE  0E00               	movlw	0
  5003  001DB0  2206               	addwfc	___aldiv@divisor+1,f,c
  5004  001DB2  2207               	addwfc	___aldiv@divisor+2,f,c
  5005  001DB4  2208               	addwfc	___aldiv@divisor+3,f,c
  5006  001DB6  0E01               	movlw	1
  5007  001DB8  6E0A               	movwf	___aldiv@sign,c
  5008  001DBA                     l2547:
  5009  001DBA  5004               	movf	___aldiv@dividend+3,w,c
  5010  001DBC  0A80               	xorlw	128
  5011  001DBE  0F80               	addlw	128
  5012  001DC0  E108               	bnz	u1745
  5013  001DC2  0E00               	movlw	0
  5014  001DC4  5C03               	subwf	___aldiv@dividend+2,w,c
  5015  001DC6  E105               	bnz	u1745
  5016  001DC8  0E00               	movlw	0
  5017  001DCA  5C02               	subwf	___aldiv@dividend+1,w,c
  5018  001DCC  E102               	bnz	u1745
  5019  001DCE  0E00               	movlw	0
  5020  001DD0  5C01               	subwf	___aldiv@dividend,w,c
  5021  001DD2                     u1745:
  5022  001DD2  B0D8               	btfsc	status,0,c
  5023  001DD4  D00A               	goto	l2553
  5024  001DD6  1E04               	comf	___aldiv@dividend+3,f,c
  5025  001DD8  1E03               	comf	___aldiv@dividend+2,f,c
  5026  001DDA  1E02               	comf	___aldiv@dividend+1,f,c
  5027  001DDC  6C01               	negf	___aldiv@dividend,c
  5028  001DDE  0E00               	movlw	0
  5029  001DE0  2202               	addwfc	___aldiv@dividend+1,f,c
  5030  001DE2  2203               	addwfc	___aldiv@dividend+2,f,c
  5031  001DE4  2204               	addwfc	___aldiv@dividend+3,f,c
  5032  001DE6  0E01               	movlw	1
  5033  001DE8  1A0A               	xorwf	___aldiv@sign,f,c
  5034  001DEA                     l2553:
  5035  001DEA  0E00               	movlw	0
  5036  001DEC  6E0B               	movwf	___aldiv@quotient,c
  5037  001DEE  0E00               	movlw	0
  5038  001DF0  6E0C               	movwf	___aldiv@quotient+1,c
  5039  001DF2  0E00               	movlw	0
  5040  001DF4  6E0D               	movwf	___aldiv@quotient+2,c
  5041  001DF6  0E00               	movlw	0
  5042  001DF8  6E0E               	movwf	___aldiv@quotient+3,c
  5043  001DFA  5008               	movf	___aldiv@divisor+3,w,c
  5044  001DFC  1005               	iorwf	___aldiv@divisor,w,c
  5045  001DFE  1006               	iorwf	___aldiv@divisor+1,w,c
  5046  001E00  1007               	iorwf	___aldiv@divisor+2,w,c
  5047  001E02  B4D8               	btfsc	status,2,c
  5048  001E04  D02A               	goto	l2575
  5049  001E06  0E01               	movlw	1
  5050  001E08  6E09               	movwf	___aldiv@counter,c
  5051  001E0A  D006               	goto	l2561
  5052  001E0C                     l2559:
  5053  001E0C  90D8               	bcf	status,0,c
  5054  001E0E  3605               	rlcf	___aldiv@divisor,f,c
  5055  001E10  3606               	rlcf	___aldiv@divisor+1,f,c
  5056  001E12  3607               	rlcf	___aldiv@divisor+2,f,c
  5057  001E14  3608               	rlcf	___aldiv@divisor+3,f,c
  5058  001E16  2A09               	incf	___aldiv@counter,f,c
  5059  001E18                     l2561:
  5060  001E18  AE08               	btfss	___aldiv@divisor+3,7,c
  5061  001E1A  D7F8               	goto	l2559
  5062  001E1C                     l2563:
  5063  001E1C  90D8               	bcf	status,0,c
  5064  001E1E  360B               	rlcf	___aldiv@quotient,f,c
  5065  001E20  360C               	rlcf	___aldiv@quotient+1,f,c
  5066  001E22  360D               	rlcf	___aldiv@quotient+2,f,c
  5067  001E24  360E               	rlcf	___aldiv@quotient+3,f,c
  5068  001E26  5005               	movf	___aldiv@divisor,w,c
  5069  001E28  5C01               	subwf	___aldiv@dividend,w,c
  5070  001E2A  5006               	movf	___aldiv@divisor+1,w,c
  5071  001E2C  5802               	subwfb	___aldiv@dividend+1,w,c
  5072  001E2E  5007               	movf	___aldiv@divisor+2,w,c
  5073  001E30  5803               	subwfb	___aldiv@dividend+2,w,c
  5074  001E32  5008               	movf	___aldiv@divisor+3,w,c
  5075  001E34  5804               	subwfb	___aldiv@dividend+3,w,c
  5076  001E36  A0D8               	btfss	status,0,c
  5077  001E38  D009               	goto	l2571
  5078  001E3A  5005               	movf	___aldiv@divisor,w,c
  5079  001E3C  5E01               	subwf	___aldiv@dividend,f,c
  5080  001E3E  5006               	movf	___aldiv@divisor+1,w,c
  5081  001E40  5A02               	subwfb	___aldiv@dividend+1,f,c
  5082  001E42  5007               	movf	___aldiv@divisor+2,w,c
  5083  001E44  5A03               	subwfb	___aldiv@dividend+2,f,c
  5084  001E46  5008               	movf	___aldiv@divisor+3,w,c
  5085  001E48  5A04               	subwfb	___aldiv@dividend+3,f,c
  5086  001E4A  800B               	bsf	___aldiv@quotient,0,c
  5087  001E4C                     l2571:
  5088  001E4C  90D8               	bcf	status,0,c
  5089  001E4E  3208               	rrcf	___aldiv@divisor+3,f,c
  5090  001E50  3207               	rrcf	___aldiv@divisor+2,f,c
  5091  001E52  3206               	rrcf	___aldiv@divisor+1,f,c
  5092  001E54  3205               	rrcf	___aldiv@divisor,f,c
  5093  001E56  2E09               	decfsz	___aldiv@counter,f,c
  5094  001E58  D7E1               	goto	l2563
  5095  001E5A                     l2575:
  5096  001E5A  500A               	movf	___aldiv@sign,w,c
  5097  001E5C  B4D8               	btfsc	status,2,c
  5098  001E5E  D008               	goto	l2579
  5099  001E60  1E0E               	comf	___aldiv@quotient+3,f,c
  5100  001E62  1E0D               	comf	___aldiv@quotient+2,f,c
  5101  001E64  1E0C               	comf	___aldiv@quotient+1,f,c
  5102  001E66  6C0B               	negf	___aldiv@quotient,c
  5103  001E68  0E00               	movlw	0
  5104  001E6A  220C               	addwfc	___aldiv@quotient+1,f,c
  5105  001E6C  220D               	addwfc	___aldiv@quotient+2,f,c
  5106  001E6E  220E               	addwfc	___aldiv@quotient+3,f,c
  5107  001E70                     l2579:
  5108  001E70  C00B  F001         	movff	___aldiv@quotient,?___aldiv
  5109  001E74  C00C  F002         	movff	___aldiv@quotient+1,?___aldiv+1
  5110  001E78  C00D  F003         	movff	___aldiv@quotient+2,?___aldiv+2
  5111  001E7C  C00E  F004         	movff	___aldiv@quotient+3,?___aldiv+3
  5112  001E80  0012               	return	
  5113  001E82                     __end_of___aldiv:
  5114                           	opt stack 0
  5115                           tblptru	equ	0xFF8
  5116                           tblptrh	equ	0xFF7
  5117                           tblptrl	equ	0xFF6
  5118                           tablat	equ	0xFF5
  5119                           prodh	equ	0xFF4
  5120                           prodl	equ	0xFF3
  5121                           intcon2	equ	0xFF1
  5122                           postinc0	equ	0xFEE
  5123                           wreg	equ	0xFE8
  5124                           indf1	equ	0xFE7
  5125                           postinc1	equ	0xFE6
  5126                           postdec1	equ	0xFE5
  5127                           fsr1h	equ	0xFE2
  5128                           fsr1l	equ	0xFE1
  5129                           indf2	equ	0xFDF
  5130                           postinc2	equ	0xFDE
  5131                           postdec2	equ	0xFDD
  5132                           fsr2h	equ	0xFDA
  5133                           fsr2l	equ	0xFD9
  5134                           status	equ	0xFD8
  5135                           
  5136 ;; *************** function _Ciclo *****************
  5137 ;; Defined at:
  5138 ;;		line 76 in file "Funciones.h"
  5139 ;; Parameters:    Size  Location     Type
  5140 ;;  ciclo           2   20[COMRAM] PTR unsigned char 
  5141 ;;		 -> ciclo(10), 
  5142 ;; Auto vars:     Size  Location     Type
  5143 ;;		None
  5144 ;; Return value:  Size  Location     Type
  5145 ;;		None               void
  5146 ;; Registers used:
  5147 ;;		wreg, fsr0l, fsr0h, fsr2l, fsr2h, status,2, status,0, tblptrl, tblptrh, tblptru, cstack
  5148 ;; Tracked objects:
  5149 ;;		On entry : 0/0
  5150 ;;		On exit  : 0/0
  5151 ;;		Unchanged: 0/0
  5152 ;; Data sizes:     COMRAM   BANK0   BANK1   BANK2   BANK3   BANK4   BANK5   BANK6   BANK7
  5153 ;;      Params:         2       0       0       0       0       0       0       0       0
  5154 ;;      Locals:         0       0       0       0       0       0       0       0       0
  5155 ;;      Temps:          0       0       0       0       0       0       0       0       0
  5156 ;;      Totals:         2       0       0       0       0       0       0       0       0
  5157 ;;Total ram usage:        2 bytes
  5158 ;; Hardware stack levels used:    1
  5159 ;; Hardware stack levels required when called:    3
  5160 ;; This function calls:
  5161 ;;		_Lcd_Cmd
  5162 ;;		_Lcd_Init
  5163 ;;		_Lcd_Out2
  5164 ;;		_Tec
  5165 ;; This function is called by:
  5166 ;;		_main
  5167 ;;		_Prueba1
  5168 ;; This function uses a non-reentrant model
  5169 ;;
  5170                           
  5171                           	psect	text15
  5172  00247C                     __ptext15:
  5173                           	opt stack 0
  5174  00247C                     _Ciclo:
  5175                           	opt stack 27
  5176                           
  5177                           ;Funciones.h: 77: Lcd_Init();
  5178                           
  5179                           ;incstack = 0
  5180  00247C  EC7C  F00C         	call	_Lcd_Init	;wreg free
  5181                           
  5182                           ;Funciones.h: 78: Lcd_Cmd(1);
  5183  002480  0E01               	movlw	1
  5184  002482  ECA3  F00D         	call	_Lcd_Cmd
  5185                           
  5186                           ;Funciones.h: 79: Lcd_Cmd(12);
  5187  002486  0E0C               	movlw	12
  5188  002488  ECA3  F00D         	call	_Lcd_Cmd
  5189                           
  5190                           ;Funciones.h: 80: Lcd_Out2(1,1,"Ingrese ciclo");
  5191  00248C  0E01               	movlw	1
  5192  00248E  6E04               	movwf	Lcd_Out2@x,c
  5193  002490  0E08               	movlw	high STR_11
  5194  002492  6E06               	movwf	Lcd_Out2@buffer+1,c
  5195  002494  0E2E               	movlw	low STR_11
  5196  002496  6E05               	movwf	Lcd_Out2@buffer,c
  5197  002498  0E01               	movlw	1
  5198  00249A  ECCF  F010         	call	_Lcd_Out2
  5199                           
  5200                           ;Funciones.h: 81: Tec(ciclo);
  5201  00249E  C016  F00C         	movff	Ciclo@ciclo+1,Tec@cadena+1
  5202  0024A2  C015  F00B         	movff	Ciclo@ciclo,Tec@cadena
  5203  0024A6  EC10  F00D         	call	_Tec	;wreg free
  5204  0024AA  0012               	return	
  5205  0024AC                     __end_of_Ciclo:
  5206                           	opt stack 0
  5207                           tblptru	equ	0xFF8
  5208                           tblptrh	equ	0xFF7
  5209                           tblptrl	equ	0xFF6
  5210                           tablat	equ	0xFF5
  5211                           prodh	equ	0xFF4
  5212                           prodl	equ	0xFF3
  5213                           intcon2	equ	0xFF1
  5214                           postinc0	equ	0xFEE
  5215                           wreg	equ	0xFE8
  5216                           indf1	equ	0xFE7
  5217                           postinc1	equ	0xFE6
  5218                           postdec1	equ	0xFE5
  5219                           fsr1h	equ	0xFE2
  5220                           fsr1l	equ	0xFE1
  5221                           indf2	equ	0xFDF
  5222                           postinc2	equ	0xFDE
  5223                           postdec2	equ	0xFDD
  5224                           fsr2h	equ	0xFDA
  5225                           fsr2l	equ	0xFD9
  5226                           status	equ	0xFD8
  5227                           
  5228 ;; *************** function _Tec *****************
  5229 ;; Defined at:
  5230 ;;		line 83 in file "Funciones.h"
  5231 ;; Parameters:    Size  Location     Type
  5232 ;;  cadena          2   10[COMRAM] PTR unsigned char 
  5233 ;;		 -> ciclo(10), frecuencia(10), 
  5234 ;; Auto vars:     Size  Location     Type
  5235 ;;  j               2   17[COMRAM] unsigned int 
  5236 ;;  contador        2   15[COMRAM] unsigned int 
  5237 ;;  i               2   12[COMRAM] unsigned int 
  5238 ;;  Key             1   19[COMRAM] unsigned char 
  5239 ;;  aux             1   14[COMRAM] unsigned char 
  5240 ;; Return value:  Size  Location     Type
  5241 ;;		None               void
  5242 ;; Registers used:
  5243 ;;		wreg, fsr2l, fsr2h, status,2, status,0, cstack
  5244 ;; Tracked objects:
  5245 ;;		On entry : 0/0
  5246 ;;		On exit  : 0/0
  5247 ;;		Unchanged: 0/0
  5248 ;; Data sizes:     COMRAM   BANK0   BANK1   BANK2   BANK3   BANK4   BANK5   BANK6   BANK7
  5249 ;;      Params:         2       0       0       0       0       0       0       0       0
  5250 ;;      Locals:         8       0       0       0       0       0       0       0       0
  5251 ;;      Temps:          0       0       0       0       0       0       0       0       0
  5252 ;;      Totals:        10       0       0       0       0       0       0       0       0
  5253 ;;Total ram usage:       10 bytes
  5254 ;; Hardware stack levels used:    1
  5255 ;; Hardware stack levels required when called:    2
  5256 ;; This function calls:
  5257 ;;		_Lcd_Chr_CP
  5258 ;;		_Recuperar
  5259 ;;		_lcd_goto
  5260 ;; This function is called by:
  5261 ;;		_Frecuencia
  5262 ;;		_Ciclo
  5263 ;; This function uses a non-reentrant model
  5264 ;;
  5265                           
  5266                           	psect	text16
  5267  001A20                     __ptext16:
  5268                           	opt stack 0
  5269  001A20                     _Tec:
  5270                           	opt stack 27
  5271                           
  5272                           ;Funciones.h: 85: unsigned char Key = '+' , aux;
  5273                           
  5274                           ;incstack = 0
  5275  001A20  0E2B               	movlw	43
  5276  001A22  6E14               	movwf	Tec@Key,c
  5277                           
  5278                           ;Funciones.h: 86: unsigned int i=0 , j=0, contador = 1;
  5279  001A24  0E00               	movlw	0
  5280  001A26  6E0E               	movwf	Tec@i+1,c
  5281  001A28  0E00               	movlw	0
  5282  001A2A  6E0D               	movwf	Tec@i,c
  5283  001A2C  0E00               	movlw	0
  5284  001A2E  6E13               	movwf	Tec@j+1,c
  5285  001A30  0E00               	movlw	0
  5286  001A32  6E12               	movwf	Tec@j,c
  5287  001A34  0E00               	movlw	0
  5288  001A36  6E11               	movwf	Tec@contador+1,c
  5289  001A38  0E01               	movlw	1
  5290  001A3A  6E10               	movwf	Tec@contador,c
  5291                           
  5292                           ;Funciones.h: 88: lcd_goto(contador,2);
  5293  001A3C  C010  F004         	movff	Tec@contador,lcd_goto@x
  5294  001A40  C011  F005         	movff	Tec@contador+1,lcd_goto@x+1
  5295  001A44  0E00               	movlw	0
  5296  001A46  6E07               	movwf	lcd_goto@y+1,c
  5297  001A48  0E02               	movlw	2
  5298  001A4A  6E06               	movwf	lcd_goto@y,c
  5299  001A4C  ECE1  F011         	call	_lcd_goto	;wreg free
  5300  001A50                     l2469:
  5301                           
  5302                           ;Funciones.h: 92: Key = Recuperar();
  5303  001A50  EC79  F012         	call	_Recuperar	;wreg free
  5304  001A54  6E14               	movwf	Tec@Key,c
  5305                           
  5306                           ;Funciones.h: 93: if( Key == ' ')continue;
  5307  001A56  5014               	movf	Tec@Key,w,c
  5308  001A58  0A20               	xorlw	32
  5309  001A5A  B4D8               	btfsc	status,2,c
  5310  001A5C  D7F9               	goto	l2469
  5311                           
  5312                           ;Funciones.h: 94: if( Key == '*')break;
  5313  001A5E  5014               	movf	Tec@Key,w,c
  5314  001A60  0A2A               	xorlw	42
  5315  001A62  B4D8               	btfsc	status,2,c
  5316  001A64  D067               	goto	l2521
  5317                           
  5318                           ;Funciones.h: 95: if(Key == 'B') {
  5319  001A66  5014               	movf	Tec@Key,w,c
  5320  001A68  0A42               	xorlw	66
  5321  001A6A  A4D8               	btfss	status,2,c
  5322  001A6C  D017               	goto	l2487
  5323                           
  5324                           ;Funciones.h: 96: lcd_goto(--contador,2);
  5325  001A6E  0610               	decf	Tec@contador,f,c
  5326  001A70  A0D8               	btfss	status,0,c
  5327  001A72  0611               	decf	Tec@contador+1,f,c
  5328  001A74  C010  F004         	movff	Tec@contador,lcd_goto@x
  5329  001A78  C011  F005         	movff	Tec@contador+1,lcd_goto@x+1
  5330  001A7C  0E00               	movlw	0
  5331  001A7E  6E07               	movwf	lcd_goto@y+1,c
  5332  001A80  0E02               	movlw	2
  5333  001A82  6E06               	movwf	lcd_goto@y,c
  5334  001A84  ECE1  F011         	call	_lcd_goto	;wreg free
  5335                           
  5336                           ;Funciones.h: 97: if(j!= 0) j--;
  5337  001A88  5013               	movf	Tec@j+1,w,c
  5338  001A8A  1012               	iorwf	Tec@j,w,c
  5339  001A8C  B4D8               	btfsc	status,2,c
  5340  001A8E  D003               	goto	l2485
  5341  001A90  0612               	decf	Tec@j,f,c
  5342  001A92  A0D8               	btfss	status,0,c
  5343  001A94  0613               	decf	Tec@j+1,f,c
  5344  001A96                     l2485:
  5345                           
  5346                           ;Funciones.h: 98: aux = '\0';
  5347  001A96  0E00               	movlw	0
  5348  001A98  6E0F               	movwf	Tec@aux,c
  5349                           
  5350                           ;Funciones.h: 99: continue;
  5351  001A9A  D7DA               	goto	l2469
  5352  001A9C                     l2487:
  5353                           
  5354                           ;Funciones.h: 101: }
  5355                           ;Funciones.h: 102: if(Key == aux){
  5356  001A9C  500F               	movf	Tec@aux,w,c
  5357  001A9E  6214               	cpfseq	Tec@Key,c
  5358  001AA0  D021               	goto	l2501
  5359                           
  5360                           ;Funciones.h: 104: if(Key!='#')
  5361  001AA2  5014               	movf	Tec@Key,w,c
  5362  001AA4  0A23               	xorlw	35
  5363  001AA6  B4D8               	btfsc	status,2,c
  5364  001AA8  D006               	goto	l2493
  5365                           
  5366                           ;Funciones.h: 105: contador --,j--;
  5367  001AAA  0610               	decf	Tec@contador,f,c
  5368  001AAC  A0D8               	btfss	status,0,c
  5369  001AAE  0611               	decf	Tec@contador+1,f,c
  5370  001AB0  0612               	decf	Tec@j,f,c
  5371  001AB2  A0D8               	btfss	status,0,c
  5372  001AB4  0613               	decf	Tec@j+1,f,c
  5373  001AB6                     l2493:
  5374                           
  5375                           ;Funciones.h: 106: lcd_goto(contador++,2);
  5376  001AB6  C010  F004         	movff	Tec@contador,lcd_goto@x
  5377  001ABA  C011  F005         	movff	Tec@contador+1,lcd_goto@x+1
  5378  001ABE  0E00               	movlw	0
  5379  001AC0  6E07               	movwf	lcd_goto@y+1,c
  5380  001AC2  0E02               	movlw	2
  5381  001AC4  6E06               	movwf	lcd_goto@y,c
  5382  001AC6  ECE1  F011         	call	_lcd_goto	;wreg free
  5383  001ACA  4A10               	infsnz	Tec@contador,f,c
  5384  001ACC  2A11               	incf	Tec@contador+1,f,c
  5385                           
  5386                           ;Funciones.h: 107: cadena[j++]=Key;
  5387  001ACE  5012               	movf	Tec@j,w,c
  5388  001AD0  240B               	addwf	Tec@cadena,w,c
  5389  001AD2  6ED9               	movwf	fsr2l,c
  5390  001AD4  5013               	movf	Tec@j+1,w,c
  5391  001AD6  200C               	addwfc	Tec@cadena+1,w,c
  5392  001AD8  6EDA               	movwf	fsr2h,c
  5393  001ADA  C014  FFDF         	movff	Tec@Key,indf2
  5394  001ADE  4A12               	infsnz	Tec@j,f,c
  5395  001AE0  2A13               	incf	Tec@j+1,f,c
  5396                           
  5397                           ;Funciones.h: 108: continue;
  5398  001AE2  D7B6               	goto	l2469
  5399  001AE4                     l2501:
  5400                           
  5401                           ;Funciones.h: 109: }
  5402                           ;Funciones.h: 110: i = 0;
  5403  001AE4  0E00               	movlw	0
  5404  001AE6  6E0E               	movwf	Tec@i+1,c
  5405  001AE8  0E00               	movlw	0
  5406  001AEA  6E0D               	movwf	Tec@i,c
  5407                           
  5408                           ;Funciones.h: 112: if(Key == '#' && Key!=aux ){
  5409  001AEC  5014               	movf	Tec@Key,w,c
  5410  001AEE  0A23               	xorlw	35
  5411  001AF0  A4D8               	btfss	status,2,c
  5412  001AF2  D004               	goto	l2509
  5413  001AF4  5014               	movf	Tec@Key,w,c
  5414  001AF6  180F               	xorwf	Tec@aux,w,c
  5415  001AF8  A4D8               	btfss	status,2,c
  5416  001AFA  D019               	goto	L7
  5417  001AFC                     l2509:
  5418                           
  5419                           ;Funciones.h: 115: }
  5420                           ;Funciones.h: 116: lcd_goto(contador,2);
  5421  001AFC  C010  F004         	movff	Tec@contador,lcd_goto@x
  5422  001B00  C011  F005         	movff	Tec@contador+1,lcd_goto@x+1
  5423  001B04  0E00               	movlw	0
  5424  001B06  6E07               	movwf	lcd_goto@y+1,c
  5425  001B08  0E02               	movlw	2
  5426  001B0A  6E06               	movwf	lcd_goto@y,c
  5427  001B0C  ECE1  F011         	call	_lcd_goto	;wreg free
  5428                           
  5429                           ;Funciones.h: 117: cadena[j++]=Key;
  5430  001B10  5012               	movf	Tec@j,w,c
  5431  001B12  240B               	addwf	Tec@cadena,w,c
  5432  001B14  6ED9               	movwf	fsr2l,c
  5433  001B16  5013               	movf	Tec@j+1,w,c
  5434  001B18  200C               	addwfc	Tec@cadena+1,w,c
  5435  001B1A  6EDA               	movwf	fsr2h,c
  5436  001B1C  C014  FFDF         	movff	Tec@Key,indf2
  5437  001B20  4A12               	infsnz	Tec@j,f,c
  5438  001B22  2A13               	incf	Tec@j+1,f,c
  5439                           
  5440                           ;Funciones.h: 118: Lcd_Chr_CP(Key);
  5441  001B24  5014               	movf	Tec@Key,w,c
  5442  001B26  ECE6  F00B         	call	_Lcd_Chr_CP
  5443                           
  5444                           ;Funciones.h: 119: contador++;
  5445  001B2A  4A10               	infsnz	Tec@contador,f,c
  5446  001B2C  2A11               	incf	Tec@contador+1,f,c
  5447  001B2E                     L7:
  5448                           
  5449                           ;Funciones.h: 120: aux=Key;
  5450  001B2E  C014  F00F         	movff	Tec@Key,Tec@aux
  5451  001B32  D78E               	goto	l2469
  5452  001B34                     l2521:
  5453                           
  5454                           ;Funciones.h: 122: cadena[j] = '\0';
  5455  001B34  5012               	movf	Tec@j,w,c
  5456  001B36  240B               	addwf	Tec@cadena,w,c
  5457  001B38  6ED9               	movwf	fsr2l,c
  5458  001B3A  5013               	movf	Tec@j+1,w,c
  5459  001B3C  200C               	addwfc	Tec@cadena+1,w,c
  5460  001B3E  6EDA               	movwf	fsr2h,c
  5461  001B40  0E00               	movlw	0
  5462  001B42  6EDF               	movwf	indf2,c
  5463  001B44  0012               	return	
  5464  001B46                     __end_of_Tec:
  5465                           	opt stack 0
  5466                           tblptru	equ	0xFF8
  5467                           tblptrh	equ	0xFF7
  5468                           tblptrl	equ	0xFF6
  5469                           tablat	equ	0xFF5
  5470                           prodh	equ	0xFF4
  5471                           prodl	equ	0xFF3
  5472                           intcon2	equ	0xFF1
  5473                           postinc0	equ	0xFEE
  5474                           wreg	equ	0xFE8
  5475                           indf1	equ	0xFE7
  5476                           postinc1	equ	0xFE6
  5477                           postdec1	equ	0xFE5
  5478                           fsr1h	equ	0xFE2
  5479                           fsr1l	equ	0xFE1
  5480                           indf2	equ	0xFDF
  5481                           postinc2	equ	0xFDE
  5482                           postdec2	equ	0xFDD
  5483                           fsr2h	equ	0xFDA
  5484                           fsr2l	equ	0xFD9
  5485                           status	equ	0xFD8
  5486                           
  5487 ;; *************** function _lcd_goto *****************
  5488 ;; Defined at:
  5489 ;;		line 161 in file "pantalla.h"
  5490 ;; Parameters:    Size  Location     Type
  5491 ;;  x               2    3[COMRAM] int 
  5492 ;;  y               2    5[COMRAM] int 
  5493 ;; Auto vars:     Size  Location     Type
  5494 ;;  data            1    9[COMRAM] unsigned char 
  5495 ;; Return value:  Size  Location     Type
  5496 ;;		None               void
  5497 ;; Registers used:
  5498 ;;		wreg, status,2, status,0, cstack
  5499 ;; Tracked objects:
  5500 ;;		On entry : 0/0
  5501 ;;		On exit  : 0/0
  5502 ;;		Unchanged: 0/0
  5503 ;; Data sizes:     COMRAM   BANK0   BANK1   BANK2   BANK3   BANK4   BANK5   BANK6   BANK7
  5504 ;;      Params:         4       0       0       0       0       0       0       0       0
  5505 ;;      Locals:         1       0       0       0       0       0       0       0       0
  5506 ;;      Temps:          2       0       0       0       0       0       0       0       0
  5507 ;;      Totals:         7       0       0       0       0       0       0       0       0
  5508 ;;Total ram usage:        7 bytes
  5509 ;; Hardware stack levels used:    1
  5510 ;; Hardware stack levels required when called:    1
  5511 ;; This function calls:
  5512 ;;		_Lcd_Cmd
  5513 ;; This function is called by:
  5514 ;;		_Tec
  5515 ;; This function uses a non-reentrant model
  5516 ;;
  5517                           
  5518                           	psect	text17
  5519  0023C2                     __ptext17:
  5520                           	opt stack 0
  5521  0023C2                     _lcd_goto:
  5522                           	opt stack 27
  5523                           
  5524                           ;pantalla.h: 162: unsigned char data;
  5525                           ;pantalla.h: 163: switch (y) {
  5526                           
  5527                           ;incstack = 0
  5528  0023C2  D00D               	goto	l2391
  5529  0023C4                     l2381:
  5530  0023C4  5004               	movf	lcd_goto@x,w,c
  5531  0023C6  0F80               	addlw	128
  5532  0023C8  D008               	goto	L10
  5533  0023CA                     l2383:
  5534  0023CA  5004               	movf	lcd_goto@x,w,c
  5535  0023CC  0FC0               	addlw	192
  5536  0023CE  D005               	goto	L10
  5537  0023D0                     l2385:
  5538  0023D0  5004               	movf	lcd_goto@x,w,c
  5539  0023D2  0F94               	addlw	148
  5540  0023D4  D002               	goto	L10
  5541  0023D6                     l2387:
  5542  0023D6  5004               	movf	lcd_goto@x,w,c
  5543  0023D8  0FD4               	addlw	212
  5544  0023DA                     L10:
  5545  0023DA  6E0A               	movwf	lcd_goto@data,c
  5546  0023DC  D015               	goto	l2393
  5547  0023DE                     l2391:
  5548  0023DE  C006  F008         	movff	lcd_goto@y,??_lcd_goto
  5549  0023E2  C007  F009         	movff	lcd_goto@y+1,??_lcd_goto+1
  5550                           
  5551                           ; Switch on 2 bytes has been partitioned into a top level switch of size 1, and 1 sub-sw
      +                          itches
  5552                           ; Switch size 1, requested type "space"
  5553                           ; Number of cases is 1, Range of values is 0 to 0
  5554                           ; switch strategies available:
  5555                           ; Name         Instructions Cycles
  5556                           ; simple_byte            4     3 (average)
  5557                           ;	Chosen strategy is simple_byte
  5558  0023E6  5009               	movf	??_lcd_goto+1,w,c
  5559  0023E8  0A00               	xorlw	0	; case 0
  5560  0023EA  A4D8               	btfss	status,2,c
  5561  0023EC  D00D               	goto	l2393
  5562                           
  5563                           ; Switch size 1, requested type "space"
  5564                           ; Number of cases is 4, Range of values is 1 to 4
  5565                           ; switch strategies available:
  5566                           ; Name         Instructions Cycles
  5567                           ; simple_byte           13     7 (average)
  5568                           ;	Chosen strategy is simple_byte
  5569  0023EE  5008               	movf	??_lcd_goto,w,c
  5570  0023F0  0A01               	xorlw	1	; case 1
  5571  0023F2  B4D8               	btfsc	status,2,c
  5572  0023F4  D7E7               	goto	l2381
  5573  0023F6  0A03               	xorlw	3	; case 2
  5574  0023F8  B4D8               	btfsc	status,2,c
  5575  0023FA  D7E7               	goto	l2383
  5576  0023FC  0A01               	xorlw	1	; case 3
  5577  0023FE  B4D8               	btfsc	status,2,c
  5578  002400  D7E7               	goto	l2385
  5579  002402  0A07               	xorlw	7	; case 4
  5580  002404  B4D8               	btfsc	status,2,c
  5581  002406  D7E7               	goto	l2387
  5582  002408                     l2393:
  5583                           
  5584                           ;pantalla.h: 170: Lcd_Cmd(data);
  5585  002408  500A               	movf	lcd_goto@data,w,c
  5586  00240A  ECA3  F00D         	call	_Lcd_Cmd
  5587  00240E  0012               	return	
  5588  002410                     __end_of_lcd_goto:
  5589                           	opt stack 0
  5590                           tblptru	equ	0xFF8
  5591                           tblptrh	equ	0xFF7
  5592                           tblptrl	equ	0xFF6
  5593                           tablat	equ	0xFF5
  5594                           prodh	equ	0xFF4
  5595                           prodl	equ	0xFF3
  5596                           intcon2	equ	0xFF1
  5597                           postinc0	equ	0xFEE
  5598                           wreg	equ	0xFE8
  5599                           indf1	equ	0xFE7
  5600                           postinc1	equ	0xFE6
  5601                           postdec1	equ	0xFE5
  5602                           fsr1h	equ	0xFE2
  5603                           fsr1l	equ	0xFE1
  5604                           indf2	equ	0xFDF
  5605                           postinc2	equ	0xFDE
  5606                           postdec2	equ	0xFDD
  5607                           fsr2h	equ	0xFDA
  5608                           fsr2l	equ	0xFD9
  5609                           status	equ	0xFD8
  5610                           
  5611 ;; *************** function _Recuperar *****************
  5612 ;; Defined at:
  5613 ;;		line 56 in file "teclado.c"
  5614 ;; Parameters:    Size  Location     Type
  5615 ;;		None
  5616 ;; Auto vars:     Size  Location     Type
  5617 ;;  tecl            1    0[COMRAM] unsigned char 
  5618 ;; Return value:  Size  Location     Type
  5619 ;;                  1    wreg      unsigned char 
  5620 ;; Registers used:
  5621 ;;		wreg, status,2, cstack
  5622 ;; Tracked objects:
  5623 ;;		On entry : 0/0
  5624 ;;		On exit  : 0/0
  5625 ;;		Unchanged: 0/0
  5626 ;; Data sizes:     COMRAM   BANK0   BANK1   BANK2   BANK3   BANK4   BANK5   BANK6   BANK7
  5627 ;;      Params:         0       0       0       0       0       0       0       0       0
  5628 ;;      Locals:         1       0       0       0       0       0       0       0       0
  5629 ;;      Temps:          0       0       0       0       0       0       0       0       0
  5630 ;;      Totals:         1       0       0       0       0       0       0       0       0
  5631 ;;Total ram usage:        1 bytes
  5632 ;; Hardware stack levels used:    1
  5633 ;; Hardware stack levels required when called:    1
  5634 ;; This function calls:
  5635 ;;		_Teclado
  5636 ;; This function is called by:
  5637 ;;		_Tec
  5638 ;;		_Imprimir_pantalla
  5639 ;;		_main
  5640 ;;		_Menu
  5641 ;; This function uses a non-reentrant model
  5642 ;;
  5643                           
  5644                           	psect	text18
  5645  0024F2                     __ptext18:
  5646                           	opt stack 0
  5647  0024F2                     _Recuperar:
  5648                           	opt stack 29
  5649                           
  5650                           ;teclado.c: 58: char tecl = ' ' ;
  5651                           
  5652                           ;incstack = 0
  5653  0024F2  0E20               	movlw	32
  5654  0024F4  6E01               	movwf	Recuperar@tecl,c
  5655                           
  5656                           ;teclado.c: 60: tecl =Teclado();
  5657  0024F6  EC82  F010         	call	_Teclado	;wreg free
  5658  0024FA  6E01               	movwf	Recuperar@tecl,c
  5659                           
  5660                           ;teclado.c: 62: return tecl;
  5661  0024FC  5001               	movf	Recuperar@tecl,w,c
  5662  0024FE  0012               	return	
  5663  002500                     __end_of_Recuperar:
  5664                           	opt stack 0
  5665                           tblptru	equ	0xFF8
  5666                           tblptrh	equ	0xFF7
  5667                           tblptrl	equ	0xFF6
  5668                           tablat	equ	0xFF5
  5669                           prodh	equ	0xFF4
  5670                           prodl	equ	0xFF3
  5671                           intcon2	equ	0xFF1
  5672                           postinc0	equ	0xFEE
  5673                           wreg	equ	0xFE8
  5674                           indf1	equ	0xFE7
  5675                           postinc1	equ	0xFE6
  5676                           postdec1	equ	0xFE5
  5677                           fsr1h	equ	0xFE2
  5678                           fsr1l	equ	0xFE1
  5679                           indf2	equ	0xFDF
  5680                           postinc2	equ	0xFDE
  5681                           postdec2	equ	0xFDD
  5682                           fsr2h	equ	0xFDA
  5683                           fsr2l	equ	0xFD9
  5684                           status	equ	0xFD8
  5685                           
  5686 ;; *************** function _Teclado *****************
  5687 ;; Defined at:
  5688 ;;		line 19 in file "teclado.c"
  5689 ;; Parameters:    Size  Location     Type
  5690 ;;		None
  5691 ;; Auto vars:     Size  Location     Type
  5692 ;;		None
  5693 ;; Return value:  Size  Location     Type
  5694 ;;                  1    wreg      unsigned char 
  5695 ;; Registers used:
  5696 ;;		wreg, status,2
  5697 ;; Tracked objects:
  5698 ;;		On entry : 0/0
  5699 ;;		On exit  : 0/0
  5700 ;;		Unchanged: 0/0
  5701 ;; Data sizes:     COMRAM   BANK0   BANK1   BANK2   BANK3   BANK4   BANK5   BANK6   BANK7
  5702 ;;      Params:         0       0       0       0       0       0       0       0       0
  5703 ;;      Locals:         0       0       0       0       0       0       0       0       0
  5704 ;;      Temps:          0       0       0       0       0       0       0       0       0
  5705 ;;      Totals:         0       0       0       0       0       0       0       0       0
  5706 ;;Total ram usage:        0 bytes
  5707 ;; Hardware stack levels used:    1
  5708 ;; This function calls:
  5709 ;;		Nothing
  5710 ;; This function is called by:
  5711 ;;		_Recuperar
  5712 ;; This function uses a non-reentrant model
  5713 ;;
  5714                           
  5715                           	psect	text19
  5716  002104                     __ptext19:
  5717                           	opt stack 0
  5718  002104                     _Teclado:
  5719                           	opt stack 29
  5720                           
  5721                           ;teclado.c: 22: TRISB = 0xF0;
  5722                           
  5723                           ;incstack = 0
  5724  002104  0EF0               	movlw	240
  5725  002106  6E93               	movwf	3987,c	;volatile
  5726                           
  5727                           ;teclado.c: 23: PORTB = 0xFF;
  5728  002108  6881               	setf	3969,c	;volatile
  5729                           
  5730                           ;teclado.c: 25: PORTBbits.RB0=0;
  5731  00210A  9081               	bcf	3969,0,c	;volatile
  5732                           
  5733                           ;teclado.c: 26: if(PORTBbits.RB4==0){return '1';}
  5734  00210C  B881               	btfsc	3969,4,c	;volatile
  5735  00210E  D002               	goto	l266
  5736  002110  0E31               	movlw	49
  5737  002112  0012               	return	
  5738  002114                     l266:
  5739                           
  5740                           ;teclado.c: 27: if(PORTBbits.RB5==0){return '2';}
  5741  002114  BA81               	btfsc	3969,5,c	;volatile
  5742  002116  D002               	goto	l268
  5743  002118  0E32               	movlw	50
  5744  00211A  0012               	return	
  5745  00211C                     l268:
  5746                           
  5747                           ;teclado.c: 28: if(PORTBbits.RB6==0){return '3';}
  5748  00211C  BC81               	btfsc	3969,6,c	;volatile
  5749  00211E  D002               	goto	l269
  5750  002120  0E33               	movlw	51
  5751  002122  0012               	return	
  5752  002124                     l269:
  5753                           
  5754                           ;teclado.c: 29: if(PORTBbits.RB7==0){return 'A';}
  5755  002124  BE81               	btfsc	3969,7,c	;volatile
  5756  002126  D002               	goto	l270
  5757  002128  0E41               	movlw	65
  5758  00212A  0012               	return	
  5759  00212C                     l270:
  5760                           
  5761                           ;teclado.c: 30: PORTBbits.RB0=1;
  5762  00212C  8081               	bsf	3969,0,c	;volatile
  5763                           
  5764                           ;teclado.c: 32: PORTBbits.RB1=0;
  5765  00212E  9281               	bcf	3969,1,c	;volatile
  5766                           
  5767                           ;teclado.c: 33: if(PORTBbits.RB4==0){return '4';}
  5768  002130  B881               	btfsc	3969,4,c	;volatile
  5769  002132  D002               	goto	l271
  5770  002134  0E34               	movlw	52
  5771  002136  0012               	return	
  5772  002138                     l271:
  5773                           
  5774                           ;teclado.c: 34: if(PORTBbits.RB5==0){return '5'; }
  5775  002138  BA81               	btfsc	3969,5,c	;volatile
  5776  00213A  D002               	goto	l272
  5777  00213C  0E35               	movlw	53
  5778  00213E  0012               	return	
  5779  002140                     l272:
  5780                           
  5781                           ;teclado.c: 35: if(PORTBbits.RB6==0){return '6';}
  5782  002140  BC81               	btfsc	3969,6,c	;volatile
  5783  002142  D002               	goto	l273
  5784  002144  0E36               	movlw	54
  5785  002146  0012               	return	
  5786  002148                     l273:
  5787                           
  5788                           ;teclado.c: 36: if(PORTBbits.RB7==0){return 'B';}
  5789  002148  BE81               	btfsc	3969,7,c	;volatile
  5790  00214A  D002               	goto	l274
  5791  00214C  0E42               	movlw	66
  5792  00214E  0012               	return	
  5793  002150                     l274:
  5794                           
  5795                           ;teclado.c: 37: PORTBbits.RB1=1;
  5796  002150  8281               	bsf	3969,1,c	;volatile
  5797                           
  5798                           ;teclado.c: 39: PORTBbits.RB2=0;
  5799  002152  9481               	bcf	3969,2,c	;volatile
  5800                           
  5801                           ;teclado.c: 40: if(PORTBbits.RB4==0){return '7';}
  5802  002154  B881               	btfsc	3969,4,c	;volatile
  5803  002156  D002               	goto	l275
  5804  002158  0E37               	movlw	55
  5805  00215A  0012               	return	
  5806  00215C                     l275:
  5807                           
  5808                           ;teclado.c: 41: if(PORTBbits.RB5==0){return '8';}
  5809  00215C  BA81               	btfsc	3969,5,c	;volatile
  5810  00215E  D002               	goto	l276
  5811  002160  0E38               	movlw	56
  5812  002162  0012               	return	
  5813  002164                     l276:
  5814                           
  5815                           ;teclado.c: 42: if(PORTBbits.RB6==0){return '9';}
  5816  002164  BC81               	btfsc	3969,6,c	;volatile
  5817  002166  D002               	goto	l277
  5818  002168  0E39               	movlw	57
  5819  00216A  0012               	return	
  5820  00216C                     l277:
  5821                           
  5822                           ;teclado.c: 43: if(PORTBbits.RB7==0){return 'C';}
  5823  00216C  BE81               	btfsc	3969,7,c	;volatile
  5824  00216E  D002               	goto	l278
  5825  002170  0E43               	movlw	67
  5826  002172  0012               	return	
  5827  002174                     l278:
  5828                           
  5829                           ;teclado.c: 44: PORTBbits.RB2=1;
  5830  002174  8481               	bsf	3969,2,c	;volatile
  5831                           
  5832                           ;teclado.c: 46: PORTBbits.RB3=0;
  5833  002176  9681               	bcf	3969,3,c	;volatile
  5834                           
  5835                           ;teclado.c: 47: if(PORTBbits.RB4==0){return '*';}
  5836  002178  B881               	btfsc	3969,4,c	;volatile
  5837  00217A  D002               	goto	l279
  5838  00217C  0E2A               	movlw	42
  5839  00217E  0012               	return	
  5840  002180                     l279:
  5841                           
  5842                           ;teclado.c: 48: if(PORTBbits.RB5==0){return '0';}
  5843  002180  BA81               	btfsc	3969,5,c	;volatile
  5844  002182  D002               	goto	l280
  5845  002184  0E30               	movlw	48
  5846  002186  0012               	return	
  5847  002188                     l280:
  5848                           
  5849                           ;teclado.c: 49: if(PORTBbits.RB6==0){return '#';}
  5850  002188  BC81               	btfsc	3969,6,c	;volatile
  5851  00218A  D002               	goto	l281
  5852  00218C  0E23               	movlw	35
  5853  00218E  0012               	return	
  5854  002190                     l281:
  5855                           
  5856                           ;teclado.c: 50: if(PORTBbits.RB7==0){return 'D';}
  5857  002190  BE81               	btfsc	3969,7,c	;volatile
  5858  002192  D002               	goto	l282
  5859  002194  0E44               	movlw	68
  5860  002196  0012               	return	
  5861  002198                     l282:
  5862                           
  5863                           ;teclado.c: 51: PORTBbits.RB3=1;
  5864  002198  8681               	bsf	3969,3,c	;volatile
  5865                           
  5866                           ;teclado.c: 53: return ' ';
  5867  00219A  0E20               	movlw	32
  5868  00219C  0012               	return	
  5869  00219E                     __end_of_Teclado:
  5870                           	opt stack 0
  5871                           tblptru	equ	0xFF8
  5872                           tblptrh	equ	0xFF7
  5873                           tblptrl	equ	0xFF6
  5874                           tablat	equ	0xFF5
  5875                           prodh	equ	0xFF4
  5876                           prodl	equ	0xFF3
  5877                           intcon2	equ	0xFF1
  5878                           postinc0	equ	0xFEE
  5879                           wreg	equ	0xFE8
  5880                           indf1	equ	0xFE7
  5881                           postinc1	equ	0xFE6
  5882                           postdec1	equ	0xFE5
  5883                           fsr1h	equ	0xFE2
  5884                           fsr1l	equ	0xFE1
  5885                           indf2	equ	0xFDF
  5886                           postinc2	equ	0xFDE
  5887                           postdec2	equ	0xFDD
  5888                           fsr2h	equ	0xFDA
  5889                           fsr2l	equ	0xFD9
  5890                           status	equ	0xFD8
  5891                           
  5892 ;; *************** function _Lcd_Out2 *****************
  5893 ;; Defined at:
  5894 ;;		line 113 in file "pantalla.h"
  5895 ;; Parameters:    Size  Location     Type
  5896 ;;  y               1    wreg     unsigned char 
  5897 ;;  x               1    3[COMRAM] unsigned char 
  5898 ;;  buffer          2    4[COMRAM] PTR unsigned char 
  5899 ;;		 -> STR_39(6), STR_38(2), STR_37(8), STR_36(3), 
  5900 ;;		 -> STR_35(6), STR_34(9), STR_33(14), STR_32(12), 
  5901 ;;		 -> STR_31(9), STR_30(8), STR_29(11), STR_28(11), 
  5902 ;;		 -> STR_27(11), STR_26(8), STR_25(11), STR_24(11), 
  5903 ;;		 -> STR_23(11), STR_22(14), STR_21(12), STR_20(12), 
  5904 ;;		 -> STR_19(10), STR_18(15), STR_17(11), STR_16(16), 
  5905 ;;		 -> STR_15(2), STR_14(8), STR_13(3), STR_12(6), 
  5906 ;;		 -> ciclo(10), frecuencia(10), STR_11(14), STR_10(12), 
  5907 ;;		 -> STR_9(12), STR_8(9), STR_7(14), STR_6(12), 
  5908 ;;		 -> STR_5(12), STR_4(10), STR_3(15), STR_2(11), 
  5909 ;;		 -> STR_1(16), 
  5910 ;; Auto vars:     Size  Location     Type
  5911 ;;  y               1    6[COMRAM] unsigned char 
  5912 ;;  data            1    7[COMRAM] unsigned char 
  5913 ;; Return value:  Size  Location     Type
  5914 ;;		None               void
  5915 ;; Registers used:
  5916 ;;		wreg, fsr0l, fsr0h, status,2, status,0, tblptrl, tblptrh, tblptru, cstack
  5917 ;; Tracked objects:
  5918 ;;		On entry : 0/0
  5919 ;;		On exit  : 0/0
  5920 ;;		Unchanged: 0/0
  5921 ;; Data sizes:     COMRAM   BANK0   BANK1   BANK2   BANK3   BANK4   BANK5   BANK6   BANK7
  5922 ;;      Params:         3       0       0       0       0       0       0       0       0
  5923 ;;      Locals:         2       0       0       0       0       0       0       0       0
  5924 ;;      Temps:          0       0       0       0       0       0       0       0       0
  5925 ;;      Totals:         5       0       0       0       0       0       0       0       0
  5926 ;;Total ram usage:        5 bytes
  5927 ;; Hardware stack levels used:    1
  5928 ;; Hardware stack levels required when called:    1
  5929 ;; This function calls:
  5930 ;;		_Lcd_Chr_CP
  5931 ;;		_Lcd_Cmd
  5932 ;; This function is called by:
  5933 ;;		_Frecuencia
  5934 ;;		_Ciclo
  5935 ;;		_Imprimir_pantalla
  5936 ;;		_main
  5937 ;;		_Presentacion
  5938 ;;		_Menu
  5939 ;;		_Menu_Pwm
  5940 ;;		_Prueba2
  5941 ;; This function uses a non-reentrant model
  5942 ;;
  5943                           
  5944                           	psect	text20
  5945  00219E                     __ptext20:
  5946                           	opt stack 0
  5947  00219E                     _Lcd_Out2:
  5948                           	opt stack 29
  5949                           
  5950                           ;incstack = 0
  5951                           ;Lcd_Out2@y stored from wreg
  5952  00219E  6E07               	movwf	Lcd_Out2@y,c
  5953                           
  5954                           ;pantalla.h: 115: unsigned char data;
  5955                           ;pantalla.h: 116: switch (y)
  5956  0021A0  D00D               	goto	l2455
  5957  0021A2                     l2445:
  5958  0021A2  5004               	movf	Lcd_Out2@x,w,c
  5959  0021A4  0F80               	addlw	128
  5960  0021A6  D008               	goto	L13
  5961  0021A8                     l2447:
  5962  0021A8  5004               	movf	Lcd_Out2@x,w,c
  5963  0021AA  0FC0               	addlw	192
  5964  0021AC  D005               	goto	L13
  5965  0021AE                     l2449:
  5966  0021AE  5004               	movf	Lcd_Out2@x,w,c
  5967  0021B0  0F94               	addlw	148
  5968  0021B2  D002               	goto	L13
  5969  0021B4                     l2451:
  5970  0021B4  5004               	movf	Lcd_Out2@x,w,c
  5971  0021B6  0FD4               	addlw	212
  5972  0021B8                     L13:
  5973  0021B8  6E08               	movwf	Lcd_Out2@data,c
  5974  0021BA  D00D               	goto	l2457
  5975  0021BC                     l2455:
  5976  0021BC  5007               	movf	Lcd_Out2@y,w,c
  5977                           
  5978                           ; Switch size 1, requested type "space"
  5979                           ; Number of cases is 4, Range of values is 1 to 4
  5980                           ; switch strategies available:
  5981                           ; Name         Instructions Cycles
  5982                           ; simple_byte           13     7 (average)
  5983                           ;	Chosen strategy is simple_byte
  5984  0021BE  0A01               	xorlw	1	; case 1
  5985  0021C0  B4D8               	btfsc	status,2,c
  5986  0021C2  D7EF               	goto	l2445
  5987  0021C4  0A03               	xorlw	3	; case 2
  5988  0021C6  B4D8               	btfsc	status,2,c
  5989  0021C8  D7EF               	goto	l2447
  5990  0021CA  0A01               	xorlw	1	; case 3
  5991  0021CC  B4D8               	btfsc	status,2,c
  5992  0021CE  D7EF               	goto	l2449
  5993  0021D0  0A07               	xorlw	7	; case 4
  5994  0021D2  B4D8               	btfsc	status,2,c
  5995  0021D4  D7EF               	goto	l2451
  5996  0021D6                     l2457:
  5997                           
  5998                           ;pantalla.h: 124: Lcd_Cmd(data);
  5999  0021D6  5008               	movf	Lcd_Out2@data,w,c
  6000  0021D8  ECA3  F00D         	call	_Lcd_Cmd
  6001                           
  6002                           ;pantalla.h: 125: while(*buffer)
  6003  0021DC  D014               	goto	l2463
  6004  0021DE                     l2459:
  6005                           
  6006                           ;pantalla.h: 126: {
  6007                           ;pantalla.h: 127: Lcd_Chr_CP(*buffer);
  6008  0021DE  C005  FFF6         	movff	Lcd_Out2@buffer,tblptrl
  6009  0021E2  C006  FFF7         	movff	Lcd_Out2@buffer+1,tblptrh
  6010  0021E6  6AF8               	clrf	tblptru,c
  6011  0021E8  0E07               	movlw	(high __ramtop+-1)
  6012  0021EA  64F7               	cpfsgt	tblptrh,c
  6013  0021EC  D003               	bra	u1607
  6014  0021EE  0008               	tblrd		*
  6015  0021F0  50F5               	movf	tablat,w,c
  6016  0021F2  D005               	bra	u1600
  6017  0021F4                     u1607:
  6018  0021F4  CFF6 FFE9          	movff	tblptrl,fsr0l
  6019  0021F8  CFF7 FFEA          	movff	tblptrh,fsr0h
  6020  0021FC  50EF               	movf	indf0,w,c
  6021  0021FE                     u1600:
  6022  0021FE  ECE6  F00B         	call	_Lcd_Chr_CP
  6023                           
  6024                           ;pantalla.h: 128: buffer++;
  6025  002202  4A05               	infsnz	Lcd_Out2@buffer,f,c
  6026  002204  2A06               	incf	Lcd_Out2@buffer+1,f,c
  6027  002206                     l2463:
  6028  002206  C005  FFF6         	movff	Lcd_Out2@buffer,tblptrl
  6029  00220A  C006  FFF7         	movff	Lcd_Out2@buffer+1,tblptrh
  6030  00220E  6AF8               	clrf	tblptru,c
  6031  002210  0E07               	movlw	(high __ramtop+-1)
  6032  002212  64F7               	cpfsgt	tblptrh,c
  6033  002214  D003               	bra	u1617
  6034  002216  0008               	tblrd		*
  6035  002218  50F5               	movf	tablat,w,c
  6036  00221A  D005               	bra	u1610
  6037  00221C                     u1617:
  6038  00221C  CFF6 FFE9          	movff	tblptrl,fsr0l
  6039  002220  CFF7 FFEA          	movff	tblptrh,fsr0h
  6040  002224  50EF               	movf	indf0,w,c
  6041  002226                     u1610:
  6042  002226  0900               	iorlw	0
  6043  002228  B4D8               	btfsc	status,2,c
  6044                           
  6045                           ;pantalla.h: 129: }
  6046                           ;pantalla.h: 130: return;
  6047  00222A  0012               	return	
  6048  00222C  D7D8               	goto	l2459
  6049  00222E                     __end_of_Lcd_Out2:
  6050                           	opt stack 0
  6051                           tblptru	equ	0xFF8
  6052                           tblptrh	equ	0xFF7
  6053                           tblptrl	equ	0xFF6
  6054                           tablat	equ	0xFF5
  6055                           prodh	equ	0xFF4
  6056                           prodl	equ	0xFF3
  6057                           intcon2	equ	0xFF1
  6058                           indf0	equ	0xFEF
  6059                           postinc0	equ	0xFEE
  6060                           fsr0h	equ	0xFEA
  6061                           fsr0l	equ	0xFE9
  6062                           wreg	equ	0xFE8
  6063                           indf1	equ	0xFE7
  6064                           postinc1	equ	0xFE6
  6065                           postdec1	equ	0xFE5
  6066                           fsr1h	equ	0xFE2
  6067                           fsr1l	equ	0xFE1
  6068                           indf2	equ	0xFDF
  6069                           postinc2	equ	0xFDE
  6070                           postdec2	equ	0xFDD
  6071                           fsr2h	equ	0xFDA
  6072                           fsr2l	equ	0xFD9
  6073                           status	equ	0xFD8
  6074                           
  6075 ;; *************** function _Lcd_Chr_CP *****************
  6076 ;; Defined at:
  6077 ;;		line 134 in file "pantalla.h"
  6078 ;; Parameters:    Size  Location     Type
  6079 ;;  data            1    wreg     unsigned char 
  6080 ;; Auto vars:     Size  Location     Type
  6081 ;;  data            1    2[COMRAM] unsigned char 
  6082 ;; Return value:  Size  Location     Type
  6083 ;;		None               void
  6084 ;; Registers used:
  6085 ;;		wreg, status,2, status,0
  6086 ;; Tracked objects:
  6087 ;;		On entry : 0/0
  6088 ;;		On exit  : 0/0
  6089 ;;		Unchanged: 0/0
  6090 ;; Data sizes:     COMRAM   BANK0   BANK1   BANK2   BANK3   BANK4   BANK5   BANK6   BANK7
  6091 ;;      Params:         0       0       0       0       0       0       0       0       0
  6092 ;;      Locals:         1       0       0       0       0       0       0       0       0
  6093 ;;      Temps:          2       0       0       0       0       0       0       0       0
  6094 ;;      Totals:         3       0       0       0       0       0       0       0       0
  6095 ;;Total ram usage:        3 bytes
  6096 ;; Hardware stack levels used:    1
  6097 ;; This function calls:
  6098 ;;		Nothing
  6099 ;; This function is called by:
  6100 ;;		_Lcd_Out
  6101 ;;		_Lcd_Out2
  6102 ;;		_Tec
  6103 ;; This function uses a non-reentrant model
  6104 ;;
  6105                           
  6106                           	psect	text21
  6107  0017CC                     __ptext21:
  6108                           	opt stack 0
  6109  0017CC                     _Lcd_Chr_CP:
  6110                           	opt stack 29
  6111                           
  6112                           ;incstack = 0
  6113                           ;Lcd_Chr_CP@data stored from wreg
  6114  0017CC  6E03               	movwf	Lcd_Chr_CP@data,c
  6115                           
  6116                           ;pantalla.h: 135: PORTDbits.RD2 = 0; PORTDbits.RD0 = 1;
  6117  0017CE  9483               	bcf	3971,2,c	;volatile
  6118  0017D0  8083               	bsf	3971,0,c	;volatile
  6119                           
  6120                           ;pantalla.h: 136: PORTDbits.RD7 = (data & 0b10000000)>>7; PORTDbits.RD6 = (data & 0b0100
      +                          0000)>>6;
  6121  0017D2  6A01               	clrf	??_Lcd_Chr_CP& (0+255),c
  6122  0017D4  AE03               	btfss	Lcd_Chr_CP@data,7,c
  6123  0017D6  D001               	bra	u1555
  6124  0017D8  2A01               	incf	??_Lcd_Chr_CP& (0+255),f,c
  6125  0017DA                     u1555:
  6126  0017DA  0E01               	movlw	1
  6127  0017DC  1601               	andwf	??_Lcd_Chr_CP,f,c
  6128  0017DE  3201               	rrcf	??_Lcd_Chr_CP,f,c
  6129  0017E0  3201               	rrcf	??_Lcd_Chr_CP,f,c
  6130  0017E2  5083               	movf	3971,w,c	;volatile
  6131  0017E4  1801               	xorwf	??_Lcd_Chr_CP,w,c
  6132  0017E6  0B7F               	andlw	-129
  6133  0017E8  1801               	xorwf	??_Lcd_Chr_CP,w,c
  6134  0017EA  6E83               	movwf	3971,c	;volatile
  6135  0017EC  C003  F001         	movff	Lcd_Chr_CP@data,??_Lcd_Chr_CP
  6136  0017F0  0E06               	movlw	6
  6137  0017F2  6E02               	movwf	(??_Lcd_Chr_CP+1)& (0+255),c
  6138  0017F4                     u1565:
  6139  0017F4  90D8               	bcf	status,0,c
  6140  0017F6  3201               	rrcf	??_Lcd_Chr_CP,f,c
  6141  0017F8  2E02               	decfsz	(??_Lcd_Chr_CP+1)& (0+255),f,c
  6142  0017FA  D7FC               	goto	u1565
  6143  0017FC  0E01               	movlw	1
  6144  0017FE  1601               	andwf	??_Lcd_Chr_CP,f,c
  6145  001800  3A01               	swapf	??_Lcd_Chr_CP,f,c
  6146  001802  4601               	rlncf	??_Lcd_Chr_CP,f,c
  6147  001804  4601               	rlncf	??_Lcd_Chr_CP,f,c
  6148  001806  5083               	movf	3971,w,c	;volatile
  6149  001808  1801               	xorwf	??_Lcd_Chr_CP,w,c
  6150  00180A  0BBF               	andlw	-65
  6151  00180C  1801               	xorwf	??_Lcd_Chr_CP,w,c
  6152  00180E  6E83               	movwf	3971,c	;volatile
  6153                           
  6154                           ;pantalla.h: 137: PORTDbits.RD5 = (data & 0b00100000)>>5; PORTDbits.RD4 = (data & 0b0001
      +                          0000)>>4;
  6155  001810  C003  F001         	movff	Lcd_Chr_CP@data,??_Lcd_Chr_CP
  6156  001814  0E05               	movlw	5
  6157  001816  6E02               	movwf	(??_Lcd_Chr_CP+1)& (0+255),c
  6158  001818                     u1575:
  6159  001818  90D8               	bcf	status,0,c
  6160  00181A  3201               	rrcf	??_Lcd_Chr_CP,f,c
  6161  00181C  2E02               	decfsz	(??_Lcd_Chr_CP+1)& (0+255),f,c
  6162  00181E  D7FC               	goto	u1575
  6163  001820  0E01               	movlw	1
  6164  001822  1601               	andwf	??_Lcd_Chr_CP,f,c
  6165  001824  3A01               	swapf	??_Lcd_Chr_CP,f,c
  6166  001826  4601               	rlncf	??_Lcd_Chr_CP,f,c
  6167  001828  5083               	movf	3971,w,c	;volatile
  6168  00182A  1801               	xorwf	??_Lcd_Chr_CP,w,c
  6169  00182C  0BDF               	andlw	-33
  6170  00182E  1801               	xorwf	??_Lcd_Chr_CP,w,c
  6171  001830  6E83               	movwf	3971,c	;volatile
  6172  001832  C003  F001         	movff	Lcd_Chr_CP@data,??_Lcd_Chr_CP
  6173  001836  3A01               	swapf	??_Lcd_Chr_CP,f,c
  6174  001838  0E0F               	movlw	15
  6175  00183A  1601               	andwf	??_Lcd_Chr_CP,f,c
  6176  00183C  0E01               	movlw	1
  6177  00183E  1601               	andwf	??_Lcd_Chr_CP,f,c
  6178  001840  3A01               	swapf	??_Lcd_Chr_CP,f,c
  6179  001842  5083               	movf	3971,w,c	;volatile
  6180  001844  1801               	xorwf	??_Lcd_Chr_CP,w,c
  6181  001846  0BEF               	andlw	-17
  6182  001848  1801               	xorwf	??_Lcd_Chr_CP,w,c
  6183  00184A  6E83               	movwf	3971,c	;volatile
  6184                           
  6185                           ;pantalla.h: 138: _delay((unsigned long)((10)*(4000000/4000000.0)));
  6186  00184C  0E03               	movlw	3
  6187  00184E                     u3387:
  6188  00184E  2EE8               	decfsz	wreg,f,c
  6189  001850  D7FE               	goto	u3387
  6190  001852  F000               	nop	
  6191                           
  6192                           ;pantalla.h: 139: PORTDbits.RD2 = 1; _delay((unsigned long)((5)*(4000000/4000000.0))); P
      +                          ORTDbits.RD2 = 0;
  6193  001854  8483               	bsf	3971,2,c	;volatile
  6194  001856  F000               	nop	
  6195  001858  D000               	nop2		;2 cycle nop
  6196  00185A  D000               	nop2		;2 cycle nop
  6197  00185C  9483               	bcf	3971,2,c	;volatile
  6198                           
  6199                           ;pantalla.h: 140: PORTDbits.RD7 = (data & 0b00001000)>>3; PORTDbits.RD6 = (data & 0b0000
      +                          0100)>>2;
  6200  00185E  C003  F001         	movff	Lcd_Chr_CP@data,??_Lcd_Chr_CP
  6201  001862  90D8               	bcf	status,0,c
  6202  001864  3201               	rrcf	??_Lcd_Chr_CP,f,c
  6203  001866  90D8               	bcf	status,0,c
  6204  001868  3201               	rrcf	??_Lcd_Chr_CP,f,c
  6205  00186A  90D8               	bcf	status,0,c
  6206  00186C  3201               	rrcf	??_Lcd_Chr_CP,f,c
  6207  00186E  0E01               	movlw	1
  6208  001870  1601               	andwf	??_Lcd_Chr_CP,f,c
  6209  001872  3201               	rrcf	??_Lcd_Chr_CP,f,c
  6210  001874  3201               	rrcf	??_Lcd_Chr_CP,f,c
  6211  001876  5083               	movf	3971,w,c	;volatile
  6212  001878  1801               	xorwf	??_Lcd_Chr_CP,w,c
  6213  00187A  0B7F               	andlw	-129
  6214  00187C  1801               	xorwf	??_Lcd_Chr_CP,w,c
  6215  00187E  6E83               	movwf	3971,c	;volatile
  6216  001880  C003  F001         	movff	Lcd_Chr_CP@data,??_Lcd_Chr_CP
  6217  001884  90D8               	bcf	status,0,c
  6218  001886  3201               	rrcf	??_Lcd_Chr_CP,f,c
  6219  001888  90D8               	bcf	status,0,c
  6220  00188A  3201               	rrcf	??_Lcd_Chr_CP,f,c
  6221  00188C  0E01               	movlw	1
  6222  00188E  1601               	andwf	??_Lcd_Chr_CP,f,c
  6223  001890  3A01               	swapf	??_Lcd_Chr_CP,f,c
  6224  001892  4601               	rlncf	??_Lcd_Chr_CP,f,c
  6225  001894  4601               	rlncf	??_Lcd_Chr_CP,f,c
  6226  001896  5083               	movf	3971,w,c	;volatile
  6227  001898  1801               	xorwf	??_Lcd_Chr_CP,w,c
  6228  00189A  0BBF               	andlw	-65
  6229  00189C  1801               	xorwf	??_Lcd_Chr_CP,w,c
  6230  00189E  6E83               	movwf	3971,c	;volatile
  6231                           
  6232                           ;pantalla.h: 141: PORTDbits.RD5 = (data & 0b00000010)>>1; PORTDbits.RD4 = (data & 0b0000
      +                          0001);
  6233  0018A0  C003  F001         	movff	Lcd_Chr_CP@data,??_Lcd_Chr_CP
  6234  0018A4  90D8               	bcf	status,0,c
  6235  0018A6  3201               	rrcf	??_Lcd_Chr_CP,f,c
  6236  0018A8  0E01               	movlw	1
  6237  0018AA  1601               	andwf	??_Lcd_Chr_CP,f,c
  6238  0018AC  3A01               	swapf	??_Lcd_Chr_CP,f,c
  6239  0018AE  4601               	rlncf	??_Lcd_Chr_CP,f,c
  6240  0018B0  5083               	movf	3971,w,c	;volatile
  6241  0018B2  1801               	xorwf	??_Lcd_Chr_CP,w,c
  6242  0018B4  0BDF               	andlw	-33
  6243  0018B6  1801               	xorwf	??_Lcd_Chr_CP,w,c
  6244  0018B8  6E83               	movwf	3971,c	;volatile
  6245  0018BA  C003  F001         	movff	Lcd_Chr_CP@data,??_Lcd_Chr_CP
  6246  0018BE  0E01               	movlw	1
  6247  0018C0  1601               	andwf	??_Lcd_Chr_CP,f,c
  6248  0018C2  3A01               	swapf	??_Lcd_Chr_CP,f,c
  6249  0018C4  5083               	movf	3971,w,c	;volatile
  6250  0018C6  1801               	xorwf	??_Lcd_Chr_CP,w,c
  6251  0018C8  0BEF               	andlw	-17
  6252  0018CA  1801               	xorwf	??_Lcd_Chr_CP,w,c
  6253  0018CC  6E83               	movwf	3971,c	;volatile
  6254                           
  6255                           ;pantalla.h: 142: _delay((unsigned long)((10)*(4000000/4000000.0)));
  6256  0018CE  0E03               	movlw	3
  6257  0018D0                     u3397:
  6258  0018D0  2EE8               	decfsz	wreg,f,c
  6259  0018D2  D7FE               	goto	u3397
  6260  0018D4  F000               	nop	
  6261                           
  6262                           ;pantalla.h: 143: PORTDbits.RD2 = 1; _delay((unsigned long)((5)*(4000000/4000000.0))); P
      +                          ORTDbits.RD2 = 0;
  6263  0018D6  8483               	bsf	3971,2,c	;volatile
  6264  0018D8  F000               	nop	
  6265  0018DA  D000               	nop2		;2 cycle nop
  6266  0018DC  D000               	nop2		;2 cycle nop
  6267  0018DE  9483               	bcf	3971,2,c	;volatile
  6268                           
  6269                           ;pantalla.h: 144: _delay((unsigned long)((5)*(4000000/4000000.0))); _delay((unsigned lon
      +                          g)((5500)*(4000000/4000000.0)));
  6270  0018E0  F000               	nop	
  6271  0018E2  D000               	nop2		;2 cycle nop
  6272  0018E4  D000               	nop2		;2 cycle nop
  6273  0018E6  0E08               	movlw	8
  6274  0018E8  6E01               	movwf	??_Lcd_Chr_CP& (0+255),c
  6275  0018EA  0E23               	movlw	35
  6276  0018EC                     u3407:
  6277  0018EC  2EE8               	decfsz	wreg,f,c
  6278  0018EE  D7FE               	goto	u3407
  6279  0018F0  2E01               	decfsz	??_Lcd_Chr_CP& (0+255),f,c
  6280  0018F2  D7FC               	goto	u3407
  6281  0018F4  F000               	nop	
  6282  0018F6  0012               	return	
  6283  0018F8                     __end_of_Lcd_Chr_CP:
  6284                           	opt stack 0
  6285                           tblptru	equ	0xFF8
  6286                           tblptrh	equ	0xFF7
  6287                           tblptrl	equ	0xFF6
  6288                           tablat	equ	0xFF5
  6289                           prodh	equ	0xFF4
  6290                           prodl	equ	0xFF3
  6291                           intcon2	equ	0xFF1
  6292                           indf0	equ	0xFEF
  6293                           postinc0	equ	0xFEE
  6294                           fsr0h	equ	0xFEA
  6295                           fsr0l	equ	0xFE9
  6296                           wreg	equ	0xFE8
  6297                           indf1	equ	0xFE7
  6298                           postinc1	equ	0xFE6
  6299                           postdec1	equ	0xFE5
  6300                           fsr1h	equ	0xFE2
  6301                           fsr1l	equ	0xFE1
  6302                           indf2	equ	0xFDF
  6303                           postinc2	equ	0xFDE
  6304                           postdec2	equ	0xFDD
  6305                           fsr2h	equ	0xFDA
  6306                           fsr2l	equ	0xFD9
  6307                           status	equ	0xFD8
  6308                           
  6309 ;; *************** function _Lcd_Init *****************
  6310 ;; Defined at:
  6311 ;;		line 48 in file "pantalla.h"
  6312 ;; Parameters:    Size  Location     Type
  6313 ;;		None
  6314 ;; Auto vars:     Size  Location     Type
  6315 ;;  data            1    4[COMRAM] unsigned char 
  6316 ;; Return value:  Size  Location     Type
  6317 ;;		None               void
  6318 ;; Registers used:
  6319 ;;		wreg, status,2, status,0, cstack
  6320 ;; Tracked objects:
  6321 ;;		On entry : 0/0
  6322 ;;		On exit  : 0/0
  6323 ;;		Unchanged: 0/0
  6324 ;; Data sizes:     COMRAM   BANK0   BANK1   BANK2   BANK3   BANK4   BANK5   BANK6   BANK7
  6325 ;;      Params:         0       0       0       0       0       0       0       0       0
  6326 ;;      Locals:         1       0       0       0       0       0       0       0       0
  6327 ;;      Temps:          1       0       0       0       0       0       0       0       0
  6328 ;;      Totals:         2       0       0       0       0       0       0       0       0
  6329 ;;Total ram usage:        2 bytes
  6330 ;; Hardware stack levels used:    1
  6331 ;; Hardware stack levels required when called:    1
  6332 ;; This function calls:
  6333 ;;		_Lcd_Cmd
  6334 ;; This function is called by:
  6335 ;;		_Frecuencia
  6336 ;;		_Ciclo
  6337 ;;		_Imprimir_pantalla
  6338 ;;		_main
  6339 ;;		_Presentacion
  6340 ;;		_Menu
  6341 ;;		_Menu_Pwm
  6342 ;;		_Prueba2
  6343 ;; This function uses a non-reentrant model
  6344 ;;
  6345                           
  6346                           	psect	text22
  6347  0018F8                     __ptext22:
  6348                           	opt stack 0
  6349  0018F8                     _Lcd_Init:
  6350                           	opt stack 29
  6351                           
  6352                           ;pantalla.h: 49: unsigned char data;
  6353                           ;pantalla.h: 50: TRISDbits.TRISD7 = 0;
  6354                           
  6355                           ;incstack = 0
  6356  0018F8  9E95               	bcf	3989,7,c	;volatile
  6357                           
  6358                           ;pantalla.h: 51: TRISDbits.TRISD6 = 0;
  6359  0018FA  9C95               	bcf	3989,6,c	;volatile
  6360                           
  6361                           ;pantalla.h: 52: TRISDbits.TRISD5 = 0;
  6362  0018FC  9A95               	bcf	3989,5,c	;volatile
  6363                           
  6364                           ;pantalla.h: 53: TRISDbits.TRISD4 = 0;
  6365  0018FE  9895               	bcf	3989,4,c	;volatile
  6366                           
  6367                           ;pantalla.h: 54: TRISDbits.TRISD2 = 0;
  6368  001900  9495               	bcf	3989,2,c	;volatile
  6369                           
  6370                           ;pantalla.h: 55: TRISDbits.TRISD0 = 0;
  6371  001902  9095               	bcf	3989,0,c	;volatile
  6372                           
  6373                           ;pantalla.h: 56: TRISDbits.TRISD1 = 0;
  6374  001904  9295               	bcf	3989,1,c	;volatile
  6375                           
  6376                           ;pantalla.h: 57: PORTDbits.RD7 = 0;
  6377  001906  9E83               	bcf	3971,7,c	;volatile
  6378                           
  6379                           ;pantalla.h: 58: PORTDbits.RD6 = 0;
  6380  001908  9C83               	bcf	3971,6,c	;volatile
  6381                           
  6382                           ;pantalla.h: 59: PORTDbits.RD5 = 0;
  6383  00190A  9A83               	bcf	3971,5,c	;volatile
  6384                           
  6385                           ;pantalla.h: 60: PORTDbits.RD4 = 0;
  6386  00190C  9883               	bcf	3971,4,c	;volatile
  6387                           
  6388                           ;pantalla.h: 61: PORTDbits.RD2 = 0;
  6389  00190E  9483               	bcf	3971,2,c	;volatile
  6390                           
  6391                           ;pantalla.h: 62: PORTDbits.RD0 = 0;
  6392  001910  9083               	bcf	3971,0,c	;volatile
  6393                           
  6394                           ;pantalla.h: 63: PORTDbits.RD1 = 0;
  6395  001912  9283               	bcf	3971,1,c	;volatile
  6396                           
  6397                           ;pantalla.h: 64: _delay((unsigned long)((5500)*(4000000/4000000.0)));
  6398  001914  0E08               	movlw	8
  6399  001916  6E04               	movwf	??_Lcd_Init& (0+255),c
  6400  001918  0E23               	movlw	35
  6401  00191A                     u3417:
  6402  00191A  2EE8               	decfsz	wreg,f,c
  6403  00191C  D7FE               	goto	u3417
  6404  00191E  2E04               	decfsz	??_Lcd_Init& (0+255),f,c
  6405  001920  D7FC               	goto	u3417
  6406  001922  F000               	nop	
  6407                           
  6408                           ;pantalla.h: 65: _delay((unsigned long)((5500)*(4000000/4000000.0)));
  6409  001924  0E08               	movlw	8
  6410  001926  6E04               	movwf	??_Lcd_Init& (0+255),c
  6411  001928  0E23               	movlw	35
  6412  00192A                     u3427:
  6413  00192A  2EE8               	decfsz	wreg,f,c
  6414  00192C  D7FE               	goto	u3427
  6415  00192E  2E04               	decfsz	??_Lcd_Init& (0+255),f,c
  6416  001930  D7FC               	goto	u3427
  6417  001932  F000               	nop	
  6418                           
  6419                           ;pantalla.h: 66: _delay((unsigned long)((5500)*(4000000/4000000.0)));
  6420  001934  0E08               	movlw	8
  6421  001936  6E04               	movwf	??_Lcd_Init& (0+255),c
  6422  001938  0E23               	movlw	35
  6423  00193A                     u3437:
  6424  00193A  2EE8               	decfsz	wreg,f,c
  6425  00193C  D7FE               	goto	u3437
  6426  00193E  2E04               	decfsz	??_Lcd_Init& (0+255),f,c
  6427  001940  D7FC               	goto	u3437
  6428  001942  F000               	nop	
  6429                           
  6430                           ;pantalla.h: 67: _delay((unsigned long)((5500)*(4000000/4000000.0)));
  6431  001944  0E08               	movlw	8
  6432  001946  6E04               	movwf	??_Lcd_Init& (0+255),c
  6433  001948  0E23               	movlw	35
  6434  00194A                     u3447:
  6435  00194A  2EE8               	decfsz	wreg,f,c
  6436  00194C  D7FE               	goto	u3447
  6437  00194E  2E04               	decfsz	??_Lcd_Init& (0+255),f,c
  6438  001950  D7FC               	goto	u3447
  6439  001952  F000               	nop	
  6440                           
  6441                           ;pantalla.h: 68: _delay((unsigned long)((5500)*(4000000/4000000.0)));
  6442  001954  0E08               	movlw	8
  6443  001956  6E04               	movwf	??_Lcd_Init& (0+255),c
  6444  001958  0E23               	movlw	35
  6445  00195A                     u3457:
  6446  00195A  2EE8               	decfsz	wreg,f,c
  6447  00195C  D7FE               	goto	u3457
  6448  00195E  2E04               	decfsz	??_Lcd_Init& (0+255),f,c
  6449  001960  D7FC               	goto	u3457
  6450  001962  F000               	nop	
  6451                           
  6452                           ;pantalla.h: 69: _delay((unsigned long)((5500)*(4000000/4000000.0)));
  6453  001964  0E08               	movlw	8
  6454  001966  6E04               	movwf	??_Lcd_Init& (0+255),c
  6455  001968  0E23               	movlw	35
  6456  00196A                     u3467:
  6457  00196A  2EE8               	decfsz	wreg,f,c
  6458  00196C  D7FE               	goto	u3467
  6459  00196E  2E04               	decfsz	??_Lcd_Init& (0+255),f,c
  6460  001970  D7FC               	goto	u3467
  6461  001972  F000               	nop	
  6462                           
  6463                           ;pantalla.h: 70: for(data = 1; data < 4; data ++)
  6464  001974  0E01               	movlw	1
  6465  001976  6E05               	movwf	Lcd_Init@data,c
  6466  001978  D01E               	goto	L14
  6467  00197A                     l43:
  6468                           
  6469                           ;pantalla.h: 71: {
  6470                           ;pantalla.h: 72: PORTDbits.RD7 = 0; PORTDbits.RD6 = 0; PORTDbits.RD5 = 1; PORTDbits.RD4 
      +                          = 1; PORTDbits.RD2 = 0;
  6471  00197A  9E83               	bcf	3971,7,c	;volatile
  6472  00197C  9C83               	bcf	3971,6,c	;volatile
  6473  00197E  8A83               	bsf	3971,5,c	;volatile
  6474  001980  8883               	bsf	3971,4,c	;volatile
  6475  001982  9483               	bcf	3971,2,c	;volatile
  6476                           
  6477                           ;pantalla.h: 73: PORTDbits.RD0 = 0; PORTDbits.RD7 = 0; PORTDbits.RD6 = 0; PORTDbits.RD5 
      +                          = 1; PORTDbits.RD4 = 1;
  6478  001984  9083               	bcf	3971,0,c	;volatile
  6479  001986  9E83               	bcf	3971,7,c	;volatile
  6480  001988  9C83               	bcf	3971,6,c	;volatile
  6481  00198A  8A83               	bsf	3971,5,c	;volatile
  6482  00198C  8883               	bsf	3971,4,c	;volatile
  6483                           
  6484                           ;pantalla.h: 74: PORTDbits.RD2 = 1; PORTDbits.RD0 = 0;
  6485  00198E  8483               	bsf	3971,2,c	;volatile
  6486  001990  9083               	bcf	3971,0,c	;volatile
  6487                           
  6488                           ;pantalla.h: 75: _delay((unsigned long)((5)*(4000000/4000000.0)));
  6489  001992  F000               	nop	
  6490  001994  D000               	nop2		;2 cycle nop
  6491  001996  D000               	nop2		;2 cycle nop
  6492                           
  6493                           ;pantalla.h: 76: PORTDbits.RD7 = 0; PORTDbits.RD6 = 0; PORTDbits.RD5 = 1; PORTDbits.RD4 
      +                          = 1; PORTDbits.RD2 = 0;
  6494  001998  9E83               	bcf	3971,7,c	;volatile
  6495  00199A  9C83               	bcf	3971,6,c	;volatile
  6496  00199C  8A83               	bsf	3971,5,c	;volatile
  6497  00199E  8883               	bsf	3971,4,c	;volatile
  6498  0019A0  9483               	bcf	3971,2,c	;volatile
  6499                           
  6500                           ;pantalla.h: 77: PORTDbits.RD0 = 0;
  6501  0019A2  9083               	bcf	3971,0,c	;volatile
  6502                           
  6503                           ;pantalla.h: 78: _delay((unsigned long)((5500)*(4000000/4000000.0)));
  6504  0019A4  0E08               	movlw	8
  6505  0019A6  6E04               	movwf	??_Lcd_Init& (0+255),c
  6506  0019A8  0E23               	movlw	35
  6507  0019AA                     u3477:
  6508  0019AA  2EE8               	decfsz	wreg,f,c
  6509  0019AC  D7FE               	goto	u3477
  6510  0019AE  2E04               	decfsz	??_Lcd_Init& (0+255),f,c
  6511  0019B0  D7FC               	goto	u3477
  6512  0019B2  F000               	nop	
  6513  0019B4  2A05               	incf	Lcd_Init@data,f,c
  6514  0019B6                     L14:
  6515  0019B6  0E03               	movlw	3
  6516  0019B8  6405               	cpfsgt	Lcd_Init@data,c
  6517  0019BA  D7DF               	goto	l43
  6518                           
  6519                           ;pantalla.h: 79: }
  6520                           ;pantalla.h: 80: PORTDbits.RD7 = 0; PORTDbits.RD6 = 0; PORTDbits.RD5 = 1; PORTDbits.RD4 
      +                          = 0; PORTDbits.RD2 = 0; PORTDbits.RD0 = 0;
  6521  0019BC  9E83               	bcf	3971,7,c	;volatile
  6522  0019BE  9C83               	bcf	3971,6,c	;volatile
  6523  0019C0  8A83               	bsf	3971,5,c	;volatile
  6524  0019C2  9883               	bcf	3971,4,c	;volatile
  6525  0019C4  9483               	bcf	3971,2,c	;volatile
  6526  0019C6  9083               	bcf	3971,0,c	;volatile
  6527                           
  6528                           ;pantalla.h: 81: PORTDbits.RD7 = 0; PORTDbits.RD6 = 0; PORTDbits.RD5 = 1; PORTDbits.RD4 
      +                          = 0; PORTDbits.RD2 = 1; PORTDbits.RD0 = 0;
  6529  0019C8  9E83               	bcf	3971,7,c	;volatile
  6530  0019CA  9C83               	bcf	3971,6,c	;volatile
  6531  0019CC  8A83               	bsf	3971,5,c	;volatile
  6532  0019CE  9883               	bcf	3971,4,c	;volatile
  6533  0019D0  8483               	bsf	3971,2,c	;volatile
  6534  0019D2  9083               	bcf	3971,0,c	;volatile
  6535                           
  6536                           ;pantalla.h: 82: _delay((unsigned long)((5)*(4000000/4000000.0)));
  6537  0019D4  F000               	nop	
  6538  0019D6  D000               	nop2		;2 cycle nop
  6539  0019D8  D000               	nop2		;2 cycle nop
  6540                           
  6541                           ;pantalla.h: 83: PORTDbits.RD7 = 0; PORTDbits.RD6 = 0; PORTDbits.RD5 = 1; PORTDbits.RD4 
      +                          = 0; PORTDbits.RD2 = 0; PORTDbits.RD0 = 0;
  6542  0019DA  9E83               	bcf	3971,7,c	;volatile
  6543  0019DC  9C83               	bcf	3971,6,c	;volatile
  6544  0019DE  8A83               	bsf	3971,5,c	;volatile
  6545  0019E0  9883               	bcf	3971,4,c	;volatile
  6546  0019E2  9483               	bcf	3971,2,c	;volatile
  6547  0019E4  9083               	bcf	3971,0,c	;volatile
  6548                           
  6549                           ;pantalla.h: 84: _delay((unsigned long)((5500)*(4000000/4000000.0)));
  6550  0019E6  0E08               	movlw	8
  6551  0019E8  6E04               	movwf	??_Lcd_Init& (0+255),c
  6552  0019EA  0E23               	movlw	35
  6553  0019EC                     u3487:
  6554  0019EC  2EE8               	decfsz	wreg,f,c
  6555  0019EE  D7FE               	goto	u3487
  6556  0019F0  2E04               	decfsz	??_Lcd_Init& (0+255),f,c
  6557  0019F2  D7FC               	goto	u3487
  6558  0019F4  F000               	nop	
  6559                           
  6560                           ;pantalla.h: 85: data = 40; Lcd_Cmd(data);
  6561  0019F6  0E28               	movlw	40
  6562  0019F8  6E05               	movwf	Lcd_Init@data,c
  6563  0019FA  5005               	movf	Lcd_Init@data,w,c
  6564  0019FC  ECA3  F00D         	call	_Lcd_Cmd
  6565                           
  6566                           ;pantalla.h: 86: data = 16; Lcd_Cmd(data);
  6567  001A00  0E10               	movlw	16
  6568  001A02  6E05               	movwf	Lcd_Init@data,c
  6569  001A04  5005               	movf	Lcd_Init@data,w,c
  6570  001A06  ECA3  F00D         	call	_Lcd_Cmd
  6571                           
  6572                           ;pantalla.h: 87: data = 1; Lcd_Cmd(data);
  6573  001A0A  0E01               	movlw	1
  6574  001A0C  6E05               	movwf	Lcd_Init@data,c
  6575  001A0E  5005               	movf	Lcd_Init@data,w,c
  6576  001A10  ECA3  F00D         	call	_Lcd_Cmd
  6577                           
  6578                           ;pantalla.h: 88: data = 15; Lcd_Cmd(data);
  6579  001A14  0E0F               	movlw	15
  6580  001A16  6E05               	movwf	Lcd_Init@data,c
  6581  001A18  5005               	movf	Lcd_Init@data,w,c
  6582  001A1A  ECA3  F00D         	call	_Lcd_Cmd
  6583  001A1E  0012               	return	
  6584  001A20                     __end_of_Lcd_Init:
  6585                           	opt stack 0
  6586                           tblptru	equ	0xFF8
  6587                           tblptrh	equ	0xFF7
  6588                           tblptrl	equ	0xFF6
  6589                           tablat	equ	0xFF5
  6590                           prodh	equ	0xFF4
  6591                           prodl	equ	0xFF3
  6592                           intcon2	equ	0xFF1
  6593                           indf0	equ	0xFEF
  6594                           postinc0	equ	0xFEE
  6595                           fsr0h	equ	0xFEA
  6596                           fsr0l	equ	0xFE9
  6597                           wreg	equ	0xFE8
  6598                           indf1	equ	0xFE7
  6599                           postinc1	equ	0xFE6
  6600                           postdec1	equ	0xFE5
  6601                           fsr1h	equ	0xFE2
  6602                           fsr1l	equ	0xFE1
  6603                           indf2	equ	0xFDF
  6604                           postinc2	equ	0xFDE
  6605                           postdec2	equ	0xFDD
  6606                           fsr2h	equ	0xFDA
  6607                           fsr2l	equ	0xFD9
  6608                           status	equ	0xFD8
  6609                           
  6610 ;; *************** function _Lcd_Cmd *****************
  6611 ;; Defined at:
  6612 ;;		line 148 in file "pantalla.h"
  6613 ;; Parameters:    Size  Location     Type
  6614 ;;  data            1    wreg     unsigned char 
  6615 ;; Auto vars:     Size  Location     Type
  6616 ;;  data            1    2[COMRAM] unsigned char 
  6617 ;; Return value:  Size  Location     Type
  6618 ;;		None               void
  6619 ;; Registers used:
  6620 ;;		wreg, status,2, status,0
  6621 ;; Tracked objects:
  6622 ;;		On entry : 0/0
  6623 ;;		On exit  : 0/0
  6624 ;;		Unchanged: 0/0
  6625 ;; Data sizes:     COMRAM   BANK0   BANK1   BANK2   BANK3   BANK4   BANK5   BANK6   BANK7
  6626 ;;      Params:         0       0       0       0       0       0       0       0       0
  6627 ;;      Locals:         1       0       0       0       0       0       0       0       0
  6628 ;;      Temps:          2       0       0       0       0       0       0       0       0
  6629 ;;      Totals:         3       0       0       0       0       0       0       0       0
  6630 ;;Total ram usage:        3 bytes
  6631 ;; Hardware stack levels used:    1
  6632 ;; This function calls:
  6633 ;;		Nothing
  6634 ;; This function is called by:
  6635 ;;		_Lcd_Init
  6636 ;;		_Lcd_Out
  6637 ;;		_Lcd_Out2
  6638 ;;		_lcd_goto
  6639 ;;		_Frecuencia
  6640 ;;		_Ciclo
  6641 ;;		_Imprimir_pantalla
  6642 ;;		_main
  6643 ;;		_Presentacion
  6644 ;;		_Menu
  6645 ;;		_Menu_Pwm
  6646 ;;		_Prueba2
  6647 ;; This function uses a non-reentrant model
  6648 ;;
  6649                           
  6650                           	psect	text23
  6651  001B46                     __ptext23:
  6652                           	opt stack 0
  6653  001B46                     _Lcd_Cmd:
  6654                           	opt stack 29
  6655                           
  6656                           ;incstack = 0
  6657                           ;Lcd_Cmd@data stored from wreg
  6658  001B46  6E03               	movwf	Lcd_Cmd@data,c
  6659                           
  6660                           ;pantalla.h: 149: PORTDbits.RD2 = 0; PORTDbits.RD0 = 0;
  6661  001B48  9483               	bcf	3971,2,c	;volatile
  6662  001B4A  9083               	bcf	3971,0,c	;volatile
  6663                           
  6664                           ;pantalla.h: 150: PORTDbits.RD7 = (data & 0b10000000)>>7; PORTDbits.RD6 = (data & 0b0100
      +                          0000)>>6;
  6665  001B4C  6A01               	clrf	??_Lcd_Cmd& (0+255),c
  6666  001B4E  AE03               	btfss	Lcd_Cmd@data,7,c
  6667  001B50  D001               	bra	u1365
  6668  001B52  2A01               	incf	??_Lcd_Cmd& (0+255),f,c
  6669  001B54                     u1365:
  6670  001B54  0E01               	movlw	1
  6671  001B56  1601               	andwf	??_Lcd_Cmd,f,c
  6672  001B58  3201               	rrcf	??_Lcd_Cmd,f,c
  6673  001B5A  3201               	rrcf	??_Lcd_Cmd,f,c
  6674  001B5C  5083               	movf	3971,w,c	;volatile
  6675  001B5E  1801               	xorwf	??_Lcd_Cmd,w,c
  6676  001B60  0B7F               	andlw	-129
  6677  001B62  1801               	xorwf	??_Lcd_Cmd,w,c
  6678  001B64  6E83               	movwf	3971,c	;volatile
  6679  001B66  C003  F001         	movff	Lcd_Cmd@data,??_Lcd_Cmd
  6680  001B6A  0E06               	movlw	6
  6681  001B6C  6E02               	movwf	(??_Lcd_Cmd+1)& (0+255),c
  6682  001B6E                     u1375:
  6683  001B6E  90D8               	bcf	status,0,c
  6684  001B70  3201               	rrcf	??_Lcd_Cmd,f,c
  6685  001B72  2E02               	decfsz	(??_Lcd_Cmd+1)& (0+255),f,c
  6686  001B74  D7FC               	goto	u1375
  6687  001B76  0E01               	movlw	1
  6688  001B78  1601               	andwf	??_Lcd_Cmd,f,c
  6689  001B7A  3A01               	swapf	??_Lcd_Cmd,f,c
  6690  001B7C  4601               	rlncf	??_Lcd_Cmd,f,c
  6691  001B7E  4601               	rlncf	??_Lcd_Cmd,f,c
  6692  001B80  5083               	movf	3971,w,c	;volatile
  6693  001B82  1801               	xorwf	??_Lcd_Cmd,w,c
  6694  001B84  0BBF               	andlw	-65
  6695  001B86  1801               	xorwf	??_Lcd_Cmd,w,c
  6696  001B88  6E83               	movwf	3971,c	;volatile
  6697                           
  6698                           ;pantalla.h: 151: PORTDbits.RD5 = (data & 0b00100000)>>5; PORTDbits.RD4 = (data & 0b0001
      +                          0000)>>4;
  6699  001B8A  C003  F001         	movff	Lcd_Cmd@data,??_Lcd_Cmd
  6700  001B8E  0E05               	movlw	5
  6701  001B90  6E02               	movwf	(??_Lcd_Cmd+1)& (0+255),c
  6702  001B92                     u1385:
  6703  001B92  90D8               	bcf	status,0,c
  6704  001B94  3201               	rrcf	??_Lcd_Cmd,f,c
  6705  001B96  2E02               	decfsz	(??_Lcd_Cmd+1)& (0+255),f,c
  6706  001B98  D7FC               	goto	u1385
  6707  001B9A  0E01               	movlw	1
  6708  001B9C  1601               	andwf	??_Lcd_Cmd,f,c
  6709  001B9E  3A01               	swapf	??_Lcd_Cmd,f,c
  6710  001BA0  4601               	rlncf	??_Lcd_Cmd,f,c
  6711  001BA2  5083               	movf	3971,w,c	;volatile
  6712  001BA4  1801               	xorwf	??_Lcd_Cmd,w,c
  6713  001BA6  0BDF               	andlw	-33
  6714  001BA8  1801               	xorwf	??_Lcd_Cmd,w,c
  6715  001BAA  6E83               	movwf	3971,c	;volatile
  6716  001BAC  C003  F001         	movff	Lcd_Cmd@data,??_Lcd_Cmd
  6717  001BB0  3A01               	swapf	??_Lcd_Cmd,f,c
  6718  001BB2  0E0F               	movlw	15
  6719  001BB4  1601               	andwf	??_Lcd_Cmd,f,c
  6720  001BB6  0E01               	movlw	1
  6721  001BB8  1601               	andwf	??_Lcd_Cmd,f,c
  6722  001BBA  3A01               	swapf	??_Lcd_Cmd,f,c
  6723  001BBC  5083               	movf	3971,w,c	;volatile
  6724  001BBE  1801               	xorwf	??_Lcd_Cmd,w,c
  6725  001BC0  0BEF               	andlw	-17
  6726  001BC2  1801               	xorwf	??_Lcd_Cmd,w,c
  6727  001BC4  6E83               	movwf	3971,c	;volatile
  6728                           
  6729                           ;pantalla.h: 152: _delay((unsigned long)((10)*(4000000/4000000.0)));
  6730  001BC6  0E03               	movlw	3
  6731  001BC8                     u3497:
  6732  001BC8  2EE8               	decfsz	wreg,f,c
  6733  001BCA  D7FE               	goto	u3497
  6734  001BCC  F000               	nop	
  6735                           
  6736                           ;pantalla.h: 153: PORTDbits.RD2 = 1; _delay((unsigned long)((5)*(4000000/4000000.0))); P
      +                          ORTDbits.RD2 = 0;
  6737  001BCE  8483               	bsf	3971,2,c	;volatile
  6738  001BD0  F000               	nop	
  6739  001BD2  D000               	nop2		;2 cycle nop
  6740  001BD4  D000               	nop2		;2 cycle nop
  6741  001BD6  9483               	bcf	3971,2,c	;volatile
  6742                           
  6743                           ;pantalla.h: 154: PORTDbits.RD7 = (data & 0b00001000)>>3; PORTDbits.RD6 = (data & 0b0000
      +                          0100)>>2;
  6744  001BD8  C003  F001         	movff	Lcd_Cmd@data,??_Lcd_Cmd
  6745  001BDC  90D8               	bcf	status,0,c
  6746  001BDE  3201               	rrcf	??_Lcd_Cmd,f,c
  6747  001BE0  90D8               	bcf	status,0,c
  6748  001BE2  3201               	rrcf	??_Lcd_Cmd,f,c
  6749  001BE4  90D8               	bcf	status,0,c
  6750  001BE6  3201               	rrcf	??_Lcd_Cmd,f,c
  6751  001BE8  0E01               	movlw	1
  6752  001BEA  1601               	andwf	??_Lcd_Cmd,f,c
  6753  001BEC  3201               	rrcf	??_Lcd_Cmd,f,c
  6754  001BEE  3201               	rrcf	??_Lcd_Cmd,f,c
  6755  001BF0  5083               	movf	3971,w,c	;volatile
  6756  001BF2  1801               	xorwf	??_Lcd_Cmd,w,c
  6757  001BF4  0B7F               	andlw	-129
  6758  001BF6  1801               	xorwf	??_Lcd_Cmd,w,c
  6759  001BF8  6E83               	movwf	3971,c	;volatile
  6760  001BFA  C003  F001         	movff	Lcd_Cmd@data,??_Lcd_Cmd
  6761  001BFE  90D8               	bcf	status,0,c
  6762  001C00  3201               	rrcf	??_Lcd_Cmd,f,c
  6763  001C02  90D8               	bcf	status,0,c
  6764  001C04  3201               	rrcf	??_Lcd_Cmd,f,c
  6765  001C06  0E01               	movlw	1
  6766  001C08  1601               	andwf	??_Lcd_Cmd,f,c
  6767  001C0A  3A01               	swapf	??_Lcd_Cmd,f,c
  6768  001C0C  4601               	rlncf	??_Lcd_Cmd,f,c
  6769  001C0E  4601               	rlncf	??_Lcd_Cmd,f,c
  6770  001C10  5083               	movf	3971,w,c	;volatile
  6771  001C12  1801               	xorwf	??_Lcd_Cmd,w,c
  6772  001C14  0BBF               	andlw	-65
  6773  001C16  1801               	xorwf	??_Lcd_Cmd,w,c
  6774  001C18  6E83               	movwf	3971,c	;volatile
  6775                           
  6776                           ;pantalla.h: 155: PORTDbits.RD5 = (data & 0b00000010)>>1; PORTDbits.RD4 = (data & 0b0000
      +                          0001);
  6777  001C1A  C003  F001         	movff	Lcd_Cmd@data,??_Lcd_Cmd
  6778  001C1E  90D8               	bcf	status,0,c
  6779  001C20  3201               	rrcf	??_Lcd_Cmd,f,c
  6780  001C22  0E01               	movlw	1
  6781  001C24  1601               	andwf	??_Lcd_Cmd,f,c
  6782  001C26  3A01               	swapf	??_Lcd_Cmd,f,c
  6783  001C28  4601               	rlncf	??_Lcd_Cmd,f,c
  6784  001C2A  5083               	movf	3971,w,c	;volatile
  6785  001C2C  1801               	xorwf	??_Lcd_Cmd,w,c
  6786  001C2E  0BDF               	andlw	-33
  6787  001C30  1801               	xorwf	??_Lcd_Cmd,w,c
  6788  001C32  6E83               	movwf	3971,c	;volatile
  6789  001C34  C003  F001         	movff	Lcd_Cmd@data,??_Lcd_Cmd
  6790  001C38  0E01               	movlw	1
  6791  001C3A  1601               	andwf	??_Lcd_Cmd,f,c
  6792  001C3C  3A01               	swapf	??_Lcd_Cmd,f,c
  6793  001C3E  5083               	movf	3971,w,c	;volatile
  6794  001C40  1801               	xorwf	??_Lcd_Cmd,w,c
  6795  001C42  0BEF               	andlw	-17
  6796  001C44  1801               	xorwf	??_Lcd_Cmd,w,c
  6797  001C46  6E83               	movwf	3971,c	;volatile
  6798                           
  6799                           ;pantalla.h: 156: _delay((unsigned long)((10)*(4000000/4000000.0)));;
  6800  001C48  0E03               	movlw	3
  6801  001C4A                     u3507:
  6802  001C4A  2EE8               	decfsz	wreg,f,c
  6803  001C4C  D7FE               	goto	u3507
  6804  001C4E  F000               	nop	
  6805                           
  6806                           ;pantalla.h: 157: PORTDbits.RD2 = 1; _delay((unsigned long)((5)*(4000000/4000000.0))); P
      +                          ORTDbits.RD2 = 0;
  6807  001C50  8483               	bsf	3971,2,c	;volatile
  6808  001C52  F000               	nop	
  6809  001C54  D000               	nop2		;2 cycle nop
  6810  001C56  D000               	nop2		;2 cycle nop
  6811  001C58  9483               	bcf	3971,2,c	;volatile
  6812                           
  6813                           ;pantalla.h: 158: _delay((unsigned long)((5500)*(4000000/4000000.0)));
  6814  001C5A  0E08               	movlw	8
  6815  001C5C  6E01               	movwf	??_Lcd_Cmd& (0+255),c
  6816  001C5E  0E23               	movlw	35
  6817  001C60                     u3517:
  6818  001C60  2EE8               	decfsz	wreg,f,c
  6819  001C62  D7FE               	goto	u3517
  6820  001C64  2E01               	decfsz	??_Lcd_Cmd& (0+255),f,c
  6821  001C66  D7FC               	goto	u3517
  6822  001C68  F000               	nop	
  6823  001C6A  0012               	return	
  6824  001C6C                     __end_of_Lcd_Cmd:
  6825                           	opt stack 0
  6826                           tblptru	equ	0xFF8
  6827                           tblptrh	equ	0xFF7
  6828                           tblptrl	equ	0xFF6
  6829                           tablat	equ	0xFF5
  6830                           prodh	equ	0xFF4
  6831                           prodl	equ	0xFF3
  6832                           intcon2	equ	0xFF1
  6833                           indf0	equ	0xFEF
  6834                           postinc0	equ	0xFEE
  6835                           fsr0h	equ	0xFEA
  6836                           fsr0l	equ	0xFE9
  6837                           wreg	equ	0xFE8
  6838                           indf1	equ	0xFE7
  6839                           postinc1	equ	0xFE6
  6840                           postdec1	equ	0xFE5
  6841                           fsr1h	equ	0xFE2
  6842                           fsr1l	equ	0xFE1
  6843                           indf2	equ	0xFDF
  6844                           postinc2	equ	0xFDE
  6845                           postdec2	equ	0xFDD
  6846                           fsr2h	equ	0xFDA
  6847                           fsr2l	equ	0xFD9
  6848                           status	equ	0xFD8
  6849                           tblptru	equ	0xFF8
  6850                           tblptrh	equ	0xFF7
  6851                           tblptrl	equ	0xFF6
  6852                           tablat	equ	0xFF5
  6853                           prodh	equ	0xFF4
  6854                           prodl	equ	0xFF3
  6855                           intcon2	equ	0xFF1
  6856                           indf0	equ	0xFEF
  6857                           postinc0	equ	0xFEE
  6858                           fsr0h	equ	0xFEA
  6859                           fsr0l	equ	0xFE9
  6860                           wreg	equ	0xFE8
  6861                           indf1	equ	0xFE7
  6862                           postinc1	equ	0xFE6
  6863                           postdec1	equ	0xFE5
  6864                           fsr1h	equ	0xFE2
  6865                           fsr1l	equ	0xFE1
  6866                           indf2	equ	0xFDF
  6867                           postinc2	equ	0xFDE
  6868                           postdec2	equ	0xFDD
  6869                           fsr2h	equ	0xFDA
  6870                           fsr2l	equ	0xFD9
  6871                           status	equ	0xFD8
  6872                           
  6873                           	psect	rparam
  6874  0000                     tblptru	equ	0xFF8
  6875                           tblptrh	equ	0xFF7
  6876                           tblptrl	equ	0xFF6
  6877                           tablat	equ	0xFF5
  6878                           prodh	equ	0xFF4
  6879                           prodl	equ	0xFF3
  6880                           intcon2	equ	0xFF1
  6881                           indf0	equ	0xFEF
  6882                           postinc0	equ	0xFEE
  6883                           fsr0h	equ	0xFEA
  6884                           fsr0l	equ	0xFE9
  6885                           wreg	equ	0xFE8
  6886                           indf1	equ	0xFE7
  6887                           postinc1	equ	0xFE6
  6888                           postdec1	equ	0xFE5
  6889                           fsr1h	equ	0xFE2
  6890                           fsr1l	equ	0xFE1
  6891                           indf2	equ	0xFDF
  6892                           postinc2	equ	0xFDE
  6893                           postdec2	equ	0xFDD
  6894                           fsr2h	equ	0xFDA
  6895                           fsr2l	equ	0xFD9
  6896                           status	equ	0xFD8


Data Sizes:
    Strings     226
    Constant    0
    Data        222
    BSS         62
    Persistent  0
    Stack       0

Auto Spaces:
    Space          Size  Autos    Used
    COMRAM           95     60      84
    BANK0           160    111     151
    BANK1           256      0     220
    BANK2           256      0       0
    BANK3           256      0       0
    BANK4           256      0       0
    BANK5           256      0       0
    BANK6           256      0       0
    BANK7           256      0       0

Pointer List with Targets:

    atoi@s	PTR const unsigned char  size(2) Largest target is 10
		 -> ciclo(BANK0[10]), frecuencia(BANK0[10]), 

    Conv_Entero@conv	PTR unsigned char  size(2) Largest target is 10
		 -> cadena(BANK0[10]), 

    Conv_Entero@punteroActual	PTR unsigned char  size(2) Largest target is 21
		 -> Conv_Entero@convTemp(COMRAM[21]), 

    Imprimir_pantalla@N	PTR unsigned char  size(2) Largest target is 10
		 -> ciclo(BANK0[10]), frecuencia(BANK0[10]), 

    Tec@cadena	PTR unsigned char  size(2) Largest target is 10
		 -> ciclo(BANK0[10]), frecuencia(BANK0[10]), 

    Ciclo@ciclo	PTR unsigned char  size(2) Largest target is 10
		 -> ciclo(BANK0[10]), 

    Frecuencia@frecuencia	PTR unsigned char  size(2) Largest target is 10
		 -> frecuencia(BANK0[10]), 

    Lcd_Out2@buffer	PTR unsigned char  size(2) Largest target is 16
		 -> STR_39(CODE[6]), STR_38(CODE[2]), STR_37(CODE[8]), STR_36(CODE[3]), 
		 -> STR_35(CODE[6]), STR_34(CODE[9]), STR_33(CODE[14]), STR_32(CODE[12]), 
		 -> STR_31(CODE[9]), STR_30(CODE[8]), STR_29(CODE[11]), STR_28(CODE[11]), 
		 -> STR_27(CODE[11]), STR_26(CODE[8]), STR_25(CODE[11]), STR_24(CODE[11]), 
		 -> STR_23(CODE[11]), STR_22(CODE[14]), STR_21(CODE[12]), STR_20(CODE[12]), 
		 -> STR_19(CODE[10]), STR_18(CODE[15]), STR_17(CODE[11]), STR_16(CODE[16]), 
		 -> STR_15(CODE[2]), STR_14(CODE[8]), STR_13(CODE[3]), STR_12(CODE[6]), 
		 -> ciclo(BANK0[10]), frecuencia(BANK0[10]), STR_11(CODE[14]), STR_10(CODE[12]), 
		 -> STR_9(CODE[12]), STR_8(CODE[9]), STR_7(CODE[14]), STR_6(CODE[12]), 
		 -> STR_5(CODE[12]), STR_4(CODE[10]), STR_3(CODE[15]), STR_2(CODE[11]), 
		 -> STR_1(CODE[16]), 

    Lcd_Out@buffer	PTR const unsigned char  size(2) Largest target is 10
		 -> cadena(BANK0[10]), 


Critical Paths under _main in COMRAM

    _main->_Conv_Entero
    _atoi->___wmul
    _PWM_generar->___lldiv
    _Lcd_Out->_Lcd_Chr_CP
    _Lcd_Out->_Lcd_Cmd
    _Imprimir_pantalla->_Lcd_Out2
    _Frecuencia->_Tec
    _Conv_Entero->___aldiv
    _Ciclo->_Tec
    _Tec->_lcd_goto
    _lcd_goto->_Lcd_Cmd
    _Lcd_Out2->_Lcd_Chr_CP
    _Lcd_Out2->_Lcd_Cmd
    _Lcd_Init->_Lcd_Cmd

Critical Paths under _main in BANK0

    None.

Critical Paths under _main in BANK1

    None.

Critical Paths under _main in BANK2

    None.

Critical Paths under _main in BANK3

    None.

Critical Paths under _main in BANK4

    None.

Critical Paths under _main in BANK5

    None.

Critical Paths under _main in BANK6

    None.

Critical Paths under _main in BANK7

    None.

Call Graph Tables:

 ---------------------------------------------------------------------------------
 (Depth) Function   	        Calls       Base Space   Used Autos Params    Refs
 ---------------------------------------------------------------------------------
 (0) _main                                               116   116      0   35206
                                             55 COMRAM     5     5      0
                                              0 BANK0    111   111      0
                              _Ciclo
                        _Conv_Entero
                         _Frecuencia
                  _Imprimir_pantalla
                            _Lcd_Cmd
                           _Lcd_Init
                            _Lcd_Out
                           _Lcd_Out2
                        _PWM_generar
                          _Recuperar
                               _atoi
                        _int_teclado
 ---------------------------------------------------------------------------------
 (1) _int_teclado                                          0     0      0       0
 ---------------------------------------------------------------------------------
 (1) _atoi                                                 7     5      2     839
                                              6 COMRAM     7     5      2
                             ___wmul
                            _isdigit
 ---------------------------------------------------------------------------------
 (2) _isdigit                                              3     3      0      68
                                              0 COMRAM     3     3      0
 ---------------------------------------------------------------------------------
 (2) ___wmul                                               6     2      4     287
                                              0 COMRAM     6     2      4
 ---------------------------------------------------------------------------------
 (1) _PWM_generar                                         20    16      4    1536
                                             13 COMRAM    20    16      4
                            ___lldiv
                             ___lmul
 ---------------------------------------------------------------------------------
 (2) ___lldiv                                             13     5      8     418
                                              0 COMRAM    13     5      8
 ---------------------------------------------------------------------------------
 (1) _Lcd_Out                                              5     2      3    1045
                                              3 COMRAM     5     2      3
                         _Lcd_Chr_CP
                            _Lcd_Cmd
 ---------------------------------------------------------------------------------
 (1) _Imprimir_pantalla                                    4     2      2    6447
                                              8 COMRAM     4     2      2
                            _Lcd_Cmd
                           _Lcd_Init
                           _Lcd_Out2
                          _Recuperar
                              _tm_1s
 ---------------------------------------------------------------------------------
 (2) _tm_1s                                                1     1      0       0
                                              0 COMRAM     1     1      0
 ---------------------------------------------------------------------------------
 (1) _Frecuencia                                           2     0      2    8011
                                             20 COMRAM     2     0      2
                            _Lcd_Cmd
                           _Lcd_Init
                           _Lcd_Out2
                                _Tec
 ---------------------------------------------------------------------------------
 (1) _Conv_Entero                                         41    35      6    2273
                                             14 COMRAM    41    35      6
                            ___aldiv
                            ___almod
                             ___lmul
 ---------------------------------------------------------------------------------
 (2) ___lmul                                              12     4      8     450
                                              0 COMRAM    12     4      8
 ---------------------------------------------------------------------------------
 (2) ___almod                                             10     2      8     424
                                              0 COMRAM    10     2      8
 ---------------------------------------------------------------------------------
 (2) ___aldiv                                             14     6      8     428
                                              0 COMRAM    14     6      8
 ---------------------------------------------------------------------------------
 (1) _Ciclo                                                2     0      2    8011
                                             20 COMRAM     2     0      2
                            _Lcd_Cmd
                           _Lcd_Init
                           _Lcd_Out2
                                _Tec
 ---------------------------------------------------------------------------------
 (2) _Tec                                                 10     8      2    1718
                                             10 COMRAM    10     8      2
                         _Lcd_Chr_CP
                          _Recuperar
                           _lcd_goto
 ---------------------------------------------------------------------------------
 (3) _lcd_goto                                             7     3      4     824
                                              3 COMRAM     7     3      4
                            _Lcd_Cmd
 ---------------------------------------------------------------------------------
 (1) _Recuperar                                            1     1      0      24
                                              0 COMRAM     1     1      0
                            _Teclado
 ---------------------------------------------------------------------------------
 (2) _Teclado                                              0     0      0       0
 ---------------------------------------------------------------------------------
 (1) _Lcd_Out2                                             5     2      3    5653
                                              3 COMRAM     5     2      3
                         _Lcd_Chr_CP
                            _Lcd_Cmd
 ---------------------------------------------------------------------------------
 (2) _Lcd_Chr_CP                                           3     3      0     176
                                              0 COMRAM     3     3      0
 ---------------------------------------------------------------------------------
 (1) _Lcd_Init                                             2     2      0     314
                                              3 COMRAM     2     2      0
                            _Lcd_Cmd
 ---------------------------------------------------------------------------------
 (2) _Lcd_Cmd                                              3     3      0     176
                                              0 COMRAM     3     3      0
 ---------------------------------------------------------------------------------
 Estimated maximum stack depth 3
 ---------------------------------------------------------------------------------

 Call Graph Graphs:

 _main (ROOT)
   _Ciclo
     _Lcd_Cmd
     _Lcd_Init
       _Lcd_Cmd
     _Lcd_Out2
       _Lcd_Chr_CP
       _Lcd_Cmd
     _Tec
       _Lcd_Chr_CP
       _Recuperar
         _Teclado
       _lcd_goto
         _Lcd_Cmd
   _Conv_Entero
     ___aldiv
     ___almod
     ___lmul
   _Frecuencia
     _Lcd_Cmd
     _Lcd_Init
       _Lcd_Cmd
     _Lcd_Out2
       _Lcd_Chr_CP
       _Lcd_Cmd
     _Tec
       _Lcd_Chr_CP
       _Recuperar
         _Teclado
       _lcd_goto
         _Lcd_Cmd
   _Imprimir_pantalla
     _Lcd_Cmd
     _Lcd_Init
       _Lcd_Cmd
     _Lcd_Out2
       _Lcd_Chr_CP
       _Lcd_Cmd
     _Recuperar
       _Teclado
     _tm_1s
   _Lcd_Cmd
   _Lcd_Init
     _Lcd_Cmd
   _Lcd_Out
     _Lcd_Chr_CP
     _Lcd_Cmd
   _Lcd_Out2
     _Lcd_Chr_CP
     _Lcd_Cmd
   _PWM_generar
     ___lldiv
     ___lmul
   _Recuperar
     _Teclado
   _atoi
     ___wmul
     _isdigit
   _int_teclado

 Address spaces:
Name               Size   Autos  Total    Cost      Usage
BIGRAM             7FF      0       0      21        0.0%
EEDATA             100      0       0       0        0.0%
BITBANK7           100      0       0      19        0.0%
BANK7              100      0       0      20        0.0%
BITBANK6           100      0       0      17        0.0%
BANK6              100      0       0      18        0.0%
BITBANK5           100      0       0      15        0.0%
BANK5              100      0       0      16        0.0%
BITBANK4           100      0       0      13        0.0%
BANK4              100      0       0      14        0.0%
BITBANK3           100      0       0      11        0.0%
BANK3              100      0       0      12        0.0%
BITBANK2           100      0       0       9        0.0%
BANK2              100      0       0      10        0.0%
BITBANK1           100      0       0       7        0.0%
BANK1              100      0      DC       8       85.9%
BITBANK0            A0      0       0       4        0.0%
BANK0               A0     6F      97       5       94.4%
BITCOMRAM           5F      0       0       0        0.0%
COMRAM              5F     3C      54       1       88.4%
BITSFR_1             0      0       0      40        0.0%
SFR_1                0      0       0      40        0.0%
BITSFR               0      0       0      40        0.0%
SFR                  0      0       0      40        0.0%
STACK                0      0       0       2        0.0%
NULL                 0      0       0       0        0.0%
ABS                  0      0     1C7       6        0.0%
DATA                 0      0     1C7       3        0.0%
CODE                 0      0       0       0        0.0%


Microchip Technology PIC18 Macro Assembler V1.32 build 58300 
Symbol Table                                                                                   Mon May 13 20:36:04 2019

                         _a 0053                           _d 0047                           _e 0049  
                         _f 004B                           _g 004D                           _q 00CF  
                         _r 00D1                           _s 00D3                           _t 00D5  
                         _w 00D7                          l43 197A         ___wmul@multiplicand 0003  
              __CFG_CP0$OFF 000000                __CFG_CP1$OFF 000000                __CFG_CP2$OFF 000000  
              __CFG_CP3$OFF 000000           PWM_generar@PR2cal 001A                         l270 212C  
                       l271 2138                         l280 2188                         l272 2140  
                       l184 0C5E                         l281 2190                         l273 2148  
                       l282 2198                         l274 2150                         l266 2114  
                       l275 215C                         l187 0CF0                         l276 2164  
                       l268 211C                         l277 216C                         l269 2124  
                       l278 2174                         l279 2180                         l538 20FA  
                       l825 229E                __CFG_CPB$OFF 000000                         _PR2 000FBB  
              __CFG_CPD$OFF 000000                         _Tec 1A20                         _cad 003D  
                       _key 0052                         wreg 000FE8                __CFG_LVP$OFF 000000  
                      ?_Tec 000B                        l3111 0E0A                        l3041 0BD6  
                      l3131 0E5C                        l3115 0E20                        l2501 1AE4  
                      l3213 0FD6                        l3109 0E00                        l3117 0E2A  
                      l3063 0C32                        l2521 1B34                        l2601 1FDC  
                      l3313 12A2                        l3321 12CA                        l3233 1044  
                      l3081 0CF8                        l3073 0C66                        l2451 21B4  
                      l2603 1FE0                        l2611 2012                        l2531 237C  
                      l3251 10AE                        l2445 21A2                        l2381 23C4  
                      l2509 1AFC                        l2463 2206                        l2447 21A8  
                      l2455 21BC                        l2383 23CA                        l2391 23DE  
                      l2615 2028                        l2607 2004                        l2535 2390  
                      l3335 130C                        l3327 12E6                        l3319 12C0  
                      l3263 1104                        l3191 0F7A                        l3175 0F2C  
                      l2449 21AE                        l2457 21D6                        l2385 23D0  
                      l2393 2408                        l2561 1E18                        l2553 1DEA  
                      l2641 2260                        l2721 208E                        l2705 203C  
                      l3281 117A                        l3265 110E                        l3329 12F0  
                      l3193 0F84                        l3337 1318                        l2459 21DE  
                      l2387 23D6                        l2571 1E4C                        l2563 1E1C  
                      l2547 1DBA                        l2627 24EA                        l2707 2040  
                      l3371 13B8                        l3283 1184                        l2493 1AB6  
                      l2485 1A96                        l2469 1A50                        l2661 22C6  
                      l2637 2250                        l2725 20C8                        l2717 207E  
                      l3357 1384                        l3269 1124                        l3197 0F9A  
                      l2901 0910                        l2487 1A9C                        l2559 1E0C  
                      l2575 1E5A                        l2591 1F92                        l2743 1674  
                      l2655 22B4                        l2639 225C                        l3287 119A  
                      l3199 0FA4                        l2761 1772                        l2673 2302  
                      l2657 22BA                        l2665 22CE                        l2649 2290  
                      l3289 11A4                        l2579 1E70                        l2595 1FBE  
                      l2659 22C0                        l2667 22E8                        l2765 1798  
                      l2757 1732                        l2669 22F0                        l2781 1448  
                      l2941 09F0                        l2599 1FD0                        l2943 09FA  
                      l2785 1498                        l2939 09E4                        l2949 0A1A  
                      l2895 08F2                        l2997 0B06                        STR_1 0801  
                      STR_2 089B                        STR_3 0811                        STR_4 08A6  
                      STR_5 0856                        STR_6 0862                        STR_7 083C  
                      STR_8 08B9                        STR_9 086E                        u2010 142E  
                      u2020 1484                        u2015 1424                        u2025 147A  
                      u2050 15D4                        u2131 0C04                        u2045 1528  
                      u2055 15CA                        u3007 0D94                        u1600 21FE  
                      u3017 0DA2                        u1610 2226                        u3107 0F54  
                      u3027 0DB0                        u1365 1B54                        u3117 1010  
                      u3037 0DBE                        u1375 1B6E                        u1607 21F4  
                      u3207 1C8E                        u3127 101E                        u3047 0DCC  
                      u1385 1B92                        u1617 221C                        u3217 1C9C  
                      u3137 107A                        u3057 0DDA                        u1555 17DA  
                      u3307 1D1A                        u3227 1CAA                        u3147 1088  
                      u3067 0E96                        u1565 17F4                        u1805 1FAA  
                      u3317 1D28                        u3237 1CB8                        u3157 1358  
                      u3077 0EA4                        u3407 18EC                        u1575 1818  
                      u1735 1DA2                        u3327 1D36                        u3247 1CC6  
                      u3167 1366                        u3087 0EDC                        u3417 191A  
                      u1745 1DD2                        u3337 1D44                        u3257 1CD4  
                      u3177 1374                        u3097 0EEA                        u3507 1C4A  
                      u3427 192A                        u3347 1D52                        u3267 1CE2  
                      u3187 1C72                        u3517 1C60                        u3437 193A  
                      u3357 1D60                        u3277 1CF0                        u3197 1C80  
                      u3447 194A                        u3367 1D6E                        u3287 1CFE  
                      u2807 09AE                        u3457 195A                        u3377 1D7C  
                      u3297 1D0C                        u2817 09BE                        u3467 196A  
                      u3387 184E                        u1795 1F7A                        u2907 0B86  
                      u2827 0A54                        u3477 19AA                        u3397 18D0  
                      u2917 0B94                        u2837 0A62                        u3487 19EC  
                      u1975 163C                        u2927 0D1C                        u2847 0A70  
                      u3497 1BC8                        u2937 0D2A                        u2857 0AA8  
                      u2777 093C                        u1995 171C                        u2947 0D38  
                      u2867 0AB6                        u2787 095C                        u2957 0D46  
                      u2877 0AC4                        u2797 0994                        u2967 0D54  
                      u2887 0B40                        u2977 0D62                        u2897 0B4E  
                      u2987 0D70                        u2997 0D86                        _TMR2 000FBC  
                      Tec@i 000D                        Tec@j 0012                        _fila 0051  
                      _atoi 203A                 _PWM_generar 13C6                        _main 08E4  
                      fsr0h 000FEA                        indf0 000FEF                        fsr0l 000FE9  
                      fsr2h 000FDA                        indf1 000FE7                        fsr1l 000FE1  
                      indf2 000FDF                        fsr2l 000FD9               __CFG_BORV$190 000000  
              lcd_goto@data 000A                        prodh 000FF4                        prodl 000FF3  
                      start 0000               __CFG_IESO$OFF 000000             __end_of_Lcd_Cmd 1C6C  
           __end_of_Lcd_Out 2312               __CFG_MCLRE$ON 000000                  _Lcd_Chr_CP 17CC  
                     ??_Tec 000D             __end_of_Teclado 219E              Lcd_Out2@buffer 0005  
       __end_of_Conv_Entero 17CC             __end_of___aldiv 1E82                       ?_atoi 0007  
           __end_of___almod 203A                       ?_main 0001                       STR_10 084A  
                     STR_11 082E                       STR_20 0856                       STR_12 08D2  
                     STR_21 0862                       STR_13 08DE                       STR_30 08CA  
                     STR_22 083C                       STR_14 08C2                       STR_31 08B9  
                     STR_15 08E1                       STR_23 087A                       STR_16 0801  
                     STR_32 086E                       STR_24 0885                       STR_17 089B  
                     STR_25 0890                       STR_33 0820                       STR_18 0811  
                     STR_26 08CA                       STR_34 08B0                       STR_35 08D2  
                     STR_27 087A                       STR_19 08A6                       STR_28 0885  
                     STR_36 08DE                       STR_37 08C2                       STR_29 0890  
                     STR_38 08E1                       STR_39 08D8             __end_of___lldiv 22B0  
                     _T2CON 000FBA                       _PORTB 000F81                       _TRISB 000F93  
                     _Ciclo 247C               __CFG_WRT0$OFF 000000               __CFG_WRT1$OFF 000000  
             __CFG_WRT2$OFF 000000         ___lmul@multiplicand 0005               __CFG_WRT3$OFF 000000  
            __CFG_EBTR0$OFF 000000              __CFG_FCMEN$OFF 000000              __CFG_EBTR1$OFF 000000  
            __CFG_EBTR2$OFF 000000              __CFG_EBTR3$OFF 000000               Recuperar@tecl 0001  
             __CFG_WRTB$OFF 000000               __CFG_WRTC$OFF 000000               __CFG_WRTD$OFF 000000  
            __CFG_EBTRB$OFF 000000                       _ciclo 00E3                 Tec@contador 0010  
                     _tm_1s 1C6C             __end_of_isdigit 24F2                       atoi@a 000C  
                     atoi@s 0007                       main@i 00CC                       main@j 00CA  
                     main@k 00C4                ?_int_teclado 0001                       tablat 000FF5  
                _Frecuencia 244C                       status 000FD8              __CFG_T3CMX$RC0 000000  
            __CFG_ICPRT$OFF 000000              __CFG_PBADEN$ON 000000            __end_of_Lcd_Init 1A20  
          __end_of_Lcd_Out2 222E             __initialization 2312                __end_of_atoi 2104  
              __end_of_main 13C6           _Imprimir_pantalla 2410          ?_Imprimir_pantalla 0009  
                    ??_atoi 0009                      ??_main 0038               __activetblptr 000002  
                    ?_Ciclo 0015         ??_Imprimir_pantalla 000B              __CFG_SDOMX$RB3 000000  
           __CFG_CCP2MX$RC1 000000                      ?_tm_1s 0001                      _CCPR2L 000F90  
                    _ANSELB 000F5C                      _ANSELD 000F5E              __CFG_WDTEN$OFF 000000  
                 ??_Lcd_Cmd 0001                   ??_Lcd_Out 0007                      Tec@Key 0014  
                    Tec@aux 000F                   ??_Teclado 0001              __CFG_XINST$OFF 000000  
 __end_of_Imprimir_pantalla 244C                 _Conv_Entero 15F4          Imprimir_pantalla@N 0009  
          __end_of_lcd_goto 2410                      ___lmul 236C                 ?_Lcd_Chr_CP 0001  
                 ??___aldiv 0009                      _cadena 00D9                   ??___almod 0009  
                    ___wmul 24AC              __CFG_STVREN$ON 000000          __size_of_Recuperar 000E  
                 ??___lldiv 0009        PWM_generar@AuxCCPR2L 001E                      clear_0 2318  
                    clear_1 2324                      main@zx 00C6                __pdataCOMRAM 0053  
                 ??_isdigit 0001                __mediumconst 0000                      tblptrh 000FF7  
                    tblptrl 000FF6                      tblptru 000FF8        __CFG_LS48MHZ$SYS24X4 000000  
               ?_Frecuencia 0015                  __accesstop 0060     __end_of__initialization 2362  
             __end_of_Ciclo 24AC              __pcstackCOMRAM 0001                __pidataBANK1 1E82  
             __end_of_tm_1s 1D86             __CFG_PCLKEN$OFF 000000                     ??_Ciclo 0017  
                 ?_Lcd_Init 0001                   ?_Lcd_Out2 0004                     ??_tm_1s 0001  
         __end_of_Recuperar 2500         __size_of_Lcd_Chr_CP 012C                  __pbssBANK0 00CF  
              ?_PWM_generar 000E        __size_of_int_teclado 000A  __size_of_Imprimir_pantalla 003C  
         __CFG_PLLSEL$PLL4X 000000                     ?___lmul 0001                     ?___wmul 0001  
                   _CCP2CON 000F97              ___lmul@product 0009         __size_of_Frecuencia 0030  
                ??_Lcd_Init 0004                  ??_Lcd_Out2 0007                   ?_lcd_goto 0004  
                   _Lcd_Cmd 1B46                     _Lcd_Out 22B0                  _frecuencia 00ED  
                   __Hparam 0000                     _Teclado 2104                     __Lparam 0000  
                   ___aldiv 1D86                     ___almod 1F5E        SENO_GENERAR_20@F7367 018C  
           __size_of___lmul 0056                     ___lldiv 222E             __size_of___wmul 0026  
              __psmallconst 0800        SENO_GENERAR_50@F7361 01B4                     __pcinit 2312  
     PWM_generar@AuxCCP2CON 0018                     __ramtop 0800                     __ptext0 08E4  
                   __ptext1 2500                     __ptext2 203A                     __ptext3 24D2  
                   __ptext4 24AC                     __ptext5 13C6                     __ptext6 222E  
                   __ptext7 22B0                     __ptext8 2410                     __ptext9 1C6C  
                   _columna 0050                __size_of_Tec 0126                   _T2CONbits 000FBA  
                   _isdigit 24D2            ___aldiv@dividend 0001                     main@key 00CE  
                ??_lcd_goto 0008        end_of_initialization 2362               __Lmediumconst 0000  
           ___lldiv@divisor 0005             ___lldiv@counter 000D                ?_Conv_Entero 000F  
          ___aldiv@quotient 000B                ??_Lcd_Chr_CP 0001                   Lcd_Out2@x 0004  
                 Lcd_Out2@y 0007                     postdec1 000FE5                     postdec2 000FDD  
                   postinc0 000FEE                     postinc1 000FE6                     postinc2 000FDE  
                 _PORTBbits 000F81                   _PORTCbits 000F82             Conv_Entero@conv 0013  
                 _PORTDbits 000F83                   _TRISCbits 000F94                   _TRISDbits 000F95  
      Frecuencia@frecuencia 0015          __end_of_Lcd_Chr_CP 18F8                ??_Frecuencia 0017  
                 Tec@cadena 000B                  main@zx_420 00C8        __size_of_PWM_generar 022E  
            __end_of___lmul 23C2              __end_of___wmul 24D2               __pidataCOMRAM 250A  
        __end_of_Frecuencia 247C         start_initialization 2312                 __end_of_Tec 1B46  
             Lcd_Out@buffer 0005           __size_of_Lcd_Init 0128           __size_of_Lcd_Out2 0090  
           __CFG_nLPBOR$OFF 000000                   _Recuperar 24F2                    ??___lmul 0009  
      Conv_Entero@numeroReg 0034                    ??___wmul 0005       Imprimir_pantalla@fila 000B  
               __pdataBANK1 0100                 __pbssCOMRAM 003D               __pcstackBANK0 0060  
       __end_of__stringdata 08E3             __CFG_nPWRTEN$ON 000000               ??_int_teclado 0001  
                  ?_Lcd_Cmd 0001           __size_of_lcd_goto 004E                    ?_Lcd_Out 0004  
                ?_Recuperar 0001                    ?_Teclado 0001                    ?___aldiv 0001  
                  ?___almod 0001                    ?___lldiv 0001        __size_of_Conv_Entero 01D8  
          ___almod@dividend 0001      PWM_generar@prescalador 0016                 __smallconst 0800  
                  ?_isdigit 0001              __size_of_Ciclo 0030              __size_of_tm_1s 011A  
           ___aldiv@divisor 0005             ___aldiv@counter 0009              ___wmul@product 0005  
       __end_of_int_teclado 250A                    Lcd_Out@x 0004            __CFG_WDTPS$32768 000000  
                  Lcd_Out@y 0007                   main@F7639 0100              Conv_Entero@num 002F  
              Lcd_Init@data 0005                 __stringdata 0801           ___wmul@multiplier 0001  
                 lcd_goto@x 0004                   lcd_goto@y 0006             PWM_generar@fpwm 0010  
           PWM_generar@duty 000E           __CFG_CFGPLLEN$OFF 000000                Lcd_Out2@data 0008  
                  _Lcd_Init 18F8                    _Lcd_Out2 219E         Conv_Entero@convTemp 001A  
         ___lmul@multiplier 0001                 _INTCON2bits 000FF1                   copy_data0 233E  
               ??_Recuperar 0001            __size_of_Lcd_Cmd 0126            __size_of_Lcd_Out 0062  
     SENO_GENERAR_100@F7355 0164                    __Hrparam 0000                    __Lrparam 0000  
          __size_of_Teclado 009A          __CFG_BOREN$SBORDIS 000000            __size_of___aldiv 00FC  
          __size_of___almod 00DC            __size_of___lldiv 0082                 _isdigit$968 0002  
                  _cantidad 004F            __size_of_isdigit 0020              Lcd_Chr_CP@data 0003  
                  __ptext10 244C                    __ptext11 15F4                    __ptext20 219E  
                  __ptext12 236C                    __ptext21 17CC                    __ptext13 1F5E  
                  __ptext22 18F8                    __ptext14 1D86                    __ptext23 1B46  
                  __ptext15 247C                    __ptext16 1A20                    __ptext17 23C2  
                  __ptext18 24F2                    __ptext19 2104                    _lcd_goto 23C2  
           ___almod@divisor 0005             ___almod@counter 0009                 _int_teclado 2500  
             ??_PWM_generar 0012                 Lcd_Cmd@data 0003               __size_of_atoi 00CA  
             __size_of_main 0AE2                    atoi@sign 000B                  Ciclo@ciclo 0015  
  Imprimir_pantalla@columna 000C             main@valoresSeno 0060                 Lcd_Out@data 0008  
                  isdigit@c 0003            ___lldiv@dividend 0001    Conv_Entero@punteroActual 0032  
       __end_of_PWM_generar 15F4                Conv_Entero@i 0031        __CFG_CPUDIV$NOCLKDIV 000000  
         Conv_Entero@numero 000F            ___lldiv@quotient 0009                ___aldiv@sign 000A  
        __CFG_FOSC$INTOSCIO 000000                ___almod@sign 000A               ??_Conv_Entero 0015  
