

Microchip Technology PIC18 LITE Macro Assembler V1.32 build 58300 
                                                                                               Fri May 17 18:09:28 2019

Microchip Technology Omniscient Code Generator (Lite mode) build 58300
     1                           	processor	18F45K50
     2                           	fnconf	rparam,??,?,0
     3                           	opt	pw 120
     4                           	opt	lm
     5                           	psect	idataCOMRAM,global,class=CODE,delta=1
     6                           	psect	idataBANK0,global,class=CODE,delta=1
     7                           	psect	idataBANK1,global,class=CODE,delta=1
     8                           	psect	smallconst,global,reloc=2,class=SMALLCONST,delta=1
     9                           	psect	cinit,global,reloc=2,class=CODE,delta=1
    10                           	psect	bssCOMRAM,global,class=COMRAM,space=1,delta=1
    11                           	psect	dataCOMRAM,global,class=COMRAM,space=1,delta=1
    12                           	psect	bssBANK0,global,class=BANK0,space=1,delta=1
    13                           	psect	dataBANK0,global,class=BANK0,space=1,delta=1
    14                           	psect	dataBANK1,global,class=BANK1,space=1,delta=1
    15                           	psect	cstackCOMRAM,global,class=COMRAM,space=1,delta=1
    16                           	psect	text0,global,reloc=2,class=CODE,delta=1
    17                           	psect	text1,global,reloc=2,class=CODE,delta=1
    18                           	psect	text2,global,reloc=2,class=CODE,delta=1
    19                           	psect	text3,global,reloc=2,class=CODE,delta=1
    20                           	psect	text4,global,reloc=2,class=CODE,delta=1
    21                           	psect	text5,global,reloc=2,class=CODE,delta=1
    22                           	psect	text6,global,reloc=2,class=CODE,delta=1
    23                           	psect	text7,global,reloc=2,class=CODE,delta=1
    24                           	psect	text8,global,reloc=2,class=CODE,delta=1
    25                           	psect	text9,global,reloc=2,class=CODE,delta=1
    26                           	psect	text10,global,reloc=2,class=CODE,delta=1
    27                           	psect	text11,global,reloc=2,class=CODE,delta=1
    28                           	psect	text12,global,reloc=2,class=CODE,delta=1
    29                           	psect	text13,global,reloc=2,class=CODE,delta=1
    30                           	psect	text14,global,reloc=2,class=CODE,delta=1
    31                           	psect	text15,global,reloc=2,class=CODE,delta=1
    32                           	psect	text16,global,reloc=2,class=CODE,delta=1
    33                           	psect	text17,global,reloc=2,class=CODE,delta=1
    34                           	psect	text18,global,reloc=2,class=CODE,delta=1
    35                           	psect	text19,global,reloc=2,class=CODE,delta=1
    36                           	psect	text20,global,reloc=2,class=CODE,delta=1
    37                           	psect	text21,global,reloc=2,class=CODE,delta=1
    38                           	psect	text22,global,reloc=2,class=CODE,delta=1
    39                           	psect	text23,global,reloc=2,class=CODE,delta=1
    40                           	psect	text24,global,reloc=2,class=CODE,delta=1
    41                           	psect	text25,global,reloc=2,class=CODE,delta=1
    42                           	psect	text26,global,reloc=2,class=CODE,delta=1
    43                           	psect	text27,global,reloc=2,class=CODE,delta=1
    44                           	psect	text28,global,reloc=2,class=CODE,delta=1
    45                           	psect	text29,global,reloc=2,class=CODE,delta=1
    46                           	psect	text30,global,reloc=2,class=CODE,delta=1
    47                           	psect	intsave_regs,global,class=BIGRAM,space=1,delta=1
    48                           	psect	rparam,global,class=COMRAM,space=1,delta=1
    49  0000                     
    50                           	psect	idataCOMRAM
    51  0028F0                     __pidataCOMRAM:
    52                           	opt stack 0
    53                           
    54                           ;initializer for _a
    55  0028F0  0001               	dw	1
    56                           
    57                           	psect	idataBANK0
    58  002686                     __pidataBANK0:
    59                           	opt stack 0
    60                           
    61                           ;initializer for SENO_GENERAR_1@F7354
    62  002686  0032               	dw	50
    63  002688  0023               	dw	35
    64  00268A  0015               	dw	21
    65  00268C  000A               	dw	10
    66  00268E  0002               	dw	2
    67  002690  0000               	dw	0
    68  002692  0002               	dw	2
    69  002694  000A               	dw	10
    70  002696  0015               	dw	21
    71  002698  0023               	dw	35
    72  00269A  0032               	dw	50
    73  00269C  0041               	dw	65
    74  00269E  004F               	dw	79
    75  0026A0  005A               	dw	90
    76  0026A2  0062               	dw	98
    77  0026A4  0064               	dw	100
    78  0026A6  0062               	dw	98
    79  0026A8  005A               	dw	90
    80  0026AA  004F               	dw	79
    81  0026AC  0041               	dw	65
    82                           
    83                           ;initializer for SENO_GENERAR_2@F7359
    84  0026AE  0032               	dw	50
    85  0026B0  0043               	dw	67
    86  0026B2  0052               	dw	82
    87  0026B4  005D               	dw	93
    88  0026B6  0063               	dw	99
    89  0026B8  0063               	dw	99
    90  0026BA  005D               	dw	93
    91  0026BC  0052               	dw	82
    92  0026BE  0043               	dw	67
    93  0026C0  0032               	dw	50
    94  0026C2  0021               	dw	33
    95  0026C4  0012               	dw	18
    96  0026C6  0007               	dw	7
    97  0026C8  0001               	dw	1
    98  0026CA  0001               	dw	1
    99  0026CC  0007               	dw	7
   100  0026CE  0012               	dw	18
   101  0026D0  0021               	dw	33
   102                           
   103                           ;initializer for SENO_GENERAR_3@F7364
   104  0026D2  0032               	dw	50
   105  0026D4  0046               	dw	70
   106  0026D6  0057               	dw	87
   107  0026D8  0062               	dw	98
   108  0026DA  0064               	dw	100
   109  0026DC  005D               	dw	93
   110  0026DE  004F               	dw	79
   111  0026E0  003C               	dw	60
   112  0026E2  0028               	dw	40
   113  0026E4  0015               	dw	21
   114  0026E6  0007               	dw	7
   115  0026E8  0000               	dw	0
   116  0026EA  0002               	dw	2
   117  0026EC  000D               	dw	13
   118  0026EE  001E               	dw	30
   119                           
   120                           	psect	idataBANK1
   121  00260E                     __pidataBANK1:
   122                           	opt stack 0
   123                           
   124                           ;initializer for TRIANGULAR_GENERAR_1@F7354
   125  00260E  000A               	dw	10
   126  002610  0014               	dw	20
   127  002612  001E               	dw	30
   128  002614  0028               	dw	40
   129  002616  0032               	dw	50
   130  002618  003C               	dw	60
   131  00261A  0046               	dw	70
   132  00261C  0050               	dw	80
   133  00261E  005A               	dw	90
   134  002620  0064               	dw	100
   135  002622  005A               	dw	90
   136  002624  0050               	dw	80
   137  002626  0046               	dw	70
   138  002628  003C               	dw	60
   139  00262A  0032               	dw	50
   140  00262C  0028               	dw	40
   141  00262E  001E               	dw	30
   142  002630  0014               	dw	20
   143  002632  000A               	dw	10
   144  002634  0000               	dw	0
   145                           
   146                           ;initializer for TRIANGULAR_GENERAR_2@F7359
   147  002636  000A               	dw	10
   148  002638  0014               	dw	20
   149  00263A  001E               	dw	30
   150  00263C  0028               	dw	40
   151  00263E  0032               	dw	50
   152  002640  003C               	dw	60
   153  002642  0046               	dw	70
   154  002644  0050               	dw	80
   155  002646  005A               	dw	90
   156  002648  0064               	dw	100
   157  00264A  005A               	dw	90
   158  00264C  0050               	dw	80
   159  00264E  0046               	dw	70
   160  002650  003C               	dw	60
   161  002652  0032               	dw	50
   162  002654  0028               	dw	40
   163  002656  001E               	dw	30
   164  002658  0014               	dw	20
   165  00265A  000A               	dw	10
   166  00265C  0000               	dw	0
   167                           
   168                           ;initializer for TRIANGULAR_GENERAR_3@F7364
   169  00265E  000A               	dw	10
   170  002660  0014               	dw	20
   171  002662  001E               	dw	30
   172  002664  0028               	dw	40
   173  002666  0032               	dw	50
   174  002668  003C               	dw	60
   175  00266A  0046               	dw	70
   176  00266C  0050               	dw	80
   177  00266E  005A               	dw	90
   178  002670  0064               	dw	100
   179  002672  005A               	dw	90
   180  002674  0050               	dw	80
   181  002676  0046               	dw	70
   182  002678  003C               	dw	60
   183  00267A  0032               	dw	50
   184  00267C  0028               	dw	40
   185  00267E  001E               	dw	30
   186  002680  0014               	dw	20
   187  002682  000A               	dw	10
   188  002684  0000               	dw	0
   189  0000                     _ANSELB	set	3932
   190  0000                     _ANSELC	set	3933
   191  0000                     _ANSELD	set	3934
   192  0000                     _CCP2CON	set	3991
   193  0000                     _CCPR2L	set	3984
   194  0000                     _INTCON2bits	set	4081
   195  0000                     _OSCCON	set	4051
   196  0000                     _PORTAbits	set	3968
   197  0000                     _PORTB	set	3969
   198  0000                     _PORTBbits	set	3969
   199  0000                     _PORTCbits	set	3970
   200  0000                     _PORTDbits	set	3971
   201  0000                     _PR2	set	4027
   202  0000                     _T2CON	set	4026
   203  0000                     _T2CONbits	set	4026
   204  0000                     _TMR2	set	4028
   205  0000                     _TRISAbits	set	3986
   206  0000                     _TRISB	set	3987
   207  0000                     _TRISCbits	set	3988
   208  0000                     _TRISDbits	set	3989
   209                           
   210                           	psect	smallconst
   211  000800                     __psmallconst:
   212                           	opt stack 0
   213  000800  00                 	db	0
   214  000801                     __stringdata:
   215                           	opt stack 0
   216  000801                     STR_1:
   217  000801  55                 	db	85	;'U'
   218  000802  6E                 	db	110	;'n'
   219  000803  69                 	db	105	;'i'
   220  000804  76                 	db	118	;'v'
   221  000805  65                 	db	101	;'e'
   222  000806  72                 	db	114	;'r'
   223  000807  73                 	db	115	;'s'
   224  000808  69                 	db	105	;'i'
   225  000809  64                 	db	100	;'d'
   226  00080A  61                 	db	97	;'a'
   227  00080B  64                 	db	100	;'d'
   228  00080C  20                 	db	32
   229  00080D  64                 	db	100	;'d'
   230  00080E  65                 	db	101	;'e'
   231  00080F  20                 	db	32
   232  000810  00                 	db	0
   233  000811                     STR_3:
   234  000811  50                 	db	80	;'P'
   235  000812  72                 	db	114	;'r'
   236  000813  6F                 	db	111	;'o'
   237  000814  79                 	db	121	;'y'
   238  000815  65                 	db	101	;'e'
   239  000816  63                 	db	99	;'c'
   240  000817  74                 	db	116	;'t'
   241  000818  6F                 	db	111	;'o'
   242  000819  20                 	db	32
   243  00081A  46                 	db	70	;'F'
   244  00081B  69                 	db	105	;'i'
   245  00081C  6E                 	db	110	;'n'
   246  00081D  61                 	db	97	;'a'
   247  00081E  6C                 	db	108	;'l'
   248  00081F  00                 	db	0
   249  000820                     STR_37:
   250  000820  41                 	db	65	;'A'
   251  000821  2E                 	db	46
   252  000822  2D                 	db	45
   253  000823  46                 	db	70	;'F'
   254  000824  72                 	db	114	;'r'
   255  000825  65                 	db	101	;'e'
   256  000826  63                 	db	99	;'c'
   257  000827  75                 	db	117	;'u'
   258  000828  65                 	db	101	;'e'
   259  000829  6E                 	db	110	;'n'
   260  00082A  63                 	db	99	;'c'
   261  00082B  69                 	db	105	;'i'
   262  00082C  61                 	db	97	;'a'
   263  00082D  00                 	db	0
   264  00082E                     STR_11:
   265  00082E  49                 	db	73	;'I'
   266  00082F  6E                 	db	110	;'n'
   267  000830  67                 	db	103	;'g'
   268  000831  72                 	db	114	;'r'
   269  000832  65                 	db	101	;'e'
   270  000833  73                 	db	115	;'s'
   271  000834  65                 	db	101	;'e'
   272  000835  20                 	db	32
   273  000836  63                 	db	99	;'c'
   274  000837  69                 	db	105	;'i'
   275  000838  63                 	db	99	;'c'
   276  000839  6C                 	db	108	;'l'
   277  00083A  6F                 	db	111	;'o'
   278  00083B  00                 	db	0
   279  00083C                     STR_7:
   280  00083C  43                 	db	67	;'C'
   281  00083D  2E                 	db	46
   282  00083E  2D                 	db	45
   283  00083F  54                 	db	84	;'T'
   284  000840  72                 	db	114	;'r'
   285  000841  69                 	db	105	;'i'
   286  000842  61                 	db	97	;'a'
   287  000843  6E                 	db	110	;'n'
   288  000844  67                 	db	103	;'g'
   289  000845  75                 	db	117	;'u'
   290  000846  6C                 	db	108	;'l'
   291  000847  61                 	db	97	;'a'
   292  000848  72                 	db	114	;'r'
   293  000849  00                 	db	0
   294  00084A                     STR_10:
   295  00084A  46                 	db	70	;'F'
   296  00084B  72                 	db	114	;'r'
   297  00084C  65                 	db	101	;'e'
   298  00084D  63                 	db	99	;'c'
   299  00084E  75                 	db	117	;'u'
   300  00084F  65                 	db	101	;'e'
   301  000850  6E                 	db	110	;'n'
   302  000851  63                 	db	99	;'c'
   303  000852  69                 	db	105	;'i'
   304  000853  61                 	db	97	;'a'
   305  000854  3A                 	db	58	;':'
   306  000855  00                 	db	0
   307  000856                     STR_5:
   308  000856  41                 	db	65	;'A'
   309  000857  2E                 	db	46
   310  000858  2D                 	db	45
   311  000859  43                 	db	67	;'C'
   312  00085A  75                 	db	117	;'u'
   313  00085B  61                 	db	97	;'a'
   314  00085C  64                 	db	100	;'d'
   315  00085D  72                 	db	114	;'r'
   316  00085E  61                 	db	97	;'a'
   317  00085F  64                 	db	100	;'d'
   318  000860  61                 	db	97	;'a'
   319  000861  00                 	db	0
   320  000862                     STR_6:
   321  000862  42                 	db	66	;'B'
   322  000863  2E                 	db	46
   323  000864  2D                 	db	45
   324  000865  53                 	db	83	;'S'
   325  000866  65                 	db	101	;'e'
   326  000867  6E                 	db	110	;'n'
   327  000868  6F                 	db	111	;'o'
   328  000869  69                 	db	105	;'i'
   329  00086A  64                 	db	100	;'d'
   330  00086B  61                 	db	97	;'a'
   331  00086C  6C                 	db	108	;'l'
   332  00086D  00                 	db	0
   333  00086E                     STR_9:
   334  00086E  32                 	db	50	;'2'
   335  00086F  2E                 	db	46
   336  000870  2D                 	db	45
   337  000871  43                 	db	67	;'C'
   338  000872  6F                 	db	111	;'o'
   339  000873  6D                 	db	109	;'m'
   340  000874  65                 	db	101	;'e'
   341  000875  6E                 	db	110	;'n'
   342  000876  7A                 	db	122	;'z'
   343  000877  61                 	db	97	;'a'
   344  000878  72                 	db	114	;'r'
   345  000879  00                 	db	0
   346  00087A                     STR_23:
   347  00087A  41                 	db	65	;'A'
   348  00087B  2E                 	db	46
   349  00087C  2D                 	db	45
   350  00087D  53                 	db	83	;'S'
   351  00087E  65                 	db	101	;'e'
   352  00087F  6E                 	db	110	;'n'
   353  000880  61                 	db	97	;'a'
   354  000881  6C                 	db	108	;'l'
   355  000882  20                 	db	32
   356  000883  31                 	db	49	;'1'
   357  000884  00                 	db	0
   358  000885                     STR_24:
   359  000885  42                 	db	66	;'B'
   360  000886  2E                 	db	46
   361  000887  2D                 	db	45
   362  000888  53                 	db	83	;'S'
   363  000889  65                 	db	101	;'e'
   364  00088A  F1                 	db	-15
   365  00088B  61                 	db	97	;'a'
   366  00088C  6C                 	db	108	;'l'
   367  00088D  20                 	db	32
   368  00088E  32                 	db	50	;'2'
   369  00088F  00                 	db	0
   370  000890                     STR_27:
   371  000890  42                 	db	66	;'B'
   372  000891  2E                 	db	46
   373  000892  2D                 	db	45
   374  000893  53                 	db	83	;'S'
   375  000894  65                 	db	101	;'e'
   376  000895  6E                 	db	110	;'n'
   377  000896  61                 	db	97	;'a'
   378  000897  6C                 	db	108	;'l'
   379  000898  20                 	db	32
   380  000899  32                 	db	50	;'2'
   381  00089A  00                 	db	0
   382  00089B                     STR_25:
   383  00089B  43                 	db	67	;'C'
   384  00089C  2E                 	db	46
   385  00089D  2D                 	db	45
   386  00089E  53                 	db	83	;'S'
   387  00089F  65                 	db	101	;'e'
   388  0008A0  6E                 	db	110	;'n'
   389  0008A1  61                 	db	97	;'a'
   390  0008A2  6C                 	db	108	;'l'
   391  0008A3  20                 	db	32
   392  0008A4  33                 	db	51	;'3'
   393  0008A5  00                 	db	0
   394  0008A6                     STR_2:
   395  0008A6  47                 	db	71	;'G'
   396  0008A7  75                 	db	117	;'u'
   397  0008A8  61                 	db	97	;'a'
   398  0008A9  6E                 	db	110	;'n'
   399  0008AA  61                 	db	97	;'a'
   400  0008AB  6A                 	db	106	;'j'
   401  0008AC  75                 	db	117	;'u'
   402  0008AD  61                 	db	97	;'a'
   403  0008AE  74                 	db	116	;'t'
   404  0008AF  6F                 	db	111	;'o'
   405  0008B0  00                 	db	0
   406  0008B1                     STR_4:
   407  0008B1  47                 	db	71	;'G'
   408  0008B2  65                 	db	101	;'e'
   409  0008B3  6E                 	db	110	;'n'
   410  0008B4  65                 	db	101	;'e'
   411  0008B5  72                 	db	114	;'r'
   412  0008B6  61                 	db	97	;'a'
   413  0008B7  64                 	db	100	;'d'
   414  0008B8  6F                 	db	111	;'o'
   415  0008B9  72                 	db	114	;'r'
   416  0008BA  00                 	db	0
   417  0008BB                     STR_38:
   418  0008BB  42                 	db	66	;'B'
   419  0008BC  2E                 	db	46
   420  0008BD  2D                 	db	45
   421  0008BE  43                 	db	67	;'C'
   422  0008BF  69                 	db	105	;'i'
   423  0008C0  63                 	db	99	;'c'
   424  0008C1  6C                 	db	108	;'l'
   425  0008C2  6F                 	db	111	;'o'
   426  0008C3  00                 	db	0
   427  0008C4                     STR_8:
   428  0008C4  31                 	db	49	;'1'
   429  0008C5  2E                 	db	46
   430  0008C6  2D                 	db	45
   431  0008C7  44                 	db	68	;'D'
   432  0008C8  61                 	db	97	;'a'
   433  0008C9  74                 	db	116	;'t'
   434  0008CA  6F                 	db	111	;'o'
   435  0008CB  73                 	db	115	;'s'
   436  0008CC  00                 	db	0
   437  0008CD                     STR_14:
   438  0008CD  43                 	db	67	;'C'
   439  0008CE  69                 	db	105	;'i'
   440  0008CF  63                 	db	99	;'c'
   441  0008D0  6C                 	db	108	;'l'
   442  0008D1  6F                 	db	111	;'o'
   443  0008D2  3A                 	db	58	;':'
   444  0008D3  20                 	db	32
   445  0008D4  00                 	db	0
   446  0008D5                     STR_12:
   447  0008D5  46                 	db	70	;'F'
   448  0008D6  72                 	db	114	;'r'
   449  0008D7  65                 	db	101	;'e'
   450  0008D8  3A                 	db	58	;':'
   451  0008D9  20                 	db	32
   452  0008DA  00                 	db	0
   453  0008DB                     STR_43:
   454  0008DB  41                 	db	65	;'A'
   455  0008DC  64                 	db	100	;'d'
   456  0008DD  69                 	db	105	;'i'
   457  0008DE  6F                 	db	111	;'o'
   458  0008DF  73                 	db	115	;'s'
   459  0008E0  00                 	db	0
   460  0008E1                     STR_13:
   461  0008E1  48                 	db	72	;'H'
   462  0008E2  7A                 	db	122	;'z'
   463  0008E3  00                 	db	0
   464  0008E4                     STR_15:
   465  0008E4  25                 	db	37
   466  0008E5  00                 	db	0
   467  0008E6                     __end_of__stringdata:
   468                           	opt stack 0
   469                           
   470                           ; #config settings
   471  0008E6  00                 	db	0	; dummy byte at the end
   472  0000                     
   473                           	psect	cinit
   474  002594                     __pcinit:
   475                           	opt stack 0
   476  002594                     start_initialization:
   477                           	opt stack 0
   478  002594                     __initialization:
   479                           	opt stack 0
   480                           
   481                           ; Clear objects allocated to BANK0 (40 bytes)
   482  002594  EE00  F0CA         	lfsr	0,__pbssBANK0
   483  002598  0E28               	movlw	40
   484  00259A                     clear_0:
   485  00259A  6AEE               	clrf	postinc0,c
   486  00259C  06E8               	decf	wreg,f,c
   487  00259E  E1FD               	bnz	clear_0
   488                           
   489                           ; Clear objects allocated to COMRAM (22 bytes)
   490  0025A0  EE00  F042         	lfsr	0,__pbssCOMRAM
   491  0025A4  0E16               	movlw	22
   492  0025A6                     clear_1:
   493  0025A6  6AEE               	clrf	postinc0,c
   494  0025A8  06E8               	decf	wreg,f,c
   495  0025AA  E1FD               	bnz	clear_1
   496                           
   497                           ; Initialize objects allocated to BANK1 (120 bytes)
   498                           ; load TBLPTR registers with __pidataBANK1
   499  0025AC  0E0E               	movlw	low __pidataBANK1
   500  0025AE  6EF6               	movwf	tblptrl,c
   501  0025B0  0E26               	movlw	high __pidataBANK1
   502  0025B2  6EF7               	movwf	tblptrh,c
   503  0025B4  0E00               	movlw	low (__pidataBANK1 shr (0+16))
   504  0025B6  6EF8               	movwf	tblptru,c
   505  0025B8  EE01  F000         	lfsr	0,__pdataBANK1
   506  0025BC  EE10 F078          	lfsr	1,120
   507  0025C0                     copy_data0:
   508  0025C0  0009               	tblrd		*+
   509  0025C2  CFF5 FFEE          	movff	tablat,postinc0
   510  0025C6  50E5               	movf	postdec1,w,c
   511  0025C8  50E1               	movf	fsr1l,w,c
   512  0025CA  E1FA               	bnz	copy_data0
   513                           
   514                           ; Initialize objects allocated to BANK0 (106 bytes)
   515                           ; load TBLPTR registers with __pidataBANK0
   516  0025CC  0E86               	movlw	low __pidataBANK0
   517  0025CE  6EF6               	movwf	tblptrl,c
   518  0025D0  0E26               	movlw	high __pidataBANK0
   519  0025D2  6EF7               	movwf	tblptrh,c
   520  0025D4  0E00               	movlw	low (__pidataBANK0 shr (0+16))
   521  0025D6  6EF8               	movwf	tblptru,c
   522  0025D8  EE00  F060         	lfsr	0,__pdataBANK0
   523  0025DC  EE10 F06A          	lfsr	1,106
   524  0025E0                     copy_data1:
   525  0025E0  0009               	tblrd		*+
   526  0025E2  CFF5 FFEE          	movff	tablat,postinc0
   527  0025E6  50E5               	movf	postdec1,w,c
   528  0025E8  50E1               	movf	fsr1l,w,c
   529  0025EA  E1FA               	bnz	copy_data1
   530                           
   531                           ; Initialize objects allocated to COMRAM (2 bytes)
   532                           ; load TBLPTR registers with __pidataCOMRAM
   533  0025EC  0EF0               	movlw	low __pidataCOMRAM
   534  0025EE  6EF6               	movwf	tblptrl,c
   535  0025F0  0E28               	movlw	high __pidataCOMRAM
   536  0025F2  6EF7               	movwf	tblptrh,c
   537  0025F4  0E00               	movlw	low (__pidataCOMRAM shr (0+16))
   538  0025F6  6EF8               	movwf	tblptru,c
   539  0025F8  0009               	tblrd		*+	;fetch initializer
   540  0025FA  CFF5 F058          	movff	tablat,__pdataCOMRAM
   541  0025FE  0009               	tblrd		*+	;fetch initializer
   542  002600  CFF5 F059          	movff	tablat,__pdataCOMRAM+1
   543  002604                     end_of_initialization:
   544                           	opt stack 0
   545  002604                     __end_of__initialization:
   546                           	opt stack 0
   547  002604  0E00               	movlw	low (__Lmediumconst shr (0+16))
   548  002606  6EF8               	movwf	tblptru,c
   549  002608  0100               	movlb	0
   550  00260A  EF74  F004         	goto	_main	;jump to C main() function
   551                           tblptru	equ	0xFF8
   552                           tblptrh	equ	0xFF7
   553                           tblptrl	equ	0xFF6
   554                           tablat	equ	0xFF5
   555                           postinc0	equ	0xFEE
   556                           wreg	equ	0xFE8
   557                           postdec1	equ	0xFE5
   558                           fsr1l	equ	0xFE1
   559                           
   560                           	psect	bssCOMRAM
   561  000042                     __pbssCOMRAM:
   562                           	opt stack 0
   563  000042                     _d:
   564                           	opt stack 0
   565  000042                     	ds	2
   566  000044                     _e:
   567                           	opt stack 0
   568  000044                     	ds	2
   569  000046                     _f:
   570                           	opt stack 0
   571  000046                     	ds	2
   572  000048                     _g:
   573                           	opt stack 0
   574  000048                     	ds	2
   575  00004A                     _q:
   576                           	opt stack 0
   577  00004A                     	ds	2
   578  00004C                     _r:
   579                           	opt stack 0
   580  00004C                     	ds	2
   581  00004E                     _s:
   582                           	opt stack 0
   583  00004E                     	ds	2
   584  000050                     _t:
   585                           	opt stack 0
   586  000050                     	ds	2
   587  000052                     _w:
   588                           	opt stack 0
   589  000052                     	ds	2
   590  000054                     _cantidad:
   591                           	opt stack 0
   592  000054                     	ds	1
   593  000055                     _columna:
   594                           	opt stack 0
   595  000055                     	ds	1
   596  000056                     _fila:
   597                           	opt stack 0
   598  000056                     	ds	1
   599  000057                     _key:
   600                           	opt stack 0
   601  000057                     	ds	1
   602                           tblptru	equ	0xFF8
   603                           tblptrh	equ	0xFF7
   604                           tblptrl	equ	0xFF6
   605                           tablat	equ	0xFF5
   606                           postinc0	equ	0xFEE
   607                           wreg	equ	0xFE8
   608                           postdec1	equ	0xFE5
   609                           fsr1l	equ	0xFE1
   610                           
   611                           	psect	dataCOMRAM
   612  000058                     __pdataCOMRAM:
   613                           	opt stack 0
   614  000058                     _a:
   615                           	opt stack 0
   616  000058                     	ds	2
   617                           tblptru	equ	0xFF8
   618                           tblptrh	equ	0xFF7
   619                           tblptrl	equ	0xFF6
   620                           tablat	equ	0xFF5
   621                           postinc0	equ	0xFEE
   622                           wreg	equ	0xFE8
   623                           postdec1	equ	0xFE5
   624                           fsr1l	equ	0xFE1
   625                           
   626                           	psect	bssBANK0
   627  0000CA                     __pbssBANK0:
   628                           	opt stack 0
   629  0000CA                     _cad:
   630                           	opt stack 0
   631  0000CA                     	ds	10
   632  0000D4                     _cadena:
   633                           	opt stack 0
   634  0000D4                     	ds	10
   635  0000DE                     _ciclo:
   636                           	opt stack 0
   637  0000DE                     	ds	10
   638  0000E8                     _frecuencia:
   639                           	opt stack 0
   640  0000E8                     	ds	10
   641                           tblptru	equ	0xFF8
   642                           tblptrh	equ	0xFF7
   643                           tblptrl	equ	0xFF6
   644                           tablat	equ	0xFF5
   645                           postinc0	equ	0xFEE
   646                           wreg	equ	0xFE8
   647                           postdec1	equ	0xFE5
   648                           fsr1l	equ	0xFE1
   649                           
   650                           	psect	dataBANK0
   651  000060                     __pdataBANK0:
   652                           	opt stack 0
   653  000060                     SENO_GENERAR_1@F7354:
   654                           	opt stack 0
   655  000060                     	ds	40
   656  000088                     SENO_GENERAR_2@F7359:
   657                           	opt stack 0
   658  000088                     	ds	36
   659  0000AC                     SENO_GENERAR_3@F7364:
   660                           	opt stack 0
   661  0000AC                     	ds	30
   662                           tblptru	equ	0xFF8
   663                           tblptrh	equ	0xFF7
   664                           tblptrl	equ	0xFF6
   665                           tablat	equ	0xFF5
   666                           postinc0	equ	0xFEE
   667                           wreg	equ	0xFE8
   668                           postdec1	equ	0xFE5
   669                           fsr1l	equ	0xFE1
   670                           
   671                           	psect	dataBANK1
   672  000100                     __pdataBANK1:
   673                           	opt stack 0
   674  000100                     TRIANGULAR_GENERAR_1@F7354:
   675                           	opt stack 0
   676  000100                     	ds	40
   677  000128                     TRIANGULAR_GENERAR_2@F7359:
   678                           	opt stack 0
   679  000128                     	ds	40
   680  000150                     TRIANGULAR_GENERAR_3@F7364:
   681                           	opt stack 0
   682  000150                     	ds	40
   683                           tblptru	equ	0xFF8
   684                           tblptrh	equ	0xFF7
   685                           tblptrl	equ	0xFF6
   686                           tablat	equ	0xFF5
   687                           postinc0	equ	0xFEE
   688                           wreg	equ	0xFE8
   689                           postdec1	equ	0xFE5
   690                           fsr1l	equ	0xFE1
   691                           
   692                           	psect	cstackCOMRAM
   693  000001                     __pcstackCOMRAM:
   694                           	opt stack 0
   695  000001                     ??_Lcd_Cmd:
   696  000001                     ??_Lcd_Chr_CP:
   697  000001                     ??_TRIANGULAR_GENERAR_1:
   698  000001                     ??_SENO_GENERAR_1:
   699  000001                     ??_SENO_GENERAR_2:
   700  000001                     ??_SENO_GENERAR_3:
   701  000001                     ??_isdigit:
   702  000001                     ??_tm_1s:
   703  000001                     ?___wmul:
   704                           	opt stack 0
   705  000001                     ?___awdiv:
   706                           	opt stack 0
   707  000001                     ?___lmul:
   708                           	opt stack 0
   709  000001                     ?___aldiv:
   710                           	opt stack 0
   711  000001                     ?___almod:
   712                           	opt stack 0
   713  000001                     ?___lldiv:
   714                           	opt stack 0
   715  000001                     Recuperar@tecl:
   716                           	opt stack 0
   717  000001                     ___wmul@multiplier:
   718                           	opt stack 0
   719  000001                     ___awdiv@dividend:
   720                           	opt stack 0
   721  000001                     ___lmul@multiplier:
   722                           	opt stack 0
   723  000001                     ___aldiv@dividend:
   724                           	opt stack 0
   725  000001                     ___almod@dividend:
   726                           	opt stack 0
   727  000001                     ___lldiv@dividend:
   728                           	opt stack 0
   729                           
   730                           ; 4 bytes @ 0x0
   731  000001                     	ds	1
   732  000002                     _isdigit$1196:
   733                           	opt stack 0
   734                           
   735                           ; 1 bytes @ 0x1
   736  000002                     	ds	1
   737  000003                     Lcd_Chr_CP@data:
   738                           	opt stack 0
   739  000003                     Lcd_Cmd@data:
   740                           	opt stack 0
   741  000003                     isdigit@c:
   742                           	opt stack 0
   743  000003                     ___wmul@multiplicand:
   744                           	opt stack 0
   745  000003                     ___awdiv@divisor:
   746                           	opt stack 0
   747                           
   748                           ; 2 bytes @ 0x2
   749  000003                     	ds	1
   750  000004                     ??_Lcd_Init:
   751  000004                     Lcd_Out@x:
   752                           	opt stack 0
   753  000004                     Lcd_Out2@x:
   754                           	opt stack 0
   755  000004                     lcd_goto@x:
   756                           	opt stack 0
   757                           
   758                           ; 2 bytes @ 0x3
   759  000004                     	ds	1
   760  000005                     Lcd_Init@data:
   761                           	opt stack 0
   762  000005                     ___awdiv@counter:
   763                           	opt stack 0
   764  000005                     Lcd_Out@buffer:
   765                           	opt stack 0
   766  000005                     Lcd_Out2@buffer:
   767                           	opt stack 0
   768  000005                     ___wmul@product:
   769                           	opt stack 0
   770  000005                     ___lmul@multiplicand:
   771                           	opt stack 0
   772  000005                     ___aldiv@divisor:
   773                           	opt stack 0
   774  000005                     ___almod@divisor:
   775                           	opt stack 0
   776  000005                     ___lldiv@divisor:
   777                           	opt stack 0
   778                           
   779                           ; 4 bytes @ 0x4
   780  000005                     	ds	1
   781  000006                     ___awdiv@sign:
   782                           	opt stack 0
   783  000006                     lcd_goto@y:
   784                           	opt stack 0
   785  000006                     SENO_GENERAR_3@valoresSeno:
   786                           	opt stack 0
   787  000006                     SENO_GENERAR_2@valoresSeno:
   788                           	opt stack 0
   789  000006                     SENO_GENERAR_1@valoresSeno:
   790                           	opt stack 0
   791  000006                     TRIANGULAR_GENERAR_1@valoresSeno:
   792                           	opt stack 0
   793                           
   794                           ; 40 bytes @ 0x5
   795  000006                     	ds	1
   796  000007                     ?_atoi:
   797                           	opt stack 0
   798  000007                     Lcd_Out@y:
   799                           	opt stack 0
   800  000007                     Lcd_Out2@y:
   801                           	opt stack 0
   802  000007                     atoi@s:
   803                           	opt stack 0
   804  000007                     ___awdiv@quotient:
   805                           	opt stack 0
   806                           
   807                           ; 2 bytes @ 0x6
   808  000007                     	ds	1
   809  000008                     ??_lcd_goto:
   810  000008                     Lcd_Out@data:
   811                           	opt stack 0
   812  000008                     Lcd_Out2@data:
   813                           	opt stack 0
   814                           
   815                           ; 1 bytes @ 0x7
   816  000008                     	ds	1
   817  000009                     ??_atoi:
   818  000009                     ??_TRIANGULAR_GENERAR_2:
   819  000009                     ??_TRIANGULAR_GENERAR_3:
   820  000009                     ___aldiv@counter:
   821                           	opt stack 0
   822  000009                     ___almod@counter:
   823                           	opt stack 0
   824  000009                     Imprimir_pantalla@N:
   825                           	opt stack 0
   826  000009                     ___lmul@product:
   827                           	opt stack 0
   828  000009                     ___lldiv@quotient:
   829                           	opt stack 0
   830                           
   831                           ; 4 bytes @ 0x8
   832  000009                     	ds	1
   833  00000A                     lcd_goto@data:
   834                           	opt stack 0
   835  00000A                     ___aldiv@sign:
   836                           	opt stack 0
   837  00000A                     ___almod@sign:
   838                           	opt stack 0
   839                           
   840                           ; 1 bytes @ 0x9
   841  00000A                     	ds	1
   842  00000B                     Imprimir_pantalla@fila:
   843                           	opt stack 0
   844  00000B                     atoi@sign:
   845                           	opt stack 0
   846  00000B                     Tec@cadena:
   847                           	opt stack 0
   848  00000B                     ___aldiv@quotient:
   849                           	opt stack 0
   850                           
   851                           ; 4 bytes @ 0xA
   852  00000B                     	ds	1
   853  00000C                     Imprimir_pantalla@columna:
   854                           	opt stack 0
   855  00000C                     atoi@a:
   856                           	opt stack 0
   857                           
   858                           ; 2 bytes @ 0xB
   859  00000C                     	ds	1
   860  00000D                     ___lldiv@counter:
   861                           	opt stack 0
   862  00000D                     Tec@i:
   863                           	opt stack 0
   864                           
   865                           ; 2 bytes @ 0xC
   866  00000D                     	ds	1
   867  00000E                     PWM_generar@duty:
   868                           	opt stack 0
   869  00000E                     TRIANGULAR_GENERAR_2@valoresSeno:
   870                           	opt stack 0
   871  00000E                     TRIANGULAR_GENERAR_3@valoresSeno:
   872                           	opt stack 0
   873                           
   874                           ; 40 bytes @ 0xD
   875  00000E                     	ds	1
   876  00000F                     ?_Conv_Entero:
   877                           	opt stack 0
   878  00000F                     Tec@aux:
   879                           	opt stack 0
   880  00000F                     Conv_Entero@numero:
   881                           	opt stack 0
   882                           
   883                           ; 4 bytes @ 0xE
   884  00000F                     	ds	1
   885  000010                     Tec@contador:
   886                           	opt stack 0
   887  000010                     PWM_generar@fpwm:
   888                           	opt stack 0
   889                           
   890                           ; 2 bytes @ 0xF
   891  000010                     	ds	2
   892  000012                     ??_PWM_generar:
   893  000012                     Tec@j:
   894                           	opt stack 0
   895                           
   896                           ; 2 bytes @ 0x11
   897  000012                     	ds	1
   898  000013                     Conv_Entero@conv:
   899                           	opt stack 0
   900                           
   901                           ; 2 bytes @ 0x12
   902  000013                     	ds	1
   903  000014                     Tec@Key:
   904                           	opt stack 0
   905                           
   906                           ; 1 bytes @ 0x13
   907  000014                     	ds	1
   908  000015                     ??_Conv_Entero:
   909  000015                     Frecuencia@frecuencia:
   910                           	opt stack 0
   911  000015                     Ciclo@ciclo:
   912                           	opt stack 0
   913                           
   914                           ; 2 bytes @ 0x14
   915  000015                     	ds	1
   916  000016                     PWM_generar@prescalador:
   917                           	opt stack 0
   918                           
   919                           ; 2 bytes @ 0x15
   920  000016                     	ds	1
   921  000017                     
   922                           ; 0 bytes @ 0x16
   923  000017                     	ds	1
   924  000018                     PWM_generar@AuxCCP2CON:
   925                           	opt stack 0
   926                           
   927                           ; 2 bytes @ 0x17
   928  000018                     	ds	2
   929  00001A                     PWM_generar@PR2cal:
   930                           	opt stack 0
   931  00001A                     Conv_Entero@convTemp:
   932                           	opt stack 0
   933                           
   934                           ; 21 bytes @ 0x19
   935  00001A                     	ds	4
   936  00001E                     PWM_generar@AuxCCPR2L:
   937                           	opt stack 0
   938                           
   939                           ; 4 bytes @ 0x1D
   940  00001E                     	ds	6
   941  000024                     SENO_GENERAR_3@k:
   942                           	opt stack 0
   943                           
   944                           ; 2 bytes @ 0x23
   945  000024                     	ds	2
   946  000026                     SENO_GENERAR_3@j:
   947                           	opt stack 0
   948                           
   949                           ; 2 bytes @ 0x25
   950  000026                     	ds	2
   951  000028                     SENO_GENERAR_3@i:
   952                           	opt stack 0
   953                           
   954                           ; 2 bytes @ 0x27
   955  000028                     	ds	2
   956  00002A                     SENO_GENERAR_2@k:
   957                           	opt stack 0
   958                           
   959                           ; 2 bytes @ 0x29
   960  00002A                     	ds	2
   961  00002C                     SENO_GENERAR_2@j:
   962                           	opt stack 0
   963                           
   964                           ; 2 bytes @ 0x2B
   965  00002C                     	ds	2
   966  00002E                     SENO_GENERAR_1@k:
   967                           	opt stack 0
   968  00002E                     SENO_GENERAR_2@i:
   969                           	opt stack 0
   970  00002E                     TRIANGULAR_GENERAR_1@k:
   971                           	opt stack 0
   972                           
   973                           ; 2 bytes @ 0x2D
   974  00002E                     	ds	1
   975  00002F                     Conv_Entero@num:
   976                           	opt stack 0
   977                           
   978                           ; 2 bytes @ 0x2E
   979  00002F                     	ds	1
   980  000030                     SENO_GENERAR_1@j:
   981                           	opt stack 0
   982  000030                     TRIANGULAR_GENERAR_1@j:
   983                           	opt stack 0
   984                           
   985                           ; 2 bytes @ 0x2F
   986  000030                     	ds	1
   987  000031                     Conv_Entero@i:
   988                           	opt stack 0
   989                           
   990                           ; 1 bytes @ 0x30
   991  000031                     	ds	1
   992  000032                     SENO_GENERAR_1@i:
   993                           	opt stack 0
   994  000032                     Conv_Entero@punteroActual:
   995                           	opt stack 0
   996  000032                     TRIANGULAR_GENERAR_1@i:
   997                           	opt stack 0
   998                           
   999                           ; 2 bytes @ 0x31
  1000  000032                     	ds	2
  1001  000034                     Conv_Entero@numeroReg:
  1002                           	opt stack 0
  1003                           
  1004                           ; 4 bytes @ 0x33
  1005  000034                     	ds	2
  1006  000036                     TRIANGULAR_GENERAR_2@k:
  1007                           	opt stack 0
  1008  000036                     TRIANGULAR_GENERAR_3@k:
  1009                           	opt stack 0
  1010                           
  1011                           ; 2 bytes @ 0x35
  1012  000036                     	ds	2
  1013  000038                     TRIANGULAR_GENERAR_2@j:
  1014                           	opt stack 0
  1015  000038                     TRIANGULAR_GENERAR_3@j:
  1016                           	opt stack 0
  1017                           
  1018                           ; 2 bytes @ 0x37
  1019  000038                     	ds	2
  1020  00003A                     TRIANGULAR_GENERAR_2@i:
  1021                           	opt stack 0
  1022  00003A                     TRIANGULAR_GENERAR_3@i:
  1023                           	opt stack 0
  1024                           
  1025                           ; 2 bytes @ 0x39
  1026  00003A                     	ds	2
  1027  00003C                     ??_main:
  1028                           
  1029                           ; 0 bytes @ 0x3B
  1030  00003C                     	ds	1
  1031  00003D                     main@zx:
  1032                           	opt stack 0
  1033                           
  1034                           ; 2 bytes @ 0x3C
  1035  00003D                     	ds	2
  1036  00003F                     main@zx_308:
  1037                           	opt stack 0
  1038                           
  1039                           ; 2 bytes @ 0x3E
  1040  00003F                     	ds	2
  1041  000041                     main@key:
  1042                           	opt stack 0
  1043                           
  1044                           ; 1 bytes @ 0x40
  1045  000041                     	ds	1
  1046                           tblptru	equ	0xFF8
  1047                           tblptrh	equ	0xFF7
  1048                           tblptrl	equ	0xFF6
  1049                           tablat	equ	0xFF5
  1050                           postinc0	equ	0xFEE
  1051                           wreg	equ	0xFE8
  1052                           postdec1	equ	0xFE5
  1053                           fsr1l	equ	0xFE1
  1054                           
  1055 ;;
  1056 ;;Main: autosize = 0, tempsize = 1, incstack = 0, save=0
  1057 ;;
  1058 ;; *************** function _main *****************
  1059 ;; Defined at:
  1060 ;;		line 28 in file "Main.c"
  1061 ;; Parameters:    Size  Location     Type
  1062 ;;		None
  1063 ;; Auto vars:     Size  Location     Type
  1064 ;;  zx              2   62[COMRAM] int 
  1065 ;;  zx              2   60[COMRAM] int 
  1066 ;;  key             1   64[COMRAM] unsigned char 
  1067 ;; Return value:  Size  Location     Type
  1068 ;;		None               void
  1069 ;; Registers used:
  1070 ;;		wreg, fsr0l, fsr0h, fsr1l, fsr1h, fsr2l, fsr2h, status,2, status,0, tblptrl, tblptrh, tblptru, prodl, prodh, cstack
  1071 ;; Tracked objects:
  1072 ;;		On entry : 0/0
  1073 ;;		On exit  : 0/0
  1074 ;;		Unchanged: 0/0
  1075 ;; Data sizes:     COMRAM   BANK0   BANK1   BANK2   BANK3   BANK4   BANK5   BANK6   BANK7
  1076 ;;      Params:         0       0       0       0       0       0       0       0       0
  1077 ;;      Locals:         5       0       0       0       0       0       0       0       0
  1078 ;;      Temps:          1       0       0       0       0       0       0       0       0
  1079 ;;      Totals:         6       0       0       0       0       0       0       0       0
  1080 ;;Total ram usage:        6 bytes
  1081 ;; Hardware stack levels required when called:    4
  1082 ;; This function calls:
  1083 ;;		_Ciclo
  1084 ;;		_Conv_Entero
  1085 ;;		_Frecuencia
  1086 ;;		_Imprimir_pantalla
  1087 ;;		_Lcd_Cmd
  1088 ;;		_Lcd_Init
  1089 ;;		_Lcd_Out
  1090 ;;		_Lcd_Out2
  1091 ;;		_PWM_generar
  1092 ;;		_Recuperar
  1093 ;;		_SENO_GENERAR_1
  1094 ;;		_SENO_GENERAR_2
  1095 ;;		_SENO_GENERAR_3
  1096 ;;		_TRIANGULAR_GENERAR_1
  1097 ;;		_TRIANGULAR_GENERAR_2
  1098 ;;		_TRIANGULAR_GENERAR_3
  1099 ;;		_atoi
  1100 ;;		_int_teclado
  1101 ;;		_tm_1s
  1102 ;; This function is called by:
  1103 ;;		Startup code after reset
  1104 ;; This function uses a non-reentrant model
  1105 ;;
  1106                           
  1107                           	psect	text0
  1108  0008E8                     __ptext0:
  1109                           	opt stack 0
  1110  0008E8                     _main:
  1111                           	opt stack 27
  1112                           
  1113                           ;Main.c: 30: char key;
  1114                           ;Main.c: 32: OSCCON=0b01010111;
  1115                           
  1116                           ;incstack = 0
  1117  0008E8  0E57               	movlw	87
  1118  0008EA  6ED3               	movwf	4051,c	;volatile
  1119                           
  1120                           ;Main.c: 33: ANSELD=0;
  1121  0008EC  0E00               	movlw	0
  1122  0008EE  010F               	movlb	15	; () banked
  1123  0008F0  6F5E               	movwf	94,b	;volatile
  1124                           
  1125                           ; BSR set to: 15
  1126                           ;Main.c: 34: Lcd_Init();
  1127  0008F2  EC5C  F00C         	call	_Lcd_Init	;wreg free
  1128                           
  1129                           ;Main.c: 35: int_teclado();
  1130  0008F6  EC73  F014         	call	_int_teclado	;wreg free
  1131  0008FA                     l3441:
  1132                           
  1133                           ;Main.c: 40: key = Recuperar();
  1134  0008FA  EC6C  F014         	call	_Recuperar	;wreg free
  1135  0008FE  6E41               	movwf	main@key,c
  1136                           
  1137                           ;Main.c: 44: if(key==' '){
  1138  000900  5041               	movf	main@key,w,c
  1139  000902  0A20               	xorlw	32
  1140  000904  A4D8               	btfss	status,2,c
  1141  000906  D05B               	goto	l3485
  1142                           
  1143                           ;Main.c: 45: q=1;
  1144  000908  0E00               	movlw	0
  1145  00090A  6E4B               	movwf	_q+1,c
  1146  00090C  0E01               	movlw	1
  1147  00090E  6E4A               	movwf	_q,c
  1148  000910                     l3447:
  1149                           
  1150                           ;Main.c: 47: int_teclado();
  1151  000910  EC73  F014         	call	_int_teclado	;wreg free
  1152                           
  1153                           ;Main.c: 48: Lcd_Init();
  1154  000914  EC5C  F00C         	call	_Lcd_Init	;wreg free
  1155                           
  1156                           ;Main.c: 49: Lcd_Cmd(1);
  1157  000918  0E01               	movlw	1
  1158  00091A  EC83  F00D         	call	_Lcd_Cmd
  1159                           
  1160                           ;Main.c: 50: Lcd_Cmd(12);
  1161  00091E  0E0C               	movlw	12
  1162  000920  EC83  F00D         	call	_Lcd_Cmd
  1163                           
  1164                           ;Main.c: 51: Lcd_Out2(1,1,"Universidad de ");
  1165  000924  0E01               	movlw	1
  1166  000926  6E04               	movwf	Lcd_Out2@x,c
  1167  000928  0E08               	movlw	high STR_1
  1168  00092A  6E06               	movwf	Lcd_Out2@buffer+1,c
  1169  00092C  0E01               	movlw	low STR_1
  1170  00092E  6E05               	movwf	Lcd_Out2@buffer,c
  1171  000930  0E01               	movlw	1
  1172  000932  ECFA  F011         	call	_Lcd_Out2
  1173                           
  1174                           ;Main.c: 52: tm_1s();
  1175  000936  EC42  F012         	call	_tm_1s	;wreg free
  1176                           
  1177                           ;Main.c: 53: Lcd_Out2(2,3,"Guanajuato");
  1178  00093A  0E03               	movlw	3
  1179  00093C  6E04               	movwf	Lcd_Out2@x,c
  1180  00093E  0E08               	movlw	high STR_2
  1181  000940  6E06               	movwf	Lcd_Out2@buffer+1,c
  1182  000942  0EA6               	movlw	low STR_2
  1183  000944  6E05               	movwf	Lcd_Out2@buffer,c
  1184  000946  0E02               	movlw	2
  1185  000948  ECFA  F011         	call	_Lcd_Out2
  1186                           
  1187                           ;Main.c: 54: tm_1s();
  1188  00094C  EC42  F012         	call	_tm_1s	;wreg free
  1189                           
  1190                           ;Main.c: 55: Lcd_Cmd(1);
  1191  000950  0E01               	movlw	1
  1192  000952  EC83  F00D         	call	_Lcd_Cmd
  1193                           
  1194                           ;Main.c: 56: Lcd_Out2(1,1,"Proyecto Final");
  1195  000956  0E01               	movlw	1
  1196  000958  6E04               	movwf	Lcd_Out2@x,c
  1197  00095A  0E08               	movlw	high STR_3
  1198  00095C  6E06               	movwf	Lcd_Out2@buffer+1,c
  1199  00095E  0E11               	movlw	low STR_3
  1200  000960  6E05               	movwf	Lcd_Out2@buffer,c
  1201  000962  0E01               	movlw	1
  1202  000964  ECFA  F011         	call	_Lcd_Out2
  1203                           
  1204                           ;Main.c: 57: Lcd_Out2(2,3,"Generador");
  1205  000968  0E03               	movlw	3
  1206  00096A  6E04               	movwf	Lcd_Out2@x,c
  1207  00096C  0E08               	movlw	high STR_4
  1208  00096E  6E06               	movwf	Lcd_Out2@buffer+1,c
  1209  000970  0EB1               	movlw	low STR_4
  1210  000972  6E05               	movwf	Lcd_Out2@buffer,c
  1211  000974  0E02               	movlw	2
  1212  000976  ECFA  F011         	call	_Lcd_Out2
  1213                           
  1214                           ;Main.c: 58: tm_1s();
  1215  00097A  EC42  F012         	call	_tm_1s	;wreg free
  1216                           
  1217                           ;Main.c: 59: Lcd_Cmd(1);
  1218  00097E  0E01               	movlw	1
  1219  000980  EC83  F00D         	call	_Lcd_Cmd
  1220                           
  1221                           ;Main.c: 60: Lcd_Cmd(12);
  1222  000984  0E0C               	movlw	12
  1223  000986  EC83  F00D         	call	_Lcd_Cmd
  1224                           
  1225                           ;Main.c: 61: _delay((unsigned long)((100)*(4000000/4000.0)));
  1226  00098A  0E82               	movlw	130
  1227  00098C  6E3C               	movwf	??_main& (0+255),c
  1228  00098E  0EDE               	movlw	222
  1229  000990                     u3357:
  1230  000990  2EE8               	decfsz	wreg,f,c
  1231  000992  D7FE               	goto	u3357
  1232  000994  2E3C               	decfsz	??_main& (0+255),f,c
  1233  000996  D7FC               	goto	u3357
  1234                           
  1235                           ;Main.c: 62: key=Recuperar();
  1236  000998  EC6C  F014         	call	_Recuperar	;wreg free
  1237  00099C  6E41               	movwf	main@key,c
  1238                           
  1239                           ;Main.c: 63: if(key=='D' | key=='0'){
  1240  00099E  5041               	movf	main@key,w,c
  1241  0009A0  0A44               	xorlw	68
  1242  0009A2  B4D8               	btfsc	status,2,c
  1243  0009A4  D004               	goto	l3481
  1244  0009A6  5041               	movf	main@key,w,c
  1245  0009A8  0A30               	xorlw	48
  1246  0009AA  A4D8               	btfss	status,2,c
  1247  0009AC  D004               	goto	l3483
  1248  0009AE                     l3481:
  1249                           
  1250                           ;Main.c: 64: q=0;
  1251  0009AE  0E00               	movlw	0
  1252  0009B0  6E4B               	movwf	_q+1,c
  1253  0009B2  0E00               	movlw	0
  1254  0009B4  6E4A               	movwf	_q,c
  1255  0009B6                     l3483:
  1256                           
  1257                           ;Main.c: 65: }
  1258                           ;Main.c: 66: }while(q==1);
  1259  0009B6  044A               	decf	_q,w,c
  1260  0009B8  104B               	iorwf	_q+1,w,c
  1261  0009BA  B4D8               	btfsc	status,2,c
  1262  0009BC  D7A9               	goto	l3447
  1263  0009BE                     l3485:
  1264                           
  1265                           ;Main.c: 67: }
  1266                           ;Main.c: 70: if(key=='D'){
  1267  0009BE  5041               	movf	main@key,w,c
  1268  0009C0  0A44               	xorlw	68
  1269  0009C2  A4D8               	btfss	status,2,c
  1270  0009C4  D35A               	goto	l3881
  1271                           
  1272                           ;Main.c: 71: key = Recuperar();
  1273  0009C6  EC6C  F014         	call	_Recuperar	;wreg free
  1274  0009CA  6E41               	movwf	main@key,c
  1275                           
  1276                           ;Main.c: 72: q=1;
  1277  0009CC  0E00               	movlw	0
  1278  0009CE  6E4B               	movwf	_q+1,c
  1279  0009D0  0E01               	movlw	1
  1280  0009D2  6E4A               	movwf	_q,c
  1281  0009D4                     l3491:
  1282                           
  1283                           ;Main.c: 74: Lcd_Init();
  1284  0009D4  EC5C  F00C         	call	_Lcd_Init	;wreg free
  1285                           
  1286                           ;Main.c: 75: Lcd_Cmd(1);
  1287  0009D8  0E01               	movlw	1
  1288  0009DA  EC83  F00D         	call	_Lcd_Cmd
  1289                           
  1290                           ;Main.c: 76: Lcd_Cmd(12);
  1291  0009DE  0E0C               	movlw	12
  1292  0009E0  EC83  F00D         	call	_Lcd_Cmd
  1293                           
  1294                           ;Main.c: 77: Lcd_Out2(1,1,"A.-Cuadrada");
  1295  0009E4  0E01               	movlw	1
  1296  0009E6  6E04               	movwf	Lcd_Out2@x,c
  1297  0009E8  0E08               	movlw	high STR_5
  1298  0009EA  6E06               	movwf	Lcd_Out2@buffer+1,c
  1299  0009EC  0E56               	movlw	low STR_5
  1300  0009EE  6E05               	movwf	Lcd_Out2@buffer,c
  1301  0009F0  0E01               	movlw	1
  1302  0009F2  ECFA  F011         	call	_Lcd_Out2
  1303                           
  1304                           ;Main.c: 78: Lcd_Out2(2,1,"B.-Senoidal");
  1305  0009F6  0E01               	movlw	1
  1306  0009F8  6E04               	movwf	Lcd_Out2@x,c
  1307  0009FA  0E08               	movlw	high STR_6
  1308  0009FC  6E06               	movwf	Lcd_Out2@buffer+1,c
  1309  0009FE  0E62               	movlw	low STR_6
  1310  000A00  6E05               	movwf	Lcd_Out2@buffer,c
  1311  000A02  0E02               	movlw	2
  1312  000A04  ECFA  F011         	call	_Lcd_Out2
  1313                           
  1314                           ;Main.c: 79: tm_1s();
  1315  000A08  EC42  F012         	call	_tm_1s	;wreg free
  1316                           
  1317                           ;Main.c: 80: key = Recuperar();
  1318  000A0C  EC6C  F014         	call	_Recuperar	;wreg free
  1319  000A10  6E41               	movwf	main@key,c
  1320                           
  1321                           ;Main.c: 81: Lcd_Init();
  1322  000A12  EC5C  F00C         	call	_Lcd_Init	;wreg free
  1323                           
  1324                           ;Main.c: 82: Lcd_Cmd(1);
  1325  000A16  0E01               	movlw	1
  1326  000A18  EC83  F00D         	call	_Lcd_Cmd
  1327                           
  1328                           ;Main.c: 83: Lcd_Cmd(12);
  1329  000A1C  0E0C               	movlw	12
  1330  000A1E  EC83  F00D         	call	_Lcd_Cmd
  1331                           
  1332                           ;Main.c: 84: Lcd_Out2(1,1,"C.-Triangular");
  1333  000A22  0E01               	movlw	1
  1334  000A24  6E04               	movwf	Lcd_Out2@x,c
  1335  000A26  0E08               	movlw	high STR_7
  1336  000A28  6E06               	movwf	Lcd_Out2@buffer+1,c
  1337  000A2A  0E3C               	movlw	low STR_7
  1338  000A2C  6E05               	movwf	Lcd_Out2@buffer,c
  1339  000A2E  0E01               	movlw	1
  1340  000A30  ECFA  F011         	call	_Lcd_Out2
  1341                           
  1342                           ;Main.c: 85: tm_1s();
  1343  000A34  EC42  F012         	call	_tm_1s	;wreg free
  1344                           
  1345                           ;Main.c: 86: key = Recuperar();
  1346  000A38  EC6C  F014         	call	_Recuperar	;wreg free
  1347  000A3C  6E41               	movwf	main@key,c
  1348                           
  1349                           ;Main.c: 89: if(key=='C'){
  1350  000A3E  5041               	movf	main@key,w,c
  1351  000A40  0A43               	xorlw	67
  1352  000A42  A4D8               	btfss	status,2,c
  1353  000A44  D0DA               	goto	l3637
  1354                           
  1355                           ;Main.c: 90: w=1;
  1356  000A46  0E00               	movlw	0
  1357  000A48  6E53               	movwf	_w+1,c
  1358  000A4A  0E01               	movlw	1
  1359  000A4C  6E52               	movwf	_w,c
  1360                           
  1361                           ;Main.c: 91: Lcd_Init();
  1362  000A4E  EC5C  F00C         	call	_Lcd_Init	;wreg free
  1363                           
  1364                           ;Main.c: 92: Lcd_Cmd(1);
  1365  000A52  0E01               	movlw	1
  1366  000A54  EC83  F00D         	call	_Lcd_Cmd
  1367                           
  1368                           ;Main.c: 93: Lcd_Cmd(12);
  1369  000A58  0E0C               	movlw	12
  1370  000A5A  EC83  F00D         	call	_Lcd_Cmd
  1371                           
  1372                           ;Main.c: 94: int_teclado();
  1373  000A5E  EC73  F014         	call	_int_teclado	;wreg free
  1374                           
  1375                           ;Main.c: 95: key=Recuperar();
  1376  000A62  EC6C  F014         	call	_Recuperar	;wreg free
  1377  000A66  6E41               	movwf	main@key,c
  1378  000A68                     l3531:
  1379                           
  1380                           ;Main.c: 97: Lcd_Init();
  1381  000A68  EC5C  F00C         	call	_Lcd_Init	;wreg free
  1382                           
  1383                           ;Main.c: 98: Lcd_Cmd(1);
  1384  000A6C  0E01               	movlw	1
  1385  000A6E  EC83  F00D         	call	_Lcd_Cmd
  1386                           
  1387                           ;Main.c: 99: Lcd_Cmd(12);
  1388  000A72  0E0C               	movlw	12
  1389  000A74  EC83  F00D         	call	_Lcd_Cmd
  1390                           
  1391                           ;Main.c: 100: Lcd_Out2(1,1,"A.-Senal 1");
  1392  000A78  0E01               	movlw	1
  1393  000A7A  6E04               	movwf	Lcd_Out2@x,c
  1394  000A7C  0E08               	movlw	high STR_23
  1395  000A7E  6E06               	movwf	Lcd_Out2@buffer+1,c
  1396  000A80  0E7A               	movlw	low STR_23
  1397  000A82  6E05               	movwf	Lcd_Out2@buffer,c
  1398  000A84  0E01               	movlw	1
  1399  000A86  ECFA  F011         	call	_Lcd_Out2
  1400                           
  1401                           ;Main.c: 101: Lcd_Out2(2,1,"B.-Seal 2");
  1402  000A8A  0E01               	movlw	1
  1403  000A8C  6E04               	movwf	Lcd_Out2@x,c
  1404  000A8E  0E08               	movlw	high STR_24
  1405  000A90  6E06               	movwf	Lcd_Out2@buffer+1,c
  1406  000A92  0E85               	movlw	low STR_24
  1407  000A94  6E05               	movwf	Lcd_Out2@buffer,c
  1408  000A96  0E02               	movlw	2
  1409  000A98  ECFA  F011         	call	_Lcd_Out2
  1410                           
  1411                           ;Main.c: 102: tm_1s();
  1412  000A9C  EC42  F012         	call	_tm_1s	;wreg free
  1413                           
  1414                           ;Main.c: 103: Lcd_Cmd(1);
  1415  000AA0  0E01               	movlw	1
  1416  000AA2  EC83  F00D         	call	_Lcd_Cmd
  1417                           
  1418                           ;Main.c: 104: Lcd_Cmd(12);
  1419  000AA6  0E0C               	movlw	12
  1420  000AA8  EC83  F00D         	call	_Lcd_Cmd
  1421                           
  1422                           ;Main.c: 105: Lcd_Out2(1,1,"C.-Senal 3");
  1423  000AAC  0E01               	movlw	1
  1424  000AAE  6E04               	movwf	Lcd_Out2@x,c
  1425  000AB0  0E08               	movlw	high STR_25
  1426  000AB2  6E06               	movwf	Lcd_Out2@buffer+1,c
  1427  000AB4  0E9B               	movlw	low STR_25
  1428  000AB6  6E05               	movwf	Lcd_Out2@buffer,c
  1429  000AB8  0E01               	movlw	1
  1430  000ABA  ECFA  F011         	call	_Lcd_Out2
  1431                           
  1432                           ;Main.c: 106: tm_1s();
  1433  000ABE  EC42  F012         	call	_tm_1s	;wreg free
  1434                           
  1435                           ;Main.c: 107: key = Recuperar();
  1436  000AC2  EC6C  F014         	call	_Recuperar	;wreg free
  1437  000AC6  6E41               	movwf	main@key,c
  1438                           
  1439                           ;Main.c: 109: if(key=='A'){
  1440  000AC8  5041               	movf	main@key,w,c
  1441  000ACA  0A41               	xorlw	65
  1442  000ACC  A4D8               	btfss	status,2,c
  1443  000ACE  D02B               	goto	l3579
  1444                           
  1445                           ;Main.c: 110: q=1;
  1446  000AD0  0E00               	movlw	0
  1447  000AD2  6E4B               	movwf	_q+1,c
  1448  000AD4  0E01               	movlw	1
  1449  000AD6  6E4A               	movwf	_q,c
  1450                           
  1451                           ;Main.c: 111: Lcd_Init();
  1452  000AD8  EC5C  F00C         	call	_Lcd_Init	;wreg free
  1453                           
  1454                           ;Main.c: 112: Lcd_Cmd(1);
  1455  000ADC  0E01               	movlw	1
  1456  000ADE  EC83  F00D         	call	_Lcd_Cmd
  1457                           
  1458                           ;Main.c: 113: Lcd_Cmd(12);
  1459  000AE2  0E0C               	movlw	12
  1460  000AE4  EC83  F00D         	call	_Lcd_Cmd
  1461                           
  1462                           ;Main.c: 114: Lcd_Out2(1,1,"A.-Senal 1");
  1463  000AE8  0E01               	movlw	1
  1464  000AEA  6E04               	movwf	Lcd_Out2@x,c
  1465  000AEC  0E08               	movlw	high STR_23
  1466  000AEE  6E06               	movwf	Lcd_Out2@buffer+1,c
  1467  000AF0  0E7A               	movlw	low STR_23
  1468  000AF2  6E05               	movwf	Lcd_Out2@buffer,c
  1469  000AF4  0E01               	movlw	1
  1470  000AF6  ECFA  F011         	call	_Lcd_Out2
  1471                           
  1472                           ;Main.c: 115: int_teclado();
  1473  000AFA  EC73  F014         	call	_int_teclado	;wreg free
  1474                           
  1475                           ;Main.c: 116: key=Recuperar();
  1476  000AFE  EC6C  F014         	call	_Recuperar	;wreg free
  1477  000B02  6E41               	movwf	main@key,c
  1478  000B04                     l3569:
  1479                           
  1480                           ;Main.c: 118: TRIANGULAR_GENERAR_1();
  1481  000B04  EC94  F00E         	call	_TRIANGULAR_GENERAR_1	;wreg free
  1482                           
  1483                           ;Main.c: 119: key=Recuperar();
  1484  000B08  EC6C  F014         	call	_Recuperar	;wreg free
  1485  000B0C  6E41               	movwf	main@key,c
  1486                           
  1487                           ;Main.c: 120: if(key=='*'){q=0;}
  1488  000B0E  5041               	movf	main@key,w,c
  1489  000B10  0A2A               	xorlw	42
  1490  000B12  A4D8               	btfss	status,2,c
  1491  000B14  D004               	goto	l3577
  1492  000B16  0E00               	movlw	0
  1493  000B18  6E4B               	movwf	_q+1,c
  1494  000B1A  0E00               	movlw	0
  1495  000B1C  6E4A               	movwf	_q,c
  1496  000B1E                     l3577:
  1497                           
  1498                           ;Main.c: 121: }while(q==1);
  1499  000B1E  044A               	decf	_q,w,c
  1500  000B20  104B               	iorwf	_q+1,w,c
  1501  000B22  B4D8               	btfsc	status,2,c
  1502  000B24  D7EF               	goto	l3569
  1503  000B26                     l3579:
  1504                           
  1505                           ;Main.c: 122: }
  1506                           ;Main.c: 125: if(key=='B'){
  1507  000B26  5041               	movf	main@key,w,c
  1508  000B28  0A42               	xorlw	66
  1509  000B2A  A4D8               	btfss	status,2,c
  1510  000B2C  D02B               	goto	l3605
  1511                           
  1512                           ;Main.c: 126: q=1;
  1513  000B2E  0E00               	movlw	0
  1514  000B30  6E4B               	movwf	_q+1,c
  1515  000B32  0E01               	movlw	1
  1516  000B34  6E4A               	movwf	_q,c
  1517                           
  1518                           ;Main.c: 127: Lcd_Init();
  1519  000B36  EC5C  F00C         	call	_Lcd_Init	;wreg free
  1520                           
  1521                           ;Main.c: 128: Lcd_Cmd(1);
  1522  000B3A  0E01               	movlw	1
  1523  000B3C  EC83  F00D         	call	_Lcd_Cmd
  1524                           
  1525                           ;Main.c: 129: Lcd_Cmd(12);
  1526  000B40  0E0C               	movlw	12
  1527  000B42  EC83  F00D         	call	_Lcd_Cmd
  1528                           
  1529                           ;Main.c: 130: Lcd_Out2(1,1,"B.-Senal 2");
  1530  000B46  0E01               	movlw	1
  1531  000B48  6E04               	movwf	Lcd_Out2@x,c
  1532  000B4A  0E08               	movlw	high STR_27
  1533  000B4C  6E06               	movwf	Lcd_Out2@buffer+1,c
  1534  000B4E  0E90               	movlw	low STR_27
  1535  000B50  6E05               	movwf	Lcd_Out2@buffer,c
  1536  000B52  0E01               	movlw	1
  1537  000B54  ECFA  F011         	call	_Lcd_Out2
  1538                           
  1539                           ;Main.c: 131: int_teclado();
  1540  000B58  EC73  F014         	call	_int_teclado	;wreg free
  1541                           
  1542                           ;Main.c: 132: key=Recuperar();
  1543  000B5C  EC6C  F014         	call	_Recuperar	;wreg free
  1544  000B60  6E41               	movwf	main@key,c
  1545  000B62                     l3595:
  1546                           
  1547                           ;Main.c: 134: TRIANGULAR_GENERAR_2();
  1548  000B62  EC21  F00B         	call	_TRIANGULAR_GENERAR_2	;wreg free
  1549                           
  1550                           ;Main.c: 135: key=Recuperar();
  1551  000B66  EC6C  F014         	call	_Recuperar	;wreg free
  1552  000B6A  6E41               	movwf	main@key,c
  1553                           
  1554                           ;Main.c: 136: if(key=='*'){q=0;}
  1555  000B6C  5041               	movf	main@key,w,c
  1556  000B6E  0A2A               	xorlw	42
  1557  000B70  A4D8               	btfss	status,2,c
  1558  000B72  D004               	goto	l3603
  1559  000B74  0E00               	movlw	0
  1560  000B76  6E4B               	movwf	_q+1,c
  1561  000B78  0E00               	movlw	0
  1562  000B7A  6E4A               	movwf	_q,c
  1563  000B7C                     l3603:
  1564                           
  1565                           ;Main.c: 137: }while(q==1);
  1566  000B7C  044A               	decf	_q,w,c
  1567  000B7E  104B               	iorwf	_q+1,w,c
  1568  000B80  B4D8               	btfsc	status,2,c
  1569  000B82  D7EF               	goto	l3595
  1570  000B84                     l3605:
  1571                           
  1572                           ;Main.c: 138: }
  1573                           ;Main.c: 140: if(key=='C'){
  1574  000B84  5041               	movf	main@key,w,c
  1575  000B86  0A43               	xorlw	67
  1576  000B88  A4D8               	btfss	status,2,c
  1577  000B8A  D02B               	goto	l3631
  1578                           
  1579                           ;Main.c: 141: q=1;
  1580  000B8C  0E00               	movlw	0
  1581  000B8E  6E4B               	movwf	_q+1,c
  1582  000B90  0E01               	movlw	1
  1583  000B92  6E4A               	movwf	_q,c
  1584                           
  1585                           ;Main.c: 142: Lcd_Init();
  1586  000B94  EC5C  F00C         	call	_Lcd_Init	;wreg free
  1587                           
  1588                           ;Main.c: 143: Lcd_Cmd(1);
  1589  000B98  0E01               	movlw	1
  1590  000B9A  EC83  F00D         	call	_Lcd_Cmd
  1591                           
  1592                           ;Main.c: 144: Lcd_Cmd(12);
  1593  000B9E  0E0C               	movlw	12
  1594  000BA0  EC83  F00D         	call	_Lcd_Cmd
  1595                           
  1596                           ;Main.c: 145: Lcd_Out2(1,1,"C.-Senal 3");
  1597  000BA4  0E01               	movlw	1
  1598  000BA6  6E04               	movwf	Lcd_Out2@x,c
  1599  000BA8  0E08               	movlw	high STR_25
  1600  000BAA  6E06               	movwf	Lcd_Out2@buffer+1,c
  1601  000BAC  0E9B               	movlw	low STR_25
  1602  000BAE  6E05               	movwf	Lcd_Out2@buffer,c
  1603  000BB0  0E01               	movlw	1
  1604  000BB2  ECFA  F011         	call	_Lcd_Out2
  1605                           
  1606                           ;Main.c: 146: int_teclado();
  1607  000BB6  EC73  F014         	call	_int_teclado	;wreg free
  1608                           
  1609                           ;Main.c: 147: key=Recuperar();
  1610  000BBA  EC6C  F014         	call	_Recuperar	;wreg free
  1611  000BBE  6E41               	movwf	main@key,c
  1612  000BC0                     l3621:
  1613                           
  1614                           ;Main.c: 149: TRIANGULAR_GENERAR_3();
  1615  000BC0  EC7C  F00A         	call	_TRIANGULAR_GENERAR_3	;wreg free
  1616                           
  1617                           ;Main.c: 150: key=Recuperar();
  1618  000BC4  EC6C  F014         	call	_Recuperar	;wreg free
  1619  000BC8  6E41               	movwf	main@key,c
  1620                           
  1621                           ;Main.c: 151: if(key=='*'){q=0;}
  1622  000BCA  5041               	movf	main@key,w,c
  1623  000BCC  0A2A               	xorlw	42
  1624  000BCE  A4D8               	btfss	status,2,c
  1625  000BD0  D004               	goto	l3629
  1626  000BD2  0E00               	movlw	0
  1627  000BD4  6E4B               	movwf	_q+1,c
  1628  000BD6  0E00               	movlw	0
  1629  000BD8  6E4A               	movwf	_q,c
  1630  000BDA                     l3629:
  1631                           
  1632                           ;Main.c: 152: }while(q==1);
  1633  000BDA  044A               	decf	_q,w,c
  1634  000BDC  104B               	iorwf	_q+1,w,c
  1635  000BDE  B4D8               	btfsc	status,2,c
  1636  000BE0  D7EF               	goto	l3621
  1637  000BE2                     l3631:
  1638                           
  1639                           ;Main.c: 153: }
  1640                           ;Main.c: 155: if(key=='D'){w=0;}
  1641  000BE2  5041               	movf	main@key,w,c
  1642  000BE4  0A44               	xorlw	68
  1643  000BE6  A4D8               	btfss	status,2,c
  1644  000BE8  D004               	goto	l3635
  1645  000BEA  0E00               	movlw	0
  1646  000BEC  6E53               	movwf	_w+1,c
  1647  000BEE  0E00               	movlw	0
  1648  000BF0  6E52               	movwf	_w,c
  1649  000BF2                     l3635:
  1650                           
  1651                           ;Main.c: 156: }while(w==1);
  1652  000BF2  0452               	decf	_w,w,c
  1653  000BF4  1053               	iorwf	_w+1,w,c
  1654  000BF6  B4D8               	btfsc	status,2,c
  1655  000BF8  D737               	goto	l3531
  1656  000BFA                     l3637:
  1657                           
  1658                           ;Main.c: 157: }
  1659                           ;Main.c: 162: if(key=='B'){
  1660  000BFA  5041               	movf	main@key,w,c
  1661  000BFC  0A42               	xorlw	66
  1662  000BFE  A4D8               	btfss	status,2,c
  1663  000C00  D0DA               	goto	l3757
  1664                           
  1665                           ;Main.c: 163: w=1;
  1666  000C02  0E00               	movlw	0
  1667  000C04  6E53               	movwf	_w+1,c
  1668  000C06  0E01               	movlw	1
  1669  000C08  6E52               	movwf	_w,c
  1670                           
  1671                           ;Main.c: 164: Lcd_Init();
  1672  000C0A  EC5C  F00C         	call	_Lcd_Init	;wreg free
  1673                           
  1674                           ;Main.c: 165: Lcd_Cmd(1);
  1675  000C0E  0E01               	movlw	1
  1676  000C10  EC83  F00D         	call	_Lcd_Cmd
  1677                           
  1678                           ;Main.c: 166: Lcd_Cmd(12);
  1679  000C14  0E0C               	movlw	12
  1680  000C16  EC83  F00D         	call	_Lcd_Cmd
  1681                           
  1682                           ;Main.c: 167: int_teclado();
  1683  000C1A  EC73  F014         	call	_int_teclado	;wreg free
  1684                           
  1685                           ;Main.c: 168: key=Recuperar();
  1686  000C1E  EC6C  F014         	call	_Recuperar	;wreg free
  1687  000C22  6E41               	movwf	main@key,c
  1688  000C24                     l3651:
  1689                           
  1690                           ;Main.c: 170: Lcd_Init();
  1691  000C24  EC5C  F00C         	call	_Lcd_Init	;wreg free
  1692                           
  1693                           ;Main.c: 171: Lcd_Cmd(1);
  1694  000C28  0E01               	movlw	1
  1695  000C2A  EC83  F00D         	call	_Lcd_Cmd
  1696                           
  1697                           ;Main.c: 172: Lcd_Cmd(12);
  1698  000C2E  0E0C               	movlw	12
  1699  000C30  EC83  F00D         	call	_Lcd_Cmd
  1700                           
  1701                           ;Main.c: 173: Lcd_Out2(1,1,"A.-Senal 1");
  1702  000C34  0E01               	movlw	1
  1703  000C36  6E04               	movwf	Lcd_Out2@x,c
  1704  000C38  0E08               	movlw	high STR_23
  1705  000C3A  6E06               	movwf	Lcd_Out2@buffer+1,c
  1706  000C3C  0E7A               	movlw	low STR_23
  1707  000C3E  6E05               	movwf	Lcd_Out2@buffer,c
  1708  000C40  0E01               	movlw	1
  1709  000C42  ECFA  F011         	call	_Lcd_Out2
  1710                           
  1711                           ;Main.c: 174: Lcd_Out2(2,1,"B.-Seal 2");
  1712  000C46  0E01               	movlw	1
  1713  000C48  6E04               	movwf	Lcd_Out2@x,c
  1714  000C4A  0E08               	movlw	high STR_24
  1715  000C4C  6E06               	movwf	Lcd_Out2@buffer+1,c
  1716  000C4E  0E85               	movlw	low STR_24
  1717  000C50  6E05               	movwf	Lcd_Out2@buffer,c
  1718  000C52  0E02               	movlw	2
  1719  000C54  ECFA  F011         	call	_Lcd_Out2
  1720                           
  1721                           ;Main.c: 175: tm_1s();
  1722  000C58  EC42  F012         	call	_tm_1s	;wreg free
  1723                           
  1724                           ;Main.c: 176: Lcd_Cmd(1);
  1725  000C5C  0E01               	movlw	1
  1726  000C5E  EC83  F00D         	call	_Lcd_Cmd
  1727                           
  1728                           ;Main.c: 177: Lcd_Cmd(12);
  1729  000C62  0E0C               	movlw	12
  1730  000C64  EC83  F00D         	call	_Lcd_Cmd
  1731                           
  1732                           ;Main.c: 178: Lcd_Out2(1,1,"C.-Senal 3");
  1733  000C68  0E01               	movlw	1
  1734  000C6A  6E04               	movwf	Lcd_Out2@x,c
  1735  000C6C  0E08               	movlw	high STR_25
  1736  000C6E  6E06               	movwf	Lcd_Out2@buffer+1,c
  1737  000C70  0E9B               	movlw	low STR_25
  1738  000C72  6E05               	movwf	Lcd_Out2@buffer,c
  1739  000C74  0E01               	movlw	1
  1740  000C76  ECFA  F011         	call	_Lcd_Out2
  1741                           
  1742                           ;Main.c: 179: tm_1s();
  1743  000C7A  EC42  F012         	call	_tm_1s	;wreg free
  1744                           
  1745                           ;Main.c: 180: key = Recuperar();
  1746  000C7E  EC6C  F014         	call	_Recuperar	;wreg free
  1747  000C82  6E41               	movwf	main@key,c
  1748                           
  1749                           ;Main.c: 182: if(key=='A'){
  1750  000C84  5041               	movf	main@key,w,c
  1751  000C86  0A41               	xorlw	65
  1752  000C88  A4D8               	btfss	status,2,c
  1753  000C8A  D02B               	goto	l3699
  1754                           
  1755                           ;Main.c: 183: q=1;
  1756  000C8C  0E00               	movlw	0
  1757  000C8E  6E4B               	movwf	_q+1,c
  1758  000C90  0E01               	movlw	1
  1759  000C92  6E4A               	movwf	_q,c
  1760                           
  1761                           ;Main.c: 184: Lcd_Init();
  1762  000C94  EC5C  F00C         	call	_Lcd_Init	;wreg free
  1763                           
  1764                           ;Main.c: 185: Lcd_Cmd(1);
  1765  000C98  0E01               	movlw	1
  1766  000C9A  EC83  F00D         	call	_Lcd_Cmd
  1767                           
  1768                           ;Main.c: 186: Lcd_Cmd(12);
  1769  000C9E  0E0C               	movlw	12
  1770  000CA0  EC83  F00D         	call	_Lcd_Cmd
  1771                           
  1772                           ;Main.c: 187: Lcd_Out2(1,1,"A.-Senal 1");
  1773  000CA4  0E01               	movlw	1
  1774  000CA6  6E04               	movwf	Lcd_Out2@x,c
  1775  000CA8  0E08               	movlw	high STR_23
  1776  000CAA  6E06               	movwf	Lcd_Out2@buffer+1,c
  1777  000CAC  0E7A               	movlw	low STR_23
  1778  000CAE  6E05               	movwf	Lcd_Out2@buffer,c
  1779  000CB0  0E01               	movlw	1
  1780  000CB2  ECFA  F011         	call	_Lcd_Out2
  1781                           
  1782                           ;Main.c: 188: int_teclado();
  1783  000CB6  EC73  F014         	call	_int_teclado	;wreg free
  1784                           
  1785                           ;Main.c: 189: key=Recuperar();
  1786  000CBA  EC6C  F014         	call	_Recuperar	;wreg free
  1787  000CBE  6E41               	movwf	main@key,c
  1788  000CC0                     l3689:
  1789                           
  1790                           ;Main.c: 191: SENO_GENERAR_1();
  1791  000CC0  EC0B  F010         	call	_SENO_GENERAR_1	;wreg free
  1792                           
  1793                           ;Main.c: 192: key=Recuperar();
  1794  000CC4  EC6C  F014         	call	_Recuperar	;wreg free
  1795  000CC8  6E41               	movwf	main@key,c
  1796                           
  1797                           ;Main.c: 193: if(key=='*'){q=0;}
  1798  000CCA  5041               	movf	main@key,w,c
  1799  000CCC  0A2A               	xorlw	42
  1800  000CCE  A4D8               	btfss	status,2,c
  1801  000CD0  D004               	goto	l3697
  1802  000CD2  0E00               	movlw	0
  1803  000CD4  6E4B               	movwf	_q+1,c
  1804  000CD6  0E00               	movlw	0
  1805  000CD8  6E4A               	movwf	_q,c
  1806  000CDA                     l3697:
  1807                           
  1808                           ;Main.c: 194: }while(q==1);
  1809  000CDA  044A               	decf	_q,w,c
  1810  000CDC  104B               	iorwf	_q+1,w,c
  1811  000CDE  B4D8               	btfsc	status,2,c
  1812  000CE0  D7EF               	goto	l3689
  1813  000CE2                     l3699:
  1814                           
  1815                           ;Main.c: 195: }
  1816                           ;Main.c: 198: if(key=='B'){
  1817  000CE2  5041               	movf	main@key,w,c
  1818  000CE4  0A42               	xorlw	66
  1819  000CE6  A4D8               	btfss	status,2,c
  1820  000CE8  D02B               	goto	l3725
  1821                           
  1822                           ;Main.c: 199: q=1;
  1823  000CEA  0E00               	movlw	0
  1824  000CEC  6E4B               	movwf	_q+1,c
  1825  000CEE  0E01               	movlw	1
  1826  000CF0  6E4A               	movwf	_q,c
  1827                           
  1828                           ;Main.c: 200: Lcd_Init();
  1829  000CF2  EC5C  F00C         	call	_Lcd_Init	;wreg free
  1830                           
  1831                           ;Main.c: 201: Lcd_Cmd(1);
  1832  000CF6  0E01               	movlw	1
  1833  000CF8  EC83  F00D         	call	_Lcd_Cmd
  1834                           
  1835                           ;Main.c: 202: Lcd_Cmd(12);
  1836  000CFC  0E0C               	movlw	12
  1837  000CFE  EC83  F00D         	call	_Lcd_Cmd
  1838                           
  1839                           ;Main.c: 203: Lcd_Out2(1,1,"B.-Senal 2");
  1840  000D02  0E01               	movlw	1
  1841  000D04  6E04               	movwf	Lcd_Out2@x,c
  1842  000D06  0E08               	movlw	high STR_27
  1843  000D08  6E06               	movwf	Lcd_Out2@buffer+1,c
  1844  000D0A  0E90               	movlw	low STR_27
  1845  000D0C  6E05               	movwf	Lcd_Out2@buffer,c
  1846  000D0E  0E01               	movlw	1
  1847  000D10  ECFA  F011         	call	_Lcd_Out2
  1848                           
  1849                           ;Main.c: 204: int_teclado();
  1850  000D14  EC73  F014         	call	_int_teclado	;wreg free
  1851                           
  1852                           ;Main.c: 205: key=Recuperar();
  1853  000D18  EC6C  F014         	call	_Recuperar	;wreg free
  1854  000D1C  6E41               	movwf	main@key,c
  1855  000D1E                     l3715:
  1856                           
  1857                           ;Main.c: 207: SENO_GENERAR_2();
  1858  000D1E  EC8E  F00F         	call	_SENO_GENERAR_2	;wreg free
  1859                           
  1860                           ;Main.c: 208: key=Recuperar();
  1861  000D22  EC6C  F014         	call	_Recuperar	;wreg free
  1862  000D26  6E41               	movwf	main@key,c
  1863                           
  1864                           ;Main.c: 209: if(key=='*'){q=0;}
  1865  000D28  5041               	movf	main@key,w,c
  1866  000D2A  0A2A               	xorlw	42
  1867  000D2C  A4D8               	btfss	status,2,c
  1868  000D2E  D004               	goto	l3723
  1869  000D30  0E00               	movlw	0
  1870  000D32  6E4B               	movwf	_q+1,c
  1871  000D34  0E00               	movlw	0
  1872  000D36  6E4A               	movwf	_q,c
  1873  000D38                     l3723:
  1874                           
  1875                           ;Main.c: 210: }while(q==1);
  1876  000D38  044A               	decf	_q,w,c
  1877  000D3A  104B               	iorwf	_q+1,w,c
  1878  000D3C  B4D8               	btfsc	status,2,c
  1879  000D3E  D7EF               	goto	l3715
  1880  000D40                     l3725:
  1881                           
  1882                           ;Main.c: 211: }
  1883                           ;Main.c: 213: if(key=='C'){
  1884  000D40  5041               	movf	main@key,w,c
  1885  000D42  0A43               	xorlw	67
  1886  000D44  A4D8               	btfss	status,2,c
  1887  000D46  D02B               	goto	l3751
  1888                           
  1889                           ;Main.c: 214: q=1;
  1890  000D48  0E00               	movlw	0
  1891  000D4A  6E4B               	movwf	_q+1,c
  1892  000D4C  0E01               	movlw	1
  1893  000D4E  6E4A               	movwf	_q,c
  1894                           
  1895                           ;Main.c: 215: Lcd_Init();
  1896  000D50  EC5C  F00C         	call	_Lcd_Init	;wreg free
  1897                           
  1898                           ;Main.c: 216: Lcd_Cmd(1);
  1899  000D54  0E01               	movlw	1
  1900  000D56  EC83  F00D         	call	_Lcd_Cmd
  1901                           
  1902                           ;Main.c: 217: Lcd_Cmd(12);
  1903  000D5A  0E0C               	movlw	12
  1904  000D5C  EC83  F00D         	call	_Lcd_Cmd
  1905                           
  1906                           ;Main.c: 218: Lcd_Out2(1,1,"C.-Senal 3");
  1907  000D60  0E01               	movlw	1
  1908  000D62  6E04               	movwf	Lcd_Out2@x,c
  1909  000D64  0E08               	movlw	high STR_25
  1910  000D66  6E06               	movwf	Lcd_Out2@buffer+1,c
  1911  000D68  0E9B               	movlw	low STR_25
  1912  000D6A  6E05               	movwf	Lcd_Out2@buffer,c
  1913  000D6C  0E01               	movlw	1
  1914  000D6E  ECFA  F011         	call	_Lcd_Out2
  1915                           
  1916                           ;Main.c: 219: int_teclado();
  1917  000D72  EC73  F014         	call	_int_teclado	;wreg free
  1918                           
  1919                           ;Main.c: 220: key=Recuperar();
  1920  000D76  EC6C  F014         	call	_Recuperar	;wreg free
  1921  000D7A  6E41               	movwf	main@key,c
  1922  000D7C                     l3741:
  1923                           
  1924                           ;Main.c: 222: SENO_GENERAR_3();
  1925  000D7C  EC11  F00F         	call	_SENO_GENERAR_3	;wreg free
  1926                           
  1927                           ;Main.c: 223: key=Recuperar();
  1928  000D80  EC6C  F014         	call	_Recuperar	;wreg free
  1929  000D84  6E41               	movwf	main@key,c
  1930                           
  1931                           ;Main.c: 224: if(key=='*'){q=0;}
  1932  000D86  5041               	movf	main@key,w,c
  1933  000D88  0A2A               	xorlw	42
  1934  000D8A  A4D8               	btfss	status,2,c
  1935  000D8C  D004               	goto	l3749
  1936  000D8E  0E00               	movlw	0
  1937  000D90  6E4B               	movwf	_q+1,c
  1938  000D92  0E00               	movlw	0
  1939  000D94  6E4A               	movwf	_q,c
  1940  000D96                     l3749:
  1941                           
  1942                           ;Main.c: 225: }while(q==1);
  1943  000D96  044A               	decf	_q,w,c
  1944  000D98  104B               	iorwf	_q+1,w,c
  1945  000D9A  B4D8               	btfsc	status,2,c
  1946  000D9C  D7EF               	goto	l3741
  1947  000D9E                     l3751:
  1948                           
  1949                           ;Main.c: 226: }
  1950                           ;Main.c: 228: if(key=='D'){w=0;}
  1951  000D9E  5041               	movf	main@key,w,c
  1952  000DA0  0A44               	xorlw	68
  1953  000DA2  A4D8               	btfss	status,2,c
  1954  000DA4  D004               	goto	l3755
  1955  000DA6  0E00               	movlw	0
  1956  000DA8  6E53               	movwf	_w+1,c
  1957  000DAA  0E00               	movlw	0
  1958  000DAC  6E52               	movwf	_w,c
  1959  000DAE                     l3755:
  1960                           
  1961                           ;Main.c: 229: }while(w==1);
  1962  000DAE  0452               	decf	_w,w,c
  1963  000DB0  1053               	iorwf	_w+1,w,c
  1964  000DB2  B4D8               	btfsc	status,2,c
  1965  000DB4  D737               	goto	l3651
  1966  000DB6                     l3757:
  1967                           
  1968                           ;Main.c: 230: }
  1969                           ;Main.c: 233: if(key=='A'){
  1970  000DB6  5041               	movf	main@key,w,c
  1971  000DB8  0A41               	xorlw	65
  1972  000DBA  A4D8               	btfss	status,2,c
  1973  000DBC  D14F               	goto	l3873
  1974                           
  1975                           ;Main.c: 234: w=1;
  1976  000DBE  0E00               	movlw	0
  1977  000DC0  6E53               	movwf	_w+1,c
  1978  000DC2  0E01               	movlw	1
  1979  000DC4  6E52               	movwf	_w,c
  1980  000DC6                     l3761:
  1981                           
  1982                           ;Main.c: 237: Lcd_Init();
  1983  000DC6  EC5C  F00C         	call	_Lcd_Init	;wreg free
  1984                           
  1985                           ;Main.c: 238: Lcd_Cmd(1);
  1986  000DCA  0E01               	movlw	1
  1987  000DCC  EC83  F00D         	call	_Lcd_Cmd
  1988                           
  1989                           ;Main.c: 239: Lcd_Cmd(12);
  1990  000DD0  0E0C               	movlw	12
  1991  000DD2  EC83  F00D         	call	_Lcd_Cmd
  1992                           
  1993                           ;Main.c: 240: Lcd_Out2(1,1,"1.-Datos");
  1994  000DD6  0E01               	movlw	1
  1995  000DD8  6E04               	movwf	Lcd_Out2@x,c
  1996  000DDA  0E08               	movlw	high STR_8
  1997  000DDC  6E06               	movwf	Lcd_Out2@buffer+1,c
  1998  000DDE  0EC4               	movlw	low STR_8
  1999  000DE0  6E05               	movwf	Lcd_Out2@buffer,c
  2000  000DE2  0E01               	movlw	1
  2001  000DE4  ECFA  F011         	call	_Lcd_Out2
  2002                           
  2003                           ;Main.c: 241: Lcd_Out2(2,1,"2.-Comenzar");
  2004  000DE8  0E01               	movlw	1
  2005  000DEA  6E04               	movwf	Lcd_Out2@x,c
  2006  000DEC  0E08               	movlw	high STR_9
  2007  000DEE  6E06               	movwf	Lcd_Out2@buffer+1,c
  2008  000DF0  0E6E               	movlw	low STR_9
  2009  000DF2  6E05               	movwf	Lcd_Out2@buffer,c
  2010  000DF4  0E02               	movlw	2
  2011  000DF6  ECFA  F011         	call	_Lcd_Out2
  2012                           
  2013                           ;Main.c: 242: tm_1s();
  2014  000DFA  EC42  F012         	call	_tm_1s	;wreg free
  2015                           
  2016                           ;Main.c: 243: key=Recuperar();
  2017  000DFE  EC6C  F014         	call	_Recuperar	;wreg free
  2018  000E02  6E41               	movwf	main@key,c
  2019                           
  2020                           ;Main.c: 244: if(key=='1') {
  2021  000E04  5041               	movf	main@key,w,c
  2022  000E06  0A31               	xorlw	49
  2023  000E08  A4D8               	btfss	status,2,c
  2024  000E0A  D093               	goto	l3833
  2025                           
  2026                           ;Main.c: 245: r=1;
  2027  000E0C  0E00               	movlw	0
  2028  000E0E  6E4D               	movwf	_r+1,c
  2029  000E10  0E01               	movlw	1
  2030  000E12  6E4C               	movwf	_r,c
  2031  000E14                     l3779:
  2032                           
  2033                           ;Main.c: 247: Lcd_Cmd(1);
  2034  000E14  0E01               	movlw	1
  2035  000E16  EC83  F00D         	call	_Lcd_Cmd
  2036                           
  2037                           ;Main.c: 248: Lcd_Cmd(12);
  2038  000E1A  0E0C               	movlw	12
  2039  000E1C  EC83  F00D         	call	_Lcd_Cmd
  2040                           
  2041                           ;Main.c: 249: Lcd_Out2(1,1,"A.-Frecuencia");
  2042  000E20  0E01               	movlw	1
  2043  000E22  6E04               	movwf	Lcd_Out2@x,c
  2044  000E24  0E08               	movlw	high STR_37
  2045  000E26  6E06               	movwf	Lcd_Out2@buffer+1,c
  2046  000E28  0E20               	movlw	low STR_37
  2047  000E2A  6E05               	movwf	Lcd_Out2@buffer,c
  2048  000E2C  0E01               	movlw	1
  2049  000E2E  ECFA  F011         	call	_Lcd_Out2
  2050                           
  2051                           ;Main.c: 250: Lcd_Out2(2,1,"B.-Ciclo");
  2052  000E32  0E01               	movlw	1
  2053  000E34  6E04               	movwf	Lcd_Out2@x,c
  2054  000E36  0E08               	movlw	high STR_38
  2055  000E38  6E06               	movwf	Lcd_Out2@buffer+1,c
  2056  000E3A  0EBB               	movlw	low STR_38
  2057  000E3C  6E05               	movwf	Lcd_Out2@buffer,c
  2058  000E3E  0E02               	movlw	2
  2059  000E40  ECFA  F011         	call	_Lcd_Out2
  2060                           
  2061                           ;Main.c: 251: tm_1s();
  2062  000E44  EC42  F012         	call	_tm_1s	;wreg free
  2063                           
  2064                           ;Main.c: 252: key=Recuperar();
  2065  000E48  EC6C  F014         	call	_Recuperar	;wreg free
  2066  000E4C  6E41               	movwf	main@key,c
  2067                           
  2068                           ;Main.c: 253: if(key=='A'){
  2069  000E4E  5041               	movf	main@key,w,c
  2070  000E50  0A41               	xorlw	65
  2071  000E52  A4D8               	btfss	status,2,c
  2072  000E54  D02F               	goto	l3809
  2073                           
  2074                           ;Main.c: 254: int zx=1;
  2075  000E56  0E00               	movlw	0
  2076  000E58  6E3E               	movwf	main@zx+1,c
  2077  000E5A  0E01               	movlw	1
  2078  000E5C  6E3D               	movwf	main@zx,c
  2079  000E5E                     l3795:
  2080                           
  2081                           ;Main.c: 256: Frecuencia(frecuencia);
  2082  000E5E  0100               	movlb	0	; () banked
  2083  000E60  0E00               	movlw	high _frecuencia
  2084  000E62  6E16               	movwf	Frecuencia@frecuencia+1,c
  2085  000E64  0100               	movlb	0	; () banked
  2086  000E66  0EE8               	movlw	low _frecuencia
  2087  000E68  6E15               	movwf	Frecuencia@frecuencia,c
  2088  000E6A  EC19  F014         	call	_Frecuencia	;wreg free
  2089                           
  2090                           ;Main.c: 257: Imprimir_pantalla(frecuencia);
  2091  000E6E  0100               	movlb	0	; () banked
  2092  000E70  0E00               	movlw	high _frecuencia
  2093  000E72  6E0A               	movwf	Imprimir_pantalla@N+1,c
  2094  000E74  0100               	movlb	0	; () banked
  2095  000E76  0EE8               	movlw	low _frecuencia
  2096  000E78  6E09               	movwf	Imprimir_pantalla@N,c
  2097  000E7A  ECFB  F013         	call	_Imprimir_pantalla	;wreg free
  2098                           
  2099                           ;Main.c: 258: s=atoi(frecuencia);
  2100  000E7E  0100               	movlb	0	; () banked
  2101  000E80  0E00               	movlw	high _frecuencia
  2102  000E82  6E08               	movwf	atoi@s+1,c
  2103  000E84  0100               	movlb	0	; () banked
  2104  000E86  0EE8               	movlw	low _frecuencia
  2105  000E88  6E07               	movwf	atoi@s,c
  2106  000E8A  ECF6  F010         	call	_atoi	;wreg free
  2107  000E8E  C007  F04E         	movff	?_atoi,_s
  2108  000E92  C008  F04F         	movff	?_atoi+1,_s+1
  2109                           
  2110                           ;Main.c: 259: key=Recuperar();
  2111  000E96  EC6C  F014         	call	_Recuperar	;wreg free
  2112  000E9A  6E41               	movwf	main@key,c
  2113                           
  2114                           ;Main.c: 260: if(key=='#'){
  2115  000E9C  5041               	movf	main@key,w,c
  2116  000E9E  0A23               	xorlw	35
  2117  000EA0  A4D8               	btfss	status,2,c
  2118  000EA2  D004               	goto	l3807
  2119                           
  2120                           ;Main.c: 261: zx=0;
  2121  000EA4  0E00               	movlw	0
  2122  000EA6  6E3E               	movwf	main@zx+1,c
  2123  000EA8  0E00               	movlw	0
  2124  000EAA  6E3D               	movwf	main@zx,c
  2125  000EAC                     l3807:
  2126                           
  2127                           ;Main.c: 262: }
  2128                           ;Main.c: 263: }while(zx==1);
  2129  000EAC  043D               	decf	main@zx,w,c
  2130  000EAE  103E               	iorwf	main@zx+1,w,c
  2131  000EB0  B4D8               	btfsc	status,2,c
  2132  000EB2  D7D5               	goto	l3795
  2133  000EB4                     l3809:
  2134                           
  2135                           ;Main.c: 264: }
  2136                           ;Main.c: 265: if(key=='B'){
  2137  000EB4  5041               	movf	main@key,w,c
  2138  000EB6  0A42               	xorlw	66
  2139  000EB8  A4D8               	btfss	status,2,c
  2140  000EBA  D02F               	goto	l3827
  2141                           
  2142                           ;Main.c: 266: int zx=1;
  2143  000EBC  0E00               	movlw	0
  2144  000EBE  6E40               	movwf	main@zx_308+1,c
  2145  000EC0  0E01               	movlw	1
  2146  000EC2  6E3F               	movwf	main@zx_308,c
  2147  000EC4                     l3813:
  2148                           
  2149                           ;Main.c: 268: Ciclo(ciclo);
  2150  000EC4  0100               	movlb	0	; () banked
  2151  000EC6  0E00               	movlw	high _ciclo
  2152  000EC8  6E16               	movwf	Ciclo@ciclo+1,c
  2153  000ECA  0100               	movlb	0	; () banked
  2154  000ECC  0EDE               	movlw	low _ciclo
  2155  000ECE  6E15               	movwf	Ciclo@ciclo,c
  2156  000ED0  EC31  F014         	call	_Ciclo	;wreg free
  2157                           
  2158                           ;Main.c: 269: Imprimir_pantalla(ciclo);
  2159  000ED4  0100               	movlb	0	; () banked
  2160  000ED6  0E00               	movlw	high _ciclo
  2161  000ED8  6E0A               	movwf	Imprimir_pantalla@N+1,c
  2162  000EDA  0100               	movlb	0	; () banked
  2163  000EDC  0EDE               	movlw	low _ciclo
  2164  000EDE  6E09               	movwf	Imprimir_pantalla@N,c
  2165  000EE0  ECFB  F013         	call	_Imprimir_pantalla	;wreg free
  2166                           
  2167                           ;Main.c: 270: t=atoi(ciclo);
  2168  000EE4  0100               	movlb	0	; () banked
  2169  000EE6  0E00               	movlw	high _ciclo
  2170  000EE8  6E08               	movwf	atoi@s+1,c
  2171  000EEA  0100               	movlb	0	; () banked
  2172  000EEC  0EDE               	movlw	low _ciclo
  2173  000EEE  6E07               	movwf	atoi@s,c
  2174  000EF0  ECF6  F010         	call	_atoi	;wreg free
  2175  000EF4  C007  F050         	movff	?_atoi,_t
  2176  000EF8  C008  F051         	movff	?_atoi+1,_t+1
  2177                           
  2178                           ;Main.c: 271: key=Recuperar();
  2179  000EFC  EC6C  F014         	call	_Recuperar	;wreg free
  2180  000F00  6E41               	movwf	main@key,c
  2181                           
  2182                           ;Main.c: 272: if(key=='#'){
  2183  000F02  5041               	movf	main@key,w,c
  2184  000F04  0A23               	xorlw	35
  2185  000F06  A4D8               	btfss	status,2,c
  2186  000F08  D004               	goto	l3825
  2187                           
  2188                           ;Main.c: 273: zx=0;
  2189  000F0A  0E00               	movlw	0
  2190  000F0C  6E40               	movwf	main@zx_308+1,c
  2191  000F0E  0E00               	movlw	0
  2192  000F10  6E3F               	movwf	main@zx_308,c
  2193  000F12                     l3825:
  2194                           
  2195                           ;Main.c: 274: }
  2196                           ;Main.c: 275: }while(zx==1);
  2197  000F12  043F               	decf	main@zx_308,w,c
  2198  000F14  1040               	iorwf	main@zx_308+1,w,c
  2199  000F16  B4D8               	btfsc	status,2,c
  2200  000F18  D7D5               	goto	l3813
  2201  000F1A                     l3827:
  2202                           
  2203                           ;Main.c: 276: }
  2204                           ;Main.c: 277: if(key=='*'){
  2205  000F1A  5041               	movf	main@key,w,c
  2206  000F1C  0A2A               	xorlw	42
  2207  000F1E  A4D8               	btfss	status,2,c
  2208  000F20  D004               	goto	l3831
  2209                           
  2210                           ;Main.c: 278: r=0;
  2211  000F22  0E00               	movlw	0
  2212  000F24  6E4D               	movwf	_r+1,c
  2213  000F26  0E00               	movlw	0
  2214  000F28  6E4C               	movwf	_r,c
  2215  000F2A                     l3831:
  2216                           
  2217                           ;Main.c: 279: }
  2218                           ;Main.c: 280: }while(r==1);
  2219  000F2A  044C               	decf	_r,w,c
  2220  000F2C  104D               	iorwf	_r+1,w,c
  2221  000F2E  B4D8               	btfsc	status,2,c
  2222  000F30  D771               	goto	l3779
  2223  000F32                     l3833:
  2224                           
  2225                           ;Main.c: 281: }
  2226                           ;Main.c: 284: if(key=='2') {
  2227  000F32  5041               	movf	main@key,w,c
  2228  000F34  0A32               	xorlw	50
  2229  000F36  A4D8               	btfss	status,2,c
  2230  000F38  D082               	goto	l3865
  2231                           
  2232                           ;Main.c: 285: Lcd_Init();
  2233  000F3A  EC5C  F00C         	call	_Lcd_Init	;wreg free
  2234                           
  2235                           ;Main.c: 286: Lcd_Cmd(1);
  2236  000F3E  0E01               	movlw	1
  2237  000F40  EC83  F00D         	call	_Lcd_Cmd
  2238                           
  2239                           ;Main.c: 287: Lcd_Cmd(12);
  2240  000F44  0E0C               	movlw	12
  2241  000F46  EC83  F00D         	call	_Lcd_Cmd
  2242                           
  2243                           ;Main.c: 288: Lcd_Out2(1,1,"Fre: ");
  2244  000F4A  0E01               	movlw	1
  2245  000F4C  6E04               	movwf	Lcd_Out2@x,c
  2246  000F4E  0E08               	movlw	high STR_12
  2247  000F50  6E06               	movwf	Lcd_Out2@buffer+1,c
  2248  000F52  0ED5               	movlw	low STR_12
  2249  000F54  6E05               	movwf	Lcd_Out2@buffer,c
  2250  000F56  0E01               	movlw	1
  2251  000F58  ECFA  F011         	call	_Lcd_Out2
  2252                           
  2253                           ;Main.c: 289: Lcd_Out2(1,13,"Hz");
  2254  000F5C  0E0D               	movlw	13
  2255  000F5E  6E04               	movwf	Lcd_Out2@x,c
  2256  000F60  0E08               	movlw	high STR_13
  2257  000F62  6E06               	movwf	Lcd_Out2@buffer+1,c
  2258  000F64  0EE1               	movlw	low STR_13
  2259  000F66  6E05               	movwf	Lcd_Out2@buffer,c
  2260  000F68  0E01               	movlw	1
  2261  000F6A  ECFA  F011         	call	_Lcd_Out2
  2262                           
  2263                           ;Main.c: 291: cantidad= Conv_Entero(s,cadena);
  2264  000F6E  C04E  F00F         	movff	_s,Conv_Entero@numero
  2265  000F72  C04F  F010         	movff	_s+1,Conv_Entero@numero+1
  2266  000F76  6A11               	clrf	Conv_Entero@numero+2,c
  2267  000F78  6A12               	clrf	Conv_Entero@numero+3,c
  2268  000F7A  0100               	movlb	0	; () banked
  2269  000F7C  0E00               	movlw	high _cadena
  2270  000F7E  6E14               	movwf	Conv_Entero@conv+1,c
  2271  000F80  0100               	movlb	0	; () banked
  2272  000F82  0ED4               	movlw	low _cadena
  2273  000F84  6E13               	movwf	Conv_Entero@conv,c
  2274  000F86  EC90  F009         	call	_Conv_Entero	;wreg free
  2275  000F8A  500F               	movf	?_Conv_Entero,w,c
  2276  000F8C  6E54               	movwf	_cantidad,c
  2277                           
  2278                           ;Main.c: 293: Lcd_Out(1,8,cadena);
  2279  000F8E  0E08               	movlw	8
  2280  000F90  6E04               	movwf	Lcd_Out@x,c
  2281  000F92  0100               	movlb	0	; () banked
  2282  000F94  0E00               	movlw	high _cadena
  2283  000F96  6E06               	movwf	Lcd_Out@buffer+1,c
  2284  000F98  0100               	movlb	0	; () banked
  2285  000F9A  0ED4               	movlw	low _cadena
  2286  000F9C  6E05               	movwf	Lcd_Out@buffer,c
  2287  000F9E  0E01               	movlw	1
  2288  000FA0  EC78  F013         	call	_Lcd_Out
  2289                           
  2290                           ;Main.c: 294: Lcd_Out2(2,1,"Ciclo: ");
  2291  000FA4  0E01               	movlw	1
  2292  000FA6  6E04               	movwf	Lcd_Out2@x,c
  2293  000FA8  0E08               	movlw	high STR_14
  2294  000FAA  6E06               	movwf	Lcd_Out2@buffer+1,c
  2295  000FAC  0ECD               	movlw	low STR_14
  2296  000FAE  6E05               	movwf	Lcd_Out2@buffer,c
  2297  000FB0  0E02               	movlw	2
  2298  000FB2  ECFA  F011         	call	_Lcd_Out2
  2299                           
  2300                           ;Main.c: 295: Lcd_Out2(2,12,"%");
  2301  000FB6  0E0C               	movlw	12
  2302  000FB8  6E04               	movwf	Lcd_Out2@x,c
  2303  000FBA  0E08               	movlw	high STR_15
  2304  000FBC  6E06               	movwf	Lcd_Out2@buffer+1,c
  2305  000FBE  0EE4               	movlw	low STR_15
  2306  000FC0  6E05               	movwf	Lcd_Out2@buffer,c
  2307  000FC2  0E02               	movlw	2
  2308  000FC4  ECFA  F011         	call	_Lcd_Out2
  2309                           
  2310                           ;Main.c: 297: cantidad= Conv_Entero(t,cadena);
  2311  000FC8  C050  F00F         	movff	_t,Conv_Entero@numero
  2312  000FCC  C051  F010         	movff	_t+1,Conv_Entero@numero+1
  2313  000FD0  6A11               	clrf	Conv_Entero@numero+2,c
  2314  000FD2  6A12               	clrf	Conv_Entero@numero+3,c
  2315  000FD4  0100               	movlb	0	; () banked
  2316  000FD6  0E00               	movlw	high _cadena
  2317  000FD8  6E14               	movwf	Conv_Entero@conv+1,c
  2318  000FDA  0100               	movlb	0	; () banked
  2319  000FDC  0ED4               	movlw	low _cadena
  2320  000FDE  6E13               	movwf	Conv_Entero@conv,c
  2321  000FE0  EC90  F009         	call	_Conv_Entero	;wreg free
  2322  000FE4  500F               	movf	?_Conv_Entero,w,c
  2323  000FE6  6E54               	movwf	_cantidad,c
  2324                           
  2325                           ;Main.c: 299: Lcd_Out(2,8,cadena);
  2326  000FE8  0E08               	movlw	8
  2327  000FEA  6E04               	movwf	Lcd_Out@x,c
  2328  000FEC  0100               	movlb	0	; () banked
  2329  000FEE  0E00               	movlw	high _cadena
  2330  000FF0  6E06               	movwf	Lcd_Out@buffer+1,c
  2331  000FF2  0100               	movlb	0	; () banked
  2332  000FF4  0ED4               	movlw	low _cadena
  2333  000FF6  6E05               	movwf	Lcd_Out@buffer,c
  2334  000FF8  0E02               	movlw	2
  2335  000FFA  EC78  F013         	call	_Lcd_Out
  2336                           
  2337                           ;Main.c: 300: PWM_generar(t,s);
  2338  000FFE  C050  F00E         	movff	_t,PWM_generar@duty
  2339  001002  C051  F00F         	movff	_t+1,PWM_generar@duty+1
  2340  001006  C04E  F010         	movff	_s,PWM_generar@fpwm
  2341  00100A  C04F  F011         	movff	_s+1,PWM_generar@fpwm+1
  2342  00100E  EC76  F008         	call	_PWM_generar	;wreg free
  2343                           
  2344                           ;Main.c: 302: key=Recuperar();
  2345  001012  EC6C  F014         	call	_Recuperar	;wreg free
  2346  001016  6E41               	movwf	main@key,c
  2347                           
  2348                           ;Main.c: 303: r=1;
  2349  001018  0E00               	movlw	0
  2350  00101A  6E4D               	movwf	_r+1,c
  2351  00101C  0E01               	movlw	1
  2352  00101E  6E4C               	movwf	_r,c
  2353  001020                     l3857:
  2354                           
  2355                           ;Main.c: 306: key=Recuperar();
  2356  001020  EC6C  F014         	call	_Recuperar	;wreg free
  2357  001024  6E41               	movwf	main@key,c
  2358                           
  2359                           ;Main.c: 309: if(key=='*'){
  2360  001026  5041               	movf	main@key,w,c
  2361  001028  0A2A               	xorlw	42
  2362  00102A  A4D8               	btfss	status,2,c
  2363  00102C  D004               	goto	l3863
  2364                           
  2365                           ;Main.c: 311: r=0;
  2366  00102E  0E00               	movlw	0
  2367  001030  6E4D               	movwf	_r+1,c
  2368  001032  0E00               	movlw	0
  2369  001034  6E4C               	movwf	_r,c
  2370  001036                     l3863:
  2371                           
  2372                           ;Main.c: 312: }
  2373                           ;Main.c: 314: }while(r==1);
  2374  001036  044C               	decf	_r,w,c
  2375  001038  104D               	iorwf	_r+1,w,c
  2376  00103A  B4D8               	btfsc	status,2,c
  2377  00103C  D7F1               	goto	l3857
  2378  00103E                     l3865:
  2379                           
  2380                           ;Main.c: 315: }
  2381                           ;Main.c: 318: if(key=='D')
  2382  00103E  5041               	movf	main@key,w,c
  2383  001040  0A44               	xorlw	68
  2384  001042  A4D8               	btfss	status,2,c
  2385  001044  D007               	goto	l3871
  2386                           
  2387                           ;Main.c: 319: {
  2388                           ;Main.c: 321: Lcd_Cmd(1);
  2389  001046  0E01               	movlw	1
  2390  001048  EC83  F00D         	call	_Lcd_Cmd
  2391                           
  2392                           ;Main.c: 322: w=0;
  2393  00104C  0E00               	movlw	0
  2394  00104E  6E53               	movwf	_w+1,c
  2395  001050  0E00               	movlw	0
  2396  001052  6E52               	movwf	_w,c
  2397  001054                     l3871:
  2398                           
  2399                           ;Main.c: 323: }
  2400                           ;Main.c: 324: }while(w==1);
  2401  001054  0452               	decf	_w,w,c
  2402  001056  1053               	iorwf	_w+1,w,c
  2403  001058  B4D8               	btfsc	status,2,c
  2404  00105A  D6B5               	goto	l3761
  2405  00105C                     l3873:
  2406                           
  2407                           ;Main.c: 326: };
  2408                           ;Main.c: 328: if(key=='#'){
  2409  00105C  5041               	movf	main@key,w,c
  2410  00105E  0A23               	xorlw	35
  2411  001060  A4D8               	btfss	status,2,c
  2412  001062  D007               	goto	l3879
  2413                           
  2414                           ;Main.c: 329: Lcd_Cmd(1);
  2415  001064  0E01               	movlw	1
  2416  001066  EC83  F00D         	call	_Lcd_Cmd
  2417                           
  2418                           ;Main.c: 330: q=0;
  2419  00106A  0E00               	movlw	0
  2420  00106C  6E4B               	movwf	_q+1,c
  2421  00106E  0E00               	movlw	0
  2422  001070  6E4A               	movwf	_q,c
  2423  001072                     l3879:
  2424                           
  2425                           ;Main.c: 331: }
  2426                           ;Main.c: 332: }while(q==1);
  2427  001072  044A               	decf	_q,w,c
  2428  001074  104B               	iorwf	_q+1,w,c
  2429  001076  B4D8               	btfsc	status,2,c
  2430  001078  D4AD               	goto	l3491
  2431  00107A                     l3881:
  2432                           
  2433                           ;Main.c: 333: }
  2434                           ;Main.c: 335: if(key=='0'){
  2435  00107A  5041               	movf	main@key,w,c
  2436  00107C  0A30               	xorlw	48
  2437  00107E  A4D8               	btfss	status,2,c
  2438  001080  D43C               	goto	l3441
  2439                           
  2440                           ;Main.c: 336: q=1;
  2441  001082  0E00               	movlw	0
  2442  001084  6E4B               	movwf	_q+1,c
  2443  001086  0E01               	movlw	1
  2444  001088  6E4A               	movwf	_q,c
  2445                           
  2446                           ;Main.c: 337: Lcd_Init();
  2447  00108A  EC5C  F00C         	call	_Lcd_Init	;wreg free
  2448                           
  2449                           ;Main.c: 338: Lcd_Cmd(1);
  2450  00108E  0E01               	movlw	1
  2451  001090  EC83  F00D         	call	_Lcd_Cmd
  2452                           
  2453                           ;Main.c: 339: Lcd_Cmd(12);
  2454  001094  0E0C               	movlw	12
  2455  001096  EC83  F00D         	call	_Lcd_Cmd
  2456                           
  2457                           ;Main.c: 340: Lcd_Out2(1,1,"Adios");
  2458  00109A  0E01               	movlw	1
  2459  00109C  6E04               	movwf	Lcd_Out2@x,c
  2460  00109E  0E08               	movlw	high STR_43
  2461  0010A0  6E06               	movwf	Lcd_Out2@buffer+1,c
  2462  0010A2  0EDB               	movlw	low STR_43
  2463  0010A4  6E05               	movwf	Lcd_Out2@buffer,c
  2464  0010A6  0E01               	movlw	1
  2465  0010A8  ECFA  F011         	call	_Lcd_Out2
  2466                           
  2467                           ;Main.c: 341: tm_1s();
  2468  0010AC  EC42  F012         	call	_tm_1s	;wreg free
  2469                           
  2470                           ;Main.c: 342: key = Recuperar();
  2471  0010B0  EC6C  F014         	call	_Recuperar	;wreg free
  2472  0010B4  6E41               	movwf	main@key,c
  2473  0010B6                     l3897:
  2474                           
  2475                           ;Main.c: 344: Lcd_Init();
  2476  0010B6  EC5C  F00C         	call	_Lcd_Init	;wreg free
  2477                           
  2478                           ;Main.c: 345: Lcd_Cmd(1);
  2479  0010BA  0E01               	movlw	1
  2480  0010BC  EC83  F00D         	call	_Lcd_Cmd
  2481                           
  2482                           ;Main.c: 346: Lcd_Cmd(12);
  2483  0010C0  0E0C               	movlw	12
  2484  0010C2  EC83  F00D         	call	_Lcd_Cmd
  2485                           
  2486                           ;Main.c: 347: Lcd_Cmd(0);
  2487  0010C6  0E00               	movlw	0
  2488  0010C8  EC83  F00D         	call	_Lcd_Cmd
  2489                           
  2490                           ;Main.c: 348: key = Recuperar();
  2491  0010CC  EC6C  F014         	call	_Recuperar	;wreg free
  2492  0010D0  6E41               	movwf	main@key,c
  2493                           
  2494                           ;Main.c: 350: if(key=='*'){
  2495  0010D2  5041               	movf	main@key,w,c
  2496  0010D4  0A2A               	xorlw	42
  2497  0010D6  A4D8               	btfss	status,2,c
  2498  0010D8  D004               	goto	l3911
  2499                           
  2500                           ;Main.c: 351: q=0;
  2501  0010DA  0E00               	movlw	0
  2502  0010DC  6E4B               	movwf	_q+1,c
  2503  0010DE  0E00               	movlw	0
  2504  0010E0  6E4A               	movwf	_q,c
  2505  0010E2                     l3911:
  2506                           
  2507                           ;Main.c: 352: }
  2508                           ;Main.c: 353: }while(q==1);
  2509  0010E2  044A               	decf	_q,w,c
  2510  0010E4  104B               	iorwf	_q+1,w,c
  2511  0010E6  A4D8               	btfss	status,2,c
  2512  0010E8  D408               	goto	l3441
  2513  0010EA  D7E5               	goto	l3897
  2514  0010EC                     __end_of_main:
  2515                           	opt stack 0
  2516                           tblptru	equ	0xFF8
  2517                           tblptrh	equ	0xFF7
  2518                           tblptrl	equ	0xFF6
  2519                           tablat	equ	0xFF5
  2520                           postinc0	equ	0xFEE
  2521                           wreg	equ	0xFE8
  2522                           postdec1	equ	0xFE5
  2523                           fsr1l	equ	0xFE1
  2524                           status	equ	0xFD8
  2525                           
  2526 ;; *************** function _int_teclado *****************
  2527 ;; Defined at:
  2528 ;;		line 13 in file "teclado.c"
  2529 ;; Parameters:    Size  Location     Type
  2530 ;;		None
  2531 ;; Auto vars:     Size  Location     Type
  2532 ;;		None
  2533 ;; Return value:  Size  Location     Type
  2534 ;;		None               void
  2535 ;; Registers used:
  2536 ;;		wreg, status,2
  2537 ;; Tracked objects:
  2538 ;;		On entry : 0/0
  2539 ;;		On exit  : 0/0
  2540 ;;		Unchanged: 0/0
  2541 ;; Data sizes:     COMRAM   BANK0   BANK1   BANK2   BANK3   BANK4   BANK5   BANK6   BANK7
  2542 ;;      Params:         0       0       0       0       0       0       0       0       0
  2543 ;;      Locals:         0       0       0       0       0       0       0       0       0
  2544 ;;      Temps:          0       0       0       0       0       0       0       0       0
  2545 ;;      Totals:         0       0       0       0       0       0       0       0       0
  2546 ;;Total ram usage:        0 bytes
  2547 ;; Hardware stack levels used:    1
  2548 ;; This function calls:
  2549 ;;		Nothing
  2550 ;; This function is called by:
  2551 ;;		_main
  2552 ;; This function uses a non-reentrant model
  2553 ;;
  2554                           
  2555                           	psect	text1
  2556  0028E6                     __ptext1:
  2557                           	opt stack 0
  2558  0028E6                     _int_teclado:
  2559                           	opt stack 30
  2560                           
  2561                           ;teclado.c: 15: INTCON2bits.RBPU=0;
  2562                           
  2563                           ;incstack = 0
  2564  0028E6  9EF1               	bcf	intcon2,7,c	;volatile
  2565                           
  2566                           ;teclado.c: 16: ANSELB=0;
  2567  0028E8  0E00               	movlw	0
  2568  0028EA  010F               	movlb	15	; () banked
  2569  0028EC  6F5C               	movwf	92,b	;volatile
  2570                           
  2571                           ; BSR set to: 15
  2572  0028EE  0012               	return	
  2573  0028F0                     __end_of_int_teclado:
  2574                           	opt stack 0
  2575                           tblptru	equ	0xFF8
  2576                           tblptrh	equ	0xFF7
  2577                           tblptrl	equ	0xFF6
  2578                           tablat	equ	0xFF5
  2579                           intcon2	equ	0xFF1
  2580                           postinc0	equ	0xFEE
  2581                           wreg	equ	0xFE8
  2582                           postdec1	equ	0xFE5
  2583                           fsr1l	equ	0xFE1
  2584                           status	equ	0xFD8
  2585                           
  2586 ;; *************** function _atoi *****************
  2587 ;; Defined at:
  2588 ;;		line 5 in file "/opt/microchip/xc8/v1.32/sources/common/atoi.c"
  2589 ;; Parameters:    Size  Location     Type
  2590 ;;  s               2    6[COMRAM] PTR const unsigned char 
  2591 ;;		 -> ciclo(10), frecuencia(10), 
  2592 ;; Auto vars:     Size  Location     Type
  2593 ;;  a               2   11[COMRAM] int 
  2594 ;;  sign            1   10[COMRAM] unsigned char 
  2595 ;; Return value:  Size  Location     Type
  2596 ;;                  2    6[COMRAM] int 
  2597 ;; Registers used:
  2598 ;;		wreg, fsr2l, fsr2h, status,2, status,0, prodl, prodh, cstack
  2599 ;; Tracked objects:
  2600 ;;		On entry : 0/0
  2601 ;;		On exit  : 0/0
  2602 ;;		Unchanged: 0/0
  2603 ;; Data sizes:     COMRAM   BANK0   BANK1   BANK2   BANK3   BANK4   BANK5   BANK6   BANK7
  2604 ;;      Params:         2       0       0       0       0       0       0       0       0
  2605 ;;      Locals:         3       0       0       0       0       0       0       0       0
  2606 ;;      Temps:          2       0       0       0       0       0       0       0       0
  2607 ;;      Totals:         7       0       0       0       0       0       0       0       0
  2608 ;;Total ram usage:        7 bytes
  2609 ;; Hardware stack levels used:    1
  2610 ;; Hardware stack levels required when called:    1
  2611 ;; This function calls:
  2612 ;;		___wmul
  2613 ;;		_isdigit
  2614 ;; This function is called by:
  2615 ;;		_main
  2616 ;;		_Prueba1
  2617 ;; This function uses a non-reentrant model
  2618 ;;
  2619                           
  2620                           	psect	text2
  2621  0021EC                     __ptext2:
  2622                           	opt stack 0
  2623  0021EC                     _atoi:
  2624                           	opt stack 29
  2625                           
  2626                           ; BSR set to: 15
  2627                           ;incstack = 0
  2628  0021EC  D002               	goto	l2997
  2629  0021EE                     l2995:
  2630  0021EE  4A07               	infsnz	atoi@s,f,c
  2631  0021F0  2A08               	incf	atoi@s+1,f,c
  2632  0021F2                     l2997:
  2633  0021F2  C007  FFD9         	movff	atoi@s,fsr2l
  2634  0021F6  C008  FFDA         	movff	atoi@s+1,fsr2h
  2635  0021FA  50DF               	movf	indf2,w,c
  2636  0021FC  0A20               	xorlw	32
  2637  0021FE  B4D8               	btfsc	status,2,c
  2638  002200  D7F6               	goto	l2995
  2639  002202  C007  FFD9         	movff	atoi@s,fsr2l
  2640  002206  C008  FFDA         	movff	atoi@s+1,fsr2h
  2641  00220A  50DF               	movf	indf2,w,c
  2642  00220C  0A09               	xorlw	9
  2643  00220E  B4D8               	btfsc	status,2,c
  2644  002210  D7EE               	goto	l2995
  2645  002212  0E00               	movlw	0
  2646  002214  6E0D               	movwf	atoi@a+1,c
  2647  002216  0E00               	movlw	0
  2648  002218  6E0C               	movwf	atoi@a,c
  2649  00221A  0E00               	movlw	0
  2650  00221C  6E0B               	movwf	atoi@sign,c
  2651  00221E  0E2D               	movlw	45
  2652  002220  C007  FFD9         	movff	atoi@s,fsr2l
  2653  002224  C008  FFDA         	movff	atoi@s+1,fsr2h
  2654  002228  62DF               	cpfseq	indf2,c
  2655  00222A  D002               	goto	l3007
  2656  00222C  2A0B               	incf	atoi@sign,f,c
  2657  00222E  D023               	goto	L1
  2658  002230                     l3007:
  2659  002230  0E2B               	movlw	43
  2660  002232  C007  FFD9         	movff	atoi@s,fsr2l
  2661  002236  C008  FFDA         	movff	atoi@s+1,fsr2h
  2662  00223A  62DF               	cpfseq	indf2,c
  2663  00223C  D01E               	goto	l3015
  2664  00223E  D01B               	goto	L1
  2665  002240                     l3011:
  2666  002240  C00C  F001         	movff	atoi@a,___wmul@multiplier
  2667  002244  C00D  F002         	movff	atoi@a+1,___wmul@multiplier+1
  2668  002248  0E00               	movlw	0
  2669  00224A  6E04               	movwf	___wmul@multiplicand+1,c
  2670  00224C  0E0A               	movlw	10
  2671  00224E  6E03               	movwf	___wmul@multiplicand,c
  2672  002250  EC49  F014         	call	___wmul	;wreg free
  2673  002254  C007  FFD9         	movff	atoi@s,fsr2l
  2674  002258  C008  FFDA         	movff	atoi@s+1,fsr2h
  2675  00225C  50DF               	movf	indf2,w,c
  2676  00225E  6E09               	movwf	??_atoi& (0+255),c
  2677  002260  6A0A               	clrf	(??_atoi+1)& (0+255),c
  2678  002262  5001               	movf	?___wmul,w,c
  2679  002264  2609               	addwf	??_atoi,f,c
  2680  002266  5002               	movf	?___wmul+1,w,c
  2681  002268  220A               	addwfc	??_atoi+1,f,c
  2682  00226A  0ED0               	movlw	208
  2683  00226C  2409               	addwf	??_atoi,w,c
  2684  00226E  6E0C               	movwf	atoi@a,c
  2685  002270  0EFF               	movlw	255
  2686  002272  200A               	addwfc	??_atoi+1,w,c
  2687  002274  6E0D               	movwf	atoi@a+1,c
  2688  002276                     L1:
  2689  002276  4A07               	infsnz	atoi@s,f,c
  2690  002278  2A08               	incf	atoi@s+1,f,c
  2691  00227A                     l3015:
  2692  00227A  C007  FFD9         	movff	atoi@s,fsr2l
  2693  00227E  C008  FFDA         	movff	atoi@s+1,fsr2h
  2694  002282  50DF               	movf	indf2,w,c
  2695  002284  EC5C  F014         	call	_isdigit
  2696  002288  B0D8               	btfsc	status,0,c
  2697  00228A  D7DA               	goto	l3011
  2698  00228C  500B               	movf	atoi@sign,w,c
  2699  00228E  B4D8               	btfsc	status,2,c
  2700  002290  D00D               	goto	l614
  2701  002292  C00C  F009         	movff	atoi@a,??_atoi
  2702  002296  C00D  F00A         	movff	atoi@a+1,??_atoi+1
  2703  00229A  1E09               	comf	??_atoi,f,c
  2704  00229C  1E0A               	comf	??_atoi+1,f,c
  2705  00229E  4A09               	infsnz	??_atoi,f,c
  2706  0022A0  2A0A               	incf	??_atoi+1,f,c
  2707  0022A2  C009  F007         	movff	??_atoi,?_atoi
  2708  0022A6  C00A  F008         	movff	??_atoi+1,?_atoi+1
  2709  0022AA  0012               	return	
  2710  0022AC                     l614:
  2711  0022AC  C00C  F007         	movff	atoi@a,?_atoi
  2712  0022B0  C00D  F008         	movff	atoi@a+1,?_atoi+1
  2713  0022B4  0012               	return	
  2714  0022B6                     __end_of_atoi:
  2715                           	opt stack 0
  2716                           tblptru	equ	0xFF8
  2717                           tblptrh	equ	0xFF7
  2718                           tblptrl	equ	0xFF6
  2719                           tablat	equ	0xFF5
  2720                           intcon2	equ	0xFF1
  2721                           postinc0	equ	0xFEE
  2722                           wreg	equ	0xFE8
  2723                           postdec1	equ	0xFE5
  2724                           fsr1l	equ	0xFE1
  2725                           indf2	equ	0xFDF
  2726                           fsr2h	equ	0xFDA
  2727                           fsr2l	equ	0xFD9
  2728                           status	equ	0xFD8
  2729                           
  2730 ;; *************** function _isdigit *****************
  2731 ;; Defined at:
  2732 ;;		line 8 in file "/opt/microchip/xc8/v1.32/sources/common/isdigit.c"
  2733 ;; Parameters:    Size  Location     Type
  2734 ;;  c               1    wreg     unsigned char 
  2735 ;; Auto vars:     Size  Location     Type
  2736 ;;  c               1    2[COMRAM] unsigned char 
  2737 ;; Return value:  Size  Location     Type
  2738 ;;		None               void
  2739 ;; Registers used:
  2740 ;;		wreg, status,2, status,0
  2741 ;; Tracked objects:
  2742 ;;		On entry : 0/0
  2743 ;;		On exit  : 0/0
  2744 ;;		Unchanged: 0/0
  2745 ;; Data sizes:     COMRAM   BANK0   BANK1   BANK2   BANK3   BANK4   BANK5   BANK6   BANK7
  2746 ;;      Params:         0       0       0       0       0       0       0       0       0
  2747 ;;      Locals:         2       0       0       0       0       0       0       0       0
  2748 ;;      Temps:          1       0       0       0       0       0       0       0       0
  2749 ;;      Totals:         3       0       0       0       0       0       0       0       0
  2750 ;;Total ram usage:        3 bytes
  2751 ;; Hardware stack levels used:    1
  2752 ;; This function calls:
  2753 ;;		Nothing
  2754 ;; This function is called by:
  2755 ;;		_atoi
  2756 ;; This function uses a non-reentrant model
  2757 ;;
  2758                           
  2759                           	psect	text3
  2760  0028B8                     __ptext3:
  2761                           	opt stack 0
  2762  0028B8                     _isdigit:
  2763                           	opt stack 29
  2764                           
  2765                           ;incstack = 0
  2766                           ;isdigit@c stored from wreg
  2767  0028B8  6E03               	movwf	isdigit@c,c
  2768  0028BA  0E00               	movlw	0
  2769  0028BC  6E02               	movwf	_isdigit$1196,c
  2770  0028BE  0E3A               	movlw	58
  2771  0028C0  5C03               	subwf	isdigit@c,w,c
  2772  0028C2  B0D8               	btfsc	status,0,c
  2773  0028C4  D005               	goto	l2873
  2774  0028C6  0E2F               	movlw	47
  2775  0028C8  6403               	cpfsgt	isdigit@c,c
  2776  0028CA  D002               	goto	l2873
  2777  0028CC  0E01               	movlw	1
  2778  0028CE  6E02               	movwf	_isdigit$1196,c
  2779  0028D0                     l2873:
  2780  0028D0  C002  F001         	movff	_isdigit$1196,??_isdigit
  2781  0028D4  3001               	rrcf	??_isdigit,w,c
  2782  0028D6  0012               	return	
  2783  0028D8                     __end_of_isdigit:
  2784                           	opt stack 0
  2785                           tblptru	equ	0xFF8
  2786                           tblptrh	equ	0xFF7
  2787                           tblptrl	equ	0xFF6
  2788                           tablat	equ	0xFF5
  2789                           intcon2	equ	0xFF1
  2790                           postinc0	equ	0xFEE
  2791                           wreg	equ	0xFE8
  2792                           postdec1	equ	0xFE5
  2793                           fsr1l	equ	0xFE1
  2794                           indf2	equ	0xFDF
  2795                           fsr2h	equ	0xFDA
  2796                           fsr2l	equ	0xFD9
  2797                           status	equ	0xFD8
  2798                           
  2799 ;; *************** function ___wmul *****************
  2800 ;; Defined at:
  2801 ;;		line 15 in file "/opt/microchip/xc8/v1.32/sources/common/Umul16.c"
  2802 ;; Parameters:    Size  Location     Type
  2803 ;;  multiplier      2    0[COMRAM] unsigned int 
  2804 ;;  multiplicand    2    2[COMRAM] unsigned int 
  2805 ;; Auto vars:     Size  Location     Type
  2806 ;;  product         2    4[COMRAM] unsigned int 
  2807 ;; Return value:  Size  Location     Type
  2808 ;;                  2    0[COMRAM] unsigned int 
  2809 ;; Registers used:
  2810 ;;		wreg, status,2, status,0, prodl, prodh
  2811 ;; Tracked objects:
  2812 ;;		On entry : 0/0
  2813 ;;		On exit  : 0/0
  2814 ;;		Unchanged: 0/0
  2815 ;; Data sizes:     COMRAM   BANK0   BANK1   BANK2   BANK3   BANK4   BANK5   BANK6   BANK7
  2816 ;;      Params:         4       0       0       0       0       0       0       0       0
  2817 ;;      Locals:         2       0       0       0       0       0       0       0       0
  2818 ;;      Temps:          0       0       0       0       0       0       0       0       0
  2819 ;;      Totals:         6       0       0       0       0       0       0       0       0
  2820 ;;Total ram usage:        6 bytes
  2821 ;; Hardware stack levels used:    1
  2822 ;; This function calls:
  2823 ;;		Nothing
  2824 ;; This function is called by:
  2825 ;;		_atoi
  2826 ;; This function uses a non-reentrant model
  2827 ;;
  2828                           
  2829                           	psect	text4
  2830  002892                     __ptext4:
  2831                           	opt stack 0
  2832  002892                     ___wmul:
  2833                           	opt stack 29
  2834                           
  2835                           ;incstack = 0
  2836  002892  5001               	movf	___wmul@multiplier,w,c
  2837  002894  0203               	mulwf	___wmul@multiplicand,c
  2838  002896  CFF3 F005          	movff	prodl,___wmul@product
  2839  00289A  CFF4 F006          	movff	prodh,___wmul@product+1
  2840  00289E  5001               	movf	___wmul@multiplier,w,c
  2841  0028A0  0204               	mulwf	___wmul@multiplicand+1,c
  2842  0028A2  50F3               	movf	prodl,w,c
  2843  0028A4  2606               	addwf	___wmul@product+1,f,c
  2844  0028A6  5002               	movf	___wmul@multiplier+1,w,c
  2845  0028A8  0203               	mulwf	___wmul@multiplicand,c
  2846  0028AA  50F3               	movf	prodl,w,c
  2847  0028AC  2606               	addwf	___wmul@product+1,f,c
  2848  0028AE  C005  F001         	movff	___wmul@product,?___wmul
  2849  0028B2  C006  F002         	movff	___wmul@product+1,?___wmul+1
  2850  0028B6  0012               	return	
  2851  0028B8                     __end_of___wmul:
  2852                           	opt stack 0
  2853                           tblptru	equ	0xFF8
  2854                           tblptrh	equ	0xFF7
  2855                           tblptrl	equ	0xFF6
  2856                           tablat	equ	0xFF5
  2857                           prodh	equ	0xFF4
  2858                           prodl	equ	0xFF3
  2859                           intcon2	equ	0xFF1
  2860                           postinc0	equ	0xFEE
  2861                           wreg	equ	0xFE8
  2862                           postdec1	equ	0xFE5
  2863                           fsr1l	equ	0xFE1
  2864                           indf2	equ	0xFDF
  2865                           fsr2h	equ	0xFDA
  2866                           fsr2l	equ	0xFD9
  2867                           status	equ	0xFD8
  2868                           
  2869 ;; *************** function _TRIANGULAR_GENERAR_3 *****************
  2870 ;; Defined at:
  2871 ;;		line 64 in file "Triangular.c"
  2872 ;; Parameters:    Size  Location     Type
  2873 ;;		None
  2874 ;; Auto vars:     Size  Location     Type
  2875 ;;  valoresSeno    40   13[COMRAM] int [20]
  2876 ;;  i               2   57[COMRAM] int 
  2877 ;;  j               2   55[COMRAM] int 
  2878 ;;  k               2   53[COMRAM] int 
  2879 ;; Return value:  Size  Location     Type
  2880 ;;		None               void
  2881 ;; Registers used:
  2882 ;;		wreg, fsr1l, fsr1h, fsr2l, fsr2h, status,2, status,0, prodl, cstack
  2883 ;; Tracked objects:
  2884 ;;		On entry : 0/0
  2885 ;;		On exit  : 0/0
  2886 ;;		Unchanged: 0/0
  2887 ;; Data sizes:     COMRAM   BANK0   BANK1   BANK2   BANK3   BANK4   BANK5   BANK6   BANK7
  2888 ;;      Params:         0       0       0       0       0       0       0       0       0
  2889 ;;      Locals:        46       0       0       0       0       0       0       0       0
  2890 ;;      Temps:          5       0       0       0       0       0       0       0       0
  2891 ;;      Totals:        51       0       0       0       0       0       0       0       0
  2892 ;;Total ram usage:       51 bytes
  2893 ;; Hardware stack levels used:    1
  2894 ;; Hardware stack levels required when called:    1
  2895 ;; This function calls:
  2896 ;;		___awdiv
  2897 ;; This function is called by:
  2898 ;;		_main
  2899 ;; This function uses a non-reentrant model
  2900 ;;
  2901                           
  2902                           	psect	text5
  2903  0014F8                     __ptext5:
  2904                           	opt stack 0
  2905  0014F8                     _TRIANGULAR_GENERAR_3:
  2906                           	opt stack 29
  2907                           
  2908                           ;Triangular.c: 65: OSCCON=0b01010111;
  2909                           
  2910                           ;incstack = 0
  2911  0014F8  0E57               	movlw	87
  2912  0014FA  6ED3               	movwf	4051,c	;volatile
  2913                           
  2914                           ;Triangular.c: 66: TRISAbits.RA6=0;
  2915  0014FC  9C92               	bcf	3986,6,c	;volatile
  2916                           
  2917                           ;Triangular.c: 67: TRISCbits.RC2=0;
  2918  0014FE  9494               	bcf	3988,2,c	;volatile
  2919                           
  2920                           ;Triangular.c: 68: int valoresSeno [20]= {10,20,30,40,50,60,70,80,90,100,90,80,70,60,50,
      +                          40,30,20,10,0};
  2921  001500  EE21  F050         	lfsr	2,TRIANGULAR_GENERAR_3@F7364
  2922  001504  EE10  F00E         	lfsr	1,TRIANGULAR_GENERAR_3@valoresSeno
  2923  001508  0E28               	movlw	40
  2924  00150A                     u2581:
  2925  00150A  CFDE FFE6          	movff	postinc2,postinc1
  2926  00150E  2EE8               	decfsz	wreg,f,c
  2927  001510  D7FC               	goto	u2581
  2928                           
  2929                           ;Triangular.c: 69: int i, j,k;
  2930                           ;Triangular.c: 70: for (i=0;i<20;i++){
  2931  001512  0E00               	movlw	0
  2932  001514  6E3B               	movwf	TRIANGULAR_GENERAR_3@i+1,c
  2933  001516  0E00               	movlw	0
  2934  001518  6E3A               	movwf	TRIANGULAR_GENERAR_3@i,c
  2935  00151A  503B               	movf	TRIANGULAR_GENERAR_3@i+1,w,c
  2936  00151C  0A80               	xorlw	128
  2937  00151E  0F80               	addlw	-128
  2938  001520  0E14               	movlw	20
  2939  001522  B4D8               	btfsc	status,2,c
  2940  001524  5C3A               	subwf	TRIANGULAR_GENERAR_3@i,w,c
  2941  001526  B0D8               	btfsc	status,0,c
  2942  001528  D02B               	goto	l3215
  2943                           
  2944                           ;Triangular.c: 71: valoresSeno [i]=valoresSeno [i]/4;
  2945  00152A  0E0E               	movlw	low TRIANGULAR_GENERAR_3@valoresSeno
  2946  00152C  6E09               	movwf	??_TRIANGULAR_GENERAR_3& (0+255),c
  2947  00152E  0E00               	movlw	high TRIANGULAR_GENERAR_3@valoresSeno
  2948  001530  6E0A               	movwf	(??_TRIANGULAR_GENERAR_3+1)& (0+255),c
  2949  001532  90D8               	bcf	status,0,c
  2950  001534  343A               	rlcf	TRIANGULAR_GENERAR_3@i,w,c
  2951  001536  6ED9               	movwf	fsr2l,c
  2952  001538  343B               	rlcf	TRIANGULAR_GENERAR_3@i+1,w,c
  2953  00153A  6EDA               	movwf	fsr2h,c
  2954  00153C  5009               	movf	??_TRIANGULAR_GENERAR_3,w,c
  2955  00153E  26D9               	addwf	fsr2l,f,c
  2956  001540  500A               	movf	??_TRIANGULAR_GENERAR_3+1,w,c
  2957  001542  22DA               	addwfc	fsr2h,f,c
  2958  001544  CFDE F001          	movff	postinc2,___awdiv@dividend
  2959  001548  CFDD F002          	movff	postdec2,___awdiv@dividend+1
  2960  00154C  0E00               	movlw	0
  2961  00154E  6E04               	movwf	___awdiv@divisor+1,c
  2962  001550  0E04               	movlw	4
  2963  001552  6E03               	movwf	___awdiv@divisor,c
  2964  001554  EC5B  F011         	call	___awdiv	;wreg free
  2965  001558  0E0E               	movlw	low TRIANGULAR_GENERAR_3@valoresSeno
  2966  00155A  6E0B               	movwf	(??_TRIANGULAR_GENERAR_3+2)& (0+255),c
  2967  00155C  0E00               	movlw	high TRIANGULAR_GENERAR_3@valoresSeno
  2968  00155E  6E0C               	movwf	(??_TRIANGULAR_GENERAR_3+3)& (0+255),c
  2969  001560  90D8               	bcf	status,0,c
  2970  001562  343A               	rlcf	TRIANGULAR_GENERAR_3@i,w,c
  2971  001564  6ED9               	movwf	fsr2l,c
  2972  001566  343B               	rlcf	TRIANGULAR_GENERAR_3@i+1,w,c
  2973  001568  6EDA               	movwf	fsr2h,c
  2974  00156A  500B               	movf	??_TRIANGULAR_GENERAR_3+2,w,c
  2975  00156C  26D9               	addwf	fsr2l,f,c
  2976  00156E  500C               	movf	??_TRIANGULAR_GENERAR_3+3,w,c
  2977  001570  22DA               	addwfc	fsr2h,f,c
  2978  001572  C001  FFDE         	movff	?___awdiv,postinc2
  2979  001576  C002  FFDD         	movff	?___awdiv+1,postdec2
  2980  00157A  4A3A               	infsnz	TRIANGULAR_GENERAR_3@i,f,c
  2981  00157C  2A3B               	incf	TRIANGULAR_GENERAR_3@i+1,f,c
  2982  00157E  D7CD               	goto	L2
  2983  001580                     l3215:
  2984                           
  2985                           ;Triangular.c: 76: for (i=0;i<20;i++){
  2986  001580  0E00               	movlw	0
  2987  001582  6E3B               	movwf	TRIANGULAR_GENERAR_3@i+1,c
  2988  001584  0E00               	movlw	0
  2989  001586  6E3A               	movwf	TRIANGULAR_GENERAR_3@i,c
  2990  001588  503B               	movf	TRIANGULAR_GENERAR_3@i+1,w,c
  2991  00158A  0A80               	xorlw	128
  2992  00158C  0F80               	addlw	-128
  2993  00158E  0E14               	movlw	20
  2994  001590  B4D8               	btfsc	status,2,c
  2995  001592  5C3A               	subwf	TRIANGULAR_GENERAR_3@i,w,c
  2996  001594  B0D8               	btfsc	status,0,c
  2997  001596  0012               	return	
  2998                           
  2999                           ;Triangular.c: 77: for (j=0;j<valoresSeno[i];j++){
  3000  001598  0E00               	movlw	0
  3001  00159A  6E39               	movwf	TRIANGULAR_GENERAR_3@j+1,c
  3002  00159C  0E00               	movlw	0
  3003  00159E  6E38               	movwf	TRIANGULAR_GENERAR_3@j,c
  3004  0015A0  D004               	goto	l3225
  3005  0015A2                     l422:
  3006                           
  3007                           ;Triangular.c: 78: PORTCbits.RC2=1;
  3008  0015A2  8482               	bsf	3970,2,c	;volatile
  3009                           
  3010                           ;Triangular.c: 79: PORTAbits.RA6=1;
  3011  0015A4  8C80               	bsf	3968,6,c	;volatile
  3012  0015A6  4A38               	infsnz	TRIANGULAR_GENERAR_3@j,f,c
  3013  0015A8  2A39               	incf	TRIANGULAR_GENERAR_3@j+1,f,c
  3014  0015AA                     l3225:
  3015  0015AA  0E0E               	movlw	low TRIANGULAR_GENERAR_3@valoresSeno
  3016  0015AC  6E09               	movwf	??_TRIANGULAR_GENERAR_3& (0+255),c
  3017  0015AE  0E00               	movlw	high TRIANGULAR_GENERAR_3@valoresSeno
  3018  0015B0  6E0A               	movwf	(??_TRIANGULAR_GENERAR_3+1)& (0+255),c
  3019  0015B2  90D8               	bcf	status,0,c
  3020  0015B4  343A               	rlcf	TRIANGULAR_GENERAR_3@i,w,c
  3021  0015B6  6ED9               	movwf	fsr2l,c
  3022  0015B8  343B               	rlcf	TRIANGULAR_GENERAR_3@i+1,w,c
  3023  0015BA  6EDA               	movwf	fsr2h,c
  3024  0015BC  5009               	movf	??_TRIANGULAR_GENERAR_3,w,c
  3025  0015BE  26D9               	addwf	fsr2l,f,c
  3026  0015C0  500A               	movf	??_TRIANGULAR_GENERAR_3+1,w,c
  3027  0015C2  22DA               	addwfc	fsr2h,f,c
  3028  0015C4  CFDE F00B          	movff	postinc2,??_TRIANGULAR_GENERAR_3+2
  3029  0015C8  CFDD F00C          	movff	postdec2,??_TRIANGULAR_GENERAR_3+3
  3030  0015CC  5039               	movf	TRIANGULAR_GENERAR_3@j+1,w,c
  3031  0015CE  0A80               	xorlw	128
  3032  0015D0  6E0D               	movwf	(??_TRIANGULAR_GENERAR_3+4)& (0+255),c
  3033  0015D2  500B               	movf	??_TRIANGULAR_GENERAR_3+2,w,c
  3034  0015D4  5C38               	subwf	TRIANGULAR_GENERAR_3@j,w,c
  3035  0015D6  500C               	movf	??_TRIANGULAR_GENERAR_3+3,w,c
  3036  0015D8  0A80               	xorlw	128
  3037  0015DA  580D               	subwfb	(??_TRIANGULAR_GENERAR_3+4)& (0+255),w,c
  3038  0015DC  A0D8               	btfss	status,0,c
  3039  0015DE  D7E1               	goto	l422
  3040                           
  3041                           ;Triangular.c: 80: }
  3042                           ;Triangular.c: 81: k=100/4-valoresSeno[i];
  3043  0015E0  0E0E               	movlw	low TRIANGULAR_GENERAR_3@valoresSeno
  3044  0015E2  6E09               	movwf	??_TRIANGULAR_GENERAR_3& (0+255),c
  3045  0015E4  0E00               	movlw	high TRIANGULAR_GENERAR_3@valoresSeno
  3046  0015E6  6E0A               	movwf	(??_TRIANGULAR_GENERAR_3+1)& (0+255),c
  3047  0015E8  90D8               	bcf	status,0,c
  3048  0015EA  343A               	rlcf	TRIANGULAR_GENERAR_3@i,w,c
  3049  0015EC  6ED9               	movwf	fsr2l,c
  3050  0015EE  343B               	rlcf	TRIANGULAR_GENERAR_3@i+1,w,c
  3051  0015F0  6EDA               	movwf	fsr2h,c
  3052  0015F2  5009               	movf	??_TRIANGULAR_GENERAR_3,w,c
  3053  0015F4  26D9               	addwf	fsr2l,f,c
  3054  0015F6  500A               	movf	??_TRIANGULAR_GENERAR_3+1,w,c
  3055  0015F8  22DA               	addwfc	fsr2h,f,c
  3056  0015FA  CFDE F00B          	movff	postinc2,??_TRIANGULAR_GENERAR_3+2
  3057  0015FE  CFDD F00C          	movff	postdec2,??_TRIANGULAR_GENERAR_3+3
  3058  001602  1E0B               	comf	??_TRIANGULAR_GENERAR_3+2,f,c
  3059  001604  1E0C               	comf	??_TRIANGULAR_GENERAR_3+3,f,c
  3060  001606  4A0B               	infsnz	??_TRIANGULAR_GENERAR_3+2,f,c
  3061  001608  2A0C               	incf	??_TRIANGULAR_GENERAR_3+3,f,c
  3062  00160A  0E19               	movlw	25
  3063  00160C  240B               	addwf	??_TRIANGULAR_GENERAR_3+2,w,c
  3064  00160E  6E36               	movwf	TRIANGULAR_GENERAR_3@k,c
  3065  001610  0E00               	movlw	0
  3066  001612  200C               	addwfc	??_TRIANGULAR_GENERAR_3+3,w,c
  3067  001614  6E37               	movwf	TRIANGULAR_GENERAR_3@k+1,c
  3068                           
  3069                           ;Triangular.c: 82: for (j=0;j<k;j++){
  3070  001616  0E00               	movlw	0
  3071  001618  6E39               	movwf	TRIANGULAR_GENERAR_3@j+1,c
  3072  00161A  0E00               	movlw	0
  3073  00161C  6E38               	movwf	TRIANGULAR_GENERAR_3@j,c
  3074  00161E  D004               	goto	l3233
  3075  001620                     l425:
  3076                           
  3077                           ;Triangular.c: 83: PORTCbits.RC2=0;
  3078  001620  9482               	bcf	3970,2,c	;volatile
  3079                           
  3080                           ;Triangular.c: 84: PORTAbits.RA6=0;
  3081  001622  9C80               	bcf	3968,6,c	;volatile
  3082  001624  4A38               	infsnz	TRIANGULAR_GENERAR_3@j,f,c
  3083  001626  2A39               	incf	TRIANGULAR_GENERAR_3@j+1,f,c
  3084  001628                     l3233:
  3085  001628  5039               	movf	TRIANGULAR_GENERAR_3@j+1,w,c
  3086  00162A  0A80               	xorlw	128
  3087  00162C  6E09               	movwf	??_TRIANGULAR_GENERAR_3& (0+255),c
  3088  00162E  5036               	movf	TRIANGULAR_GENERAR_3@k,w,c
  3089  001630  5C38               	subwf	TRIANGULAR_GENERAR_3@j,w,c
  3090  001632  5037               	movf	TRIANGULAR_GENERAR_3@k+1,w,c
  3091  001634  0A80               	xorlw	128
  3092  001636  5809               	subwfb	??_TRIANGULAR_GENERAR_3& (0+255),w,c
  3093  001638  A0D8               	btfss	status,0,c
  3094  00163A  D7F2               	goto	l425
  3095  00163C  4A3A               	infsnz	TRIANGULAR_GENERAR_3@i,f,c
  3096  00163E  2A3B               	incf	TRIANGULAR_GENERAR_3@i+1,f,c
  3097  001640  D7A3               	goto	L3
  3098  001642                     __end_of_TRIANGULAR_GENERAR_3:
  3099                           	opt stack 0
  3100                           tblptru	equ	0xFF8
  3101                           tblptrh	equ	0xFF7
  3102                           tblptrl	equ	0xFF6
  3103                           tablat	equ	0xFF5
  3104                           prodh	equ	0xFF4
  3105                           prodl	equ	0xFF3
  3106                           intcon2	equ	0xFF1
  3107                           postinc0	equ	0xFEE
  3108                           wreg	equ	0xFE8
  3109                           postinc1	equ	0xFE6
  3110                           postdec1	equ	0xFE5
  3111                           fsr1l	equ	0xFE1
  3112                           indf2	equ	0xFDF
  3113                           postinc2	equ	0xFDE
  3114                           postdec2	equ	0xFDD
  3115                           fsr2h	equ	0xFDA
  3116                           fsr2l	equ	0xFD9
  3117                           status	equ	0xFD8
  3118                           
  3119 ;; *************** function _TRIANGULAR_GENERAR_2 *****************
  3120 ;; Defined at:
  3121 ;;		line 37 in file "Triangular.c"
  3122 ;; Parameters:    Size  Location     Type
  3123 ;;		None
  3124 ;; Auto vars:     Size  Location     Type
  3125 ;;  valoresSeno    40   13[COMRAM] int [20]
  3126 ;;  i               2   57[COMRAM] int 
  3127 ;;  j               2   55[COMRAM] int 
  3128 ;;  k               2   53[COMRAM] int 
  3129 ;; Return value:  Size  Location     Type
  3130 ;;		None               void
  3131 ;; Registers used:
  3132 ;;		wreg, fsr1l, fsr1h, fsr2l, fsr2h, status,2, status,0, prodl, cstack
  3133 ;; Tracked objects:
  3134 ;;		On entry : 0/0
  3135 ;;		On exit  : 0/0
  3136 ;;		Unchanged: 0/0
  3137 ;; Data sizes:     COMRAM   BANK0   BANK1   BANK2   BANK3   BANK4   BANK5   BANK6   BANK7
  3138 ;;      Params:         0       0       0       0       0       0       0       0       0
  3139 ;;      Locals:        46       0       0       0       0       0       0       0       0
  3140 ;;      Temps:          5       0       0       0       0       0       0       0       0
  3141 ;;      Totals:        51       0       0       0       0       0       0       0       0
  3142 ;;Total ram usage:       51 bytes
  3143 ;; Hardware stack levels used:    1
  3144 ;; Hardware stack levels required when called:    1
  3145 ;; This function calls:
  3146 ;;		___awdiv
  3147 ;; This function is called by:
  3148 ;;		_main
  3149 ;; This function uses a non-reentrant model
  3150 ;;
  3151                           
  3152                           	psect	text6
  3153  001642                     __ptext6:
  3154                           	opt stack 0
  3155  001642                     _TRIANGULAR_GENERAR_2:
  3156                           	opt stack 29
  3157                           
  3158                           ;Triangular.c: 38: OSCCON=0b01010111;
  3159                           
  3160                           ;incstack = 0
  3161  001642  0E57               	movlw	87
  3162  001644  6ED3               	movwf	4051,c	;volatile
  3163                           
  3164                           ;Triangular.c: 39: TRISAbits.RA6=0;
  3165  001646  9C92               	bcf	3986,6,c	;volatile
  3166                           
  3167                           ;Triangular.c: 40: TRISCbits.RC2=0;
  3168  001648  9494               	bcf	3988,2,c	;volatile
  3169                           
  3170                           ;Triangular.c: 41: int valoresSeno [20]= {10,20,30,40,50,60,70,80,90,100,90,80,70,60,50,
      +                          40,30,20,10,0};
  3171  00164A  EE21  F028         	lfsr	2,TRIANGULAR_GENERAR_2@F7359
  3172  00164E  EE10  F00E         	lfsr	1,TRIANGULAR_GENERAR_2@valoresSeno
  3173  001652  0E28               	movlw	40
  3174  001654                     u2511:
  3175  001654  CFDE FFE6          	movff	postinc2,postinc1
  3176  001658  2EE8               	decfsz	wreg,f,c
  3177  00165A  D7FC               	goto	u2511
  3178                           
  3179                           ;Triangular.c: 42: int i, j,k;
  3180                           ;Triangular.c: 43: for (i=0;i<20;i++){
  3181  00165C  0E00               	movlw	0
  3182  00165E  6E3B               	movwf	TRIANGULAR_GENERAR_2@i+1,c
  3183  001660  0E00               	movlw	0
  3184  001662  6E3A               	movwf	TRIANGULAR_GENERAR_2@i,c
  3185  001664  503B               	movf	TRIANGULAR_GENERAR_2@i+1,w,c
  3186  001666  0A80               	xorlw	128
  3187  001668  0F80               	addlw	-128
  3188  00166A  0E14               	movlw	20
  3189  00166C  B4D8               	btfsc	status,2,c
  3190  00166E  5C3A               	subwf	TRIANGULAR_GENERAR_2@i,w,c
  3191  001670  B0D8               	btfsc	status,0,c
  3192  001672  D02B               	goto	l3171
  3193                           
  3194                           ;Triangular.c: 44: valoresSeno [i]=valoresSeno [i]/2;
  3195  001674  0E0E               	movlw	low TRIANGULAR_GENERAR_2@valoresSeno
  3196  001676  6E09               	movwf	??_TRIANGULAR_GENERAR_2& (0+255),c
  3197  001678  0E00               	movlw	high TRIANGULAR_GENERAR_2@valoresSeno
  3198  00167A  6E0A               	movwf	(??_TRIANGULAR_GENERAR_2+1)& (0+255),c
  3199  00167C  90D8               	bcf	status,0,c
  3200  00167E  343A               	rlcf	TRIANGULAR_GENERAR_2@i,w,c
  3201  001680  6ED9               	movwf	fsr2l,c
  3202  001682  343B               	rlcf	TRIANGULAR_GENERAR_2@i+1,w,c
  3203  001684  6EDA               	movwf	fsr2h,c
  3204  001686  5009               	movf	??_TRIANGULAR_GENERAR_2,w,c
  3205  001688  26D9               	addwf	fsr2l,f,c
  3206  00168A  500A               	movf	??_TRIANGULAR_GENERAR_2+1,w,c
  3207  00168C  22DA               	addwfc	fsr2h,f,c
  3208  00168E  CFDE F001          	movff	postinc2,___awdiv@dividend
  3209  001692  CFDD F002          	movff	postdec2,___awdiv@dividend+1
  3210  001696  0E00               	movlw	0
  3211  001698  6E04               	movwf	___awdiv@divisor+1,c
  3212  00169A  0E02               	movlw	2
  3213  00169C  6E03               	movwf	___awdiv@divisor,c
  3214  00169E  EC5B  F011         	call	___awdiv	;wreg free
  3215  0016A2  0E0E               	movlw	low TRIANGULAR_GENERAR_2@valoresSeno
  3216  0016A4  6E0B               	movwf	(??_TRIANGULAR_GENERAR_2+2)& (0+255),c
  3217  0016A6  0E00               	movlw	high TRIANGULAR_GENERAR_2@valoresSeno
  3218  0016A8  6E0C               	movwf	(??_TRIANGULAR_GENERAR_2+3)& (0+255),c
  3219  0016AA  90D8               	bcf	status,0,c
  3220  0016AC  343A               	rlcf	TRIANGULAR_GENERAR_2@i,w,c
  3221  0016AE  6ED9               	movwf	fsr2l,c
  3222  0016B0  343B               	rlcf	TRIANGULAR_GENERAR_2@i+1,w,c
  3223  0016B2  6EDA               	movwf	fsr2h,c
  3224  0016B4  500B               	movf	??_TRIANGULAR_GENERAR_2+2,w,c
  3225  0016B6  26D9               	addwf	fsr2l,f,c
  3226  0016B8  500C               	movf	??_TRIANGULAR_GENERAR_2+3,w,c
  3227  0016BA  22DA               	addwfc	fsr2h,f,c
  3228  0016BC  C001  FFDE         	movff	?___awdiv,postinc2
  3229  0016C0  C002  FFDD         	movff	?___awdiv+1,postdec2
  3230  0016C4  4A3A               	infsnz	TRIANGULAR_GENERAR_2@i,f,c
  3231  0016C6  2A3B               	incf	TRIANGULAR_GENERAR_2@i+1,f,c
  3232  0016C8  D7CD               	goto	L4
  3233  0016CA                     l3171:
  3234                           
  3235                           ;Triangular.c: 49: for (i=0;i<20;i++){
  3236  0016CA  0E00               	movlw	0
  3237  0016CC  6E3B               	movwf	TRIANGULAR_GENERAR_2@i+1,c
  3238  0016CE  0E00               	movlw	0
  3239  0016D0  6E3A               	movwf	TRIANGULAR_GENERAR_2@i,c
  3240  0016D2  503B               	movf	TRIANGULAR_GENERAR_2@i+1,w,c
  3241  0016D4  0A80               	xorlw	128
  3242  0016D6  0F80               	addlw	-128
  3243  0016D8  0E14               	movlw	20
  3244  0016DA  B4D8               	btfsc	status,2,c
  3245  0016DC  5C3A               	subwf	TRIANGULAR_GENERAR_2@i,w,c
  3246  0016DE  B0D8               	btfsc	status,0,c
  3247  0016E0  0012               	return	
  3248                           
  3249                           ;Triangular.c: 50: for (j=0;j<valoresSeno[i];j++){
  3250  0016E2  0E00               	movlw	0
  3251  0016E4  6E39               	movwf	TRIANGULAR_GENERAR_2@j+1,c
  3252  0016E6  0E00               	movlw	0
  3253  0016E8  6E38               	movwf	TRIANGULAR_GENERAR_2@j,c
  3254  0016EA  D004               	goto	l3181
  3255  0016EC                     l404:
  3256                           
  3257                           ;Triangular.c: 51: PORTCbits.RC2=1;
  3258  0016EC  8482               	bsf	3970,2,c	;volatile
  3259                           
  3260                           ;Triangular.c: 52: PORTAbits.RA6=1;
  3261  0016EE  8C80               	bsf	3968,6,c	;volatile
  3262  0016F0  4A38               	infsnz	TRIANGULAR_GENERAR_2@j,f,c
  3263  0016F2  2A39               	incf	TRIANGULAR_GENERAR_2@j+1,f,c
  3264  0016F4                     l3181:
  3265  0016F4  0E0E               	movlw	low TRIANGULAR_GENERAR_2@valoresSeno
  3266  0016F6  6E09               	movwf	??_TRIANGULAR_GENERAR_2& (0+255),c
  3267  0016F8  0E00               	movlw	high TRIANGULAR_GENERAR_2@valoresSeno
  3268  0016FA  6E0A               	movwf	(??_TRIANGULAR_GENERAR_2+1)& (0+255),c
  3269  0016FC  90D8               	bcf	status,0,c
  3270  0016FE  343A               	rlcf	TRIANGULAR_GENERAR_2@i,w,c
  3271  001700  6ED9               	movwf	fsr2l,c
  3272  001702  343B               	rlcf	TRIANGULAR_GENERAR_2@i+1,w,c
  3273  001704  6EDA               	movwf	fsr2h,c
  3274  001706  5009               	movf	??_TRIANGULAR_GENERAR_2,w,c
  3275  001708  26D9               	addwf	fsr2l,f,c
  3276  00170A  500A               	movf	??_TRIANGULAR_GENERAR_2+1,w,c
  3277  00170C  22DA               	addwfc	fsr2h,f,c
  3278  00170E  CFDE F00B          	movff	postinc2,??_TRIANGULAR_GENERAR_2+2
  3279  001712  CFDD F00C          	movff	postdec2,??_TRIANGULAR_GENERAR_2+3
  3280  001716  5039               	movf	TRIANGULAR_GENERAR_2@j+1,w,c
  3281  001718  0A80               	xorlw	128
  3282  00171A  6E0D               	movwf	(??_TRIANGULAR_GENERAR_2+4)& (0+255),c
  3283  00171C  500B               	movf	??_TRIANGULAR_GENERAR_2+2,w,c
  3284  00171E  5C38               	subwf	TRIANGULAR_GENERAR_2@j,w,c
  3285  001720  500C               	movf	??_TRIANGULAR_GENERAR_2+3,w,c
  3286  001722  0A80               	xorlw	128
  3287  001724  580D               	subwfb	(??_TRIANGULAR_GENERAR_2+4)& (0+255),w,c
  3288  001726  A0D8               	btfss	status,0,c
  3289  001728  D7E1               	goto	l404
  3290                           
  3291                           ;Triangular.c: 53: }
  3292                           ;Triangular.c: 54: k=100/2-valoresSeno[i];
  3293  00172A  0E0E               	movlw	low TRIANGULAR_GENERAR_2@valoresSeno
  3294  00172C  6E09               	movwf	??_TRIANGULAR_GENERAR_2& (0+255),c
  3295  00172E  0E00               	movlw	high TRIANGULAR_GENERAR_2@valoresSeno
  3296  001730  6E0A               	movwf	(??_TRIANGULAR_GENERAR_2+1)& (0+255),c
  3297  001732  90D8               	bcf	status,0,c
  3298  001734  343A               	rlcf	TRIANGULAR_GENERAR_2@i,w,c
  3299  001736  6ED9               	movwf	fsr2l,c
  3300  001738  343B               	rlcf	TRIANGULAR_GENERAR_2@i+1,w,c
  3301  00173A  6EDA               	movwf	fsr2h,c
  3302  00173C  5009               	movf	??_TRIANGULAR_GENERAR_2,w,c
  3303  00173E  26D9               	addwf	fsr2l,f,c
  3304  001740  500A               	movf	??_TRIANGULAR_GENERAR_2+1,w,c
  3305  001742  22DA               	addwfc	fsr2h,f,c
  3306  001744  CFDE F00B          	movff	postinc2,??_TRIANGULAR_GENERAR_2+2
  3307  001748  CFDD F00C          	movff	postdec2,??_TRIANGULAR_GENERAR_2+3
  3308  00174C  1E0B               	comf	??_TRIANGULAR_GENERAR_2+2,f,c
  3309  00174E  1E0C               	comf	??_TRIANGULAR_GENERAR_2+3,f,c
  3310  001750  4A0B               	infsnz	??_TRIANGULAR_GENERAR_2+2,f,c
  3311  001752  2A0C               	incf	??_TRIANGULAR_GENERAR_2+3,f,c
  3312  001754  0E32               	movlw	50
  3313  001756  240B               	addwf	??_TRIANGULAR_GENERAR_2+2,w,c
  3314  001758  6E36               	movwf	TRIANGULAR_GENERAR_2@k,c
  3315  00175A  0E00               	movlw	0
  3316  00175C  200C               	addwfc	??_TRIANGULAR_GENERAR_2+3,w,c
  3317  00175E  6E37               	movwf	TRIANGULAR_GENERAR_2@k+1,c
  3318                           
  3319                           ;Triangular.c: 55: for (j=0;j<k;j++){
  3320  001760  0E00               	movlw	0
  3321  001762  6E39               	movwf	TRIANGULAR_GENERAR_2@j+1,c
  3322  001764  0E00               	movlw	0
  3323  001766  6E38               	movwf	TRIANGULAR_GENERAR_2@j,c
  3324  001768  D004               	goto	l3189
  3325  00176A                     l407:
  3326                           
  3327                           ;Triangular.c: 56: PORTCbits.RC2=0;
  3328  00176A  9482               	bcf	3970,2,c	;volatile
  3329                           
  3330                           ;Triangular.c: 57: PORTAbits.RA6=0;
  3331  00176C  9C80               	bcf	3968,6,c	;volatile
  3332  00176E  4A38               	infsnz	TRIANGULAR_GENERAR_2@j,f,c
  3333  001770  2A39               	incf	TRIANGULAR_GENERAR_2@j+1,f,c
  3334  001772                     l3189:
  3335  001772  5039               	movf	TRIANGULAR_GENERAR_2@j+1,w,c
  3336  001774  0A80               	xorlw	128
  3337  001776  6E09               	movwf	??_TRIANGULAR_GENERAR_2& (0+255),c
  3338  001778  5036               	movf	TRIANGULAR_GENERAR_2@k,w,c
  3339  00177A  5C38               	subwf	TRIANGULAR_GENERAR_2@j,w,c
  3340  00177C  5037               	movf	TRIANGULAR_GENERAR_2@k+1,w,c
  3341  00177E  0A80               	xorlw	128
  3342  001780  5809               	subwfb	??_TRIANGULAR_GENERAR_2& (0+255),w,c
  3343  001782  A0D8               	btfss	status,0,c
  3344  001784  D7F2               	goto	l407
  3345  001786  4A3A               	infsnz	TRIANGULAR_GENERAR_2@i,f,c
  3346  001788  2A3B               	incf	TRIANGULAR_GENERAR_2@i+1,f,c
  3347  00178A  D7A3               	goto	L5
  3348  00178C                     __end_of_TRIANGULAR_GENERAR_2:
  3349                           	opt stack 0
  3350                           tblptru	equ	0xFF8
  3351                           tblptrh	equ	0xFF7
  3352                           tblptrl	equ	0xFF6
  3353                           tablat	equ	0xFF5
  3354                           prodh	equ	0xFF4
  3355                           prodl	equ	0xFF3
  3356                           intcon2	equ	0xFF1
  3357                           postinc0	equ	0xFEE
  3358                           wreg	equ	0xFE8
  3359                           postinc1	equ	0xFE6
  3360                           postdec1	equ	0xFE5
  3361                           fsr1l	equ	0xFE1
  3362                           indf2	equ	0xFDF
  3363                           postinc2	equ	0xFDE
  3364                           postdec2	equ	0xFDD
  3365                           fsr2h	equ	0xFDA
  3366                           fsr2l	equ	0xFD9
  3367                           status	equ	0xFD8
  3368                           
  3369 ;; *************** function ___awdiv *****************
  3370 ;; Defined at:
  3371 ;;		line 8 in file "/opt/microchip/xc8/v1.32/sources/common/awdiv.c"
  3372 ;; Parameters:    Size  Location     Type
  3373 ;;  dividend        2    0[COMRAM] int 
  3374 ;;  divisor         2    2[COMRAM] int 
  3375 ;; Auto vars:     Size  Location     Type
  3376 ;;  quotient        2    6[COMRAM] int 
  3377 ;;  sign            1    5[COMRAM] unsigned char 
  3378 ;;  counter         1    4[COMRAM] unsigned char 
  3379 ;; Return value:  Size  Location     Type
  3380 ;;                  2    0[COMRAM] int 
  3381 ;; Registers used:
  3382 ;;		wreg, status,2, status,0, prodl
  3383 ;; Tracked objects:
  3384 ;;		On entry : 0/0
  3385 ;;		On exit  : 0/0
  3386 ;;		Unchanged: 0/0
  3387 ;; Data sizes:     COMRAM   BANK0   BANK1   BANK2   BANK3   BANK4   BANK5   BANK6   BANK7
  3388 ;;      Params:         4       0       0       0       0       0       0       0       0
  3389 ;;      Locals:         4       0       0       0       0       0       0       0       0
  3390 ;;      Temps:          0       0       0       0       0       0       0       0       0
  3391 ;;      Totals:         8       0       0       0       0       0       0       0       0
  3392 ;;Total ram usage:        8 bytes
  3393 ;; Hardware stack levels used:    1
  3394 ;; This function calls:
  3395 ;;		Nothing
  3396 ;; This function is called by:
  3397 ;;		_TRIANGULAR_GENERAR_2
  3398 ;;		_TRIANGULAR_GENERAR_3
  3399 ;; This function uses a non-reentrant model
  3400 ;;
  3401                           
  3402                           	psect	text7
  3403  0022B6                     __ptext7:
  3404                           	opt stack 0
  3405  0022B6                     ___awdiv:
  3406                           	opt stack 29
  3407                           
  3408                           ;incstack = 0
  3409  0022B6  0E00               	movlw	0
  3410  0022B8  6E06               	movwf	___awdiv@sign,c
  3411  0022BA  5004               	movf	___awdiv@divisor+1,w,c
  3412  0022BC  0A80               	xorlw	128
  3413  0022BE  6EF3               	movwf	prodl,c
  3414  0022C0  0E80               	movlw	128
  3415  0022C2  5CF3               	subwf	prodl,w,c
  3416  0022C4  0E00               	movlw	0
  3417  0022C6  B4D8               	btfsc	status,2,c
  3418  0022C8  5C03               	subwf	___awdiv@divisor,w,c
  3419  0022CA  B0D8               	btfsc	status,0,c
  3420  0022CC  D006               	goto	l2885
  3421  0022CE  6C03               	negf	___awdiv@divisor,c
  3422  0022D0  1E04               	comf	___awdiv@divisor+1,f,c
  3423  0022D2  B0D8               	btfsc	status,0,c
  3424  0022D4  2A04               	incf	___awdiv@divisor+1,f,c
  3425  0022D6  0E01               	movlw	1
  3426  0022D8  6E06               	movwf	___awdiv@sign,c
  3427  0022DA                     l2885:
  3428  0022DA  5002               	movf	___awdiv@dividend+1,w,c
  3429  0022DC  0A80               	xorlw	128
  3430  0022DE  6EF3               	movwf	prodl,c
  3431  0022E0  0E80               	movlw	128
  3432  0022E2  5CF3               	subwf	prodl,w,c
  3433  0022E4  0E00               	movlw	0
  3434  0022E6  B4D8               	btfsc	status,2,c
  3435  0022E8  5C01               	subwf	___awdiv@dividend,w,c
  3436  0022EA  B0D8               	btfsc	status,0,c
  3437  0022EC  D006               	goto	l2891
  3438  0022EE  6C01               	negf	___awdiv@dividend,c
  3439  0022F0  1E02               	comf	___awdiv@dividend+1,f,c
  3440  0022F2  B0D8               	btfsc	status,0,c
  3441  0022F4  2A02               	incf	___awdiv@dividend+1,f,c
  3442  0022F6  0E01               	movlw	1
  3443  0022F8  1A06               	xorwf	___awdiv@sign,f,c
  3444  0022FA                     l2891:
  3445  0022FA  0E00               	movlw	0
  3446  0022FC  6E08               	movwf	___awdiv@quotient+1,c
  3447  0022FE  0E00               	movlw	0
  3448  002300  6E07               	movwf	___awdiv@quotient,c
  3449  002302  5004               	movf	___awdiv@divisor+1,w,c
  3450  002304  1003               	iorwf	___awdiv@divisor,w,c
  3451  002306  B4D8               	btfsc	status,2,c
  3452  002308  D01C               	goto	l2913
  3453  00230A  0E01               	movlw	1
  3454  00230C  6E05               	movwf	___awdiv@counter,c
  3455  00230E  D004               	goto	l2899
  3456  002310                     l2897:
  3457  002310  90D8               	bcf	status,0,c
  3458  002312  3603               	rlcf	___awdiv@divisor,f,c
  3459  002314  3604               	rlcf	___awdiv@divisor+1,f,c
  3460  002316  2A05               	incf	___awdiv@counter,f,c
  3461  002318                     l2899:
  3462  002318  AE04               	btfss	___awdiv@divisor+1,7,c
  3463  00231A  D7FA               	goto	l2897
  3464  00231C                     l2901:
  3465  00231C  90D8               	bcf	status,0,c
  3466  00231E  3607               	rlcf	___awdiv@quotient,f,c
  3467  002320  3608               	rlcf	___awdiv@quotient+1,f,c
  3468  002322  5003               	movf	___awdiv@divisor,w,c
  3469  002324  5C01               	subwf	___awdiv@dividend,w,c
  3470  002326  5004               	movf	___awdiv@divisor+1,w,c
  3471  002328  5802               	subwfb	___awdiv@dividend+1,w,c
  3472  00232A  A0D8               	btfss	status,0,c
  3473  00232C  D005               	goto	l2909
  3474  00232E  5003               	movf	___awdiv@divisor,w,c
  3475  002330  5E01               	subwf	___awdiv@dividend,f,c
  3476  002332  5004               	movf	___awdiv@divisor+1,w,c
  3477  002334  5A02               	subwfb	___awdiv@dividend+1,f,c
  3478  002336  8007               	bsf	___awdiv@quotient,0,c
  3479  002338                     l2909:
  3480  002338  90D8               	bcf	status,0,c
  3481  00233A  3204               	rrcf	___awdiv@divisor+1,f,c
  3482  00233C  3203               	rrcf	___awdiv@divisor,f,c
  3483  00233E  2E05               	decfsz	___awdiv@counter,f,c
  3484  002340  D7ED               	goto	l2901
  3485  002342                     l2913:
  3486  002342  5006               	movf	___awdiv@sign,w,c
  3487  002344  B4D8               	btfsc	status,2,c
  3488  002346  D004               	goto	l2917
  3489  002348  6C07               	negf	___awdiv@quotient,c
  3490  00234A  1E08               	comf	___awdiv@quotient+1,f,c
  3491  00234C  B0D8               	btfsc	status,0,c
  3492  00234E  2A08               	incf	___awdiv@quotient+1,f,c
  3493  002350                     l2917:
  3494  002350  C007  F001         	movff	___awdiv@quotient,?___awdiv
  3495  002354  C008  F002         	movff	___awdiv@quotient+1,?___awdiv+1
  3496  002358  0012               	return	
  3497  00235A                     __end_of___awdiv:
  3498                           	opt stack 0
  3499                           tblptru	equ	0xFF8
  3500                           tblptrh	equ	0xFF7
  3501                           tblptrl	equ	0xFF6
  3502                           tablat	equ	0xFF5
  3503                           prodh	equ	0xFF4
  3504                           prodl	equ	0xFF3
  3505                           intcon2	equ	0xFF1
  3506                           postinc0	equ	0xFEE
  3507                           wreg	equ	0xFE8
  3508                           postinc1	equ	0xFE6
  3509                           postdec1	equ	0xFE5
  3510                           fsr1l	equ	0xFE1
  3511                           indf2	equ	0xFDF
  3512                           postinc2	equ	0xFDE
  3513                           postdec2	equ	0xFDD
  3514                           fsr2h	equ	0xFDA
  3515                           fsr2l	equ	0xFD9
  3516                           status	equ	0xFD8
  3517                           
  3518 ;; *************** function _TRIANGULAR_GENERAR_1 *****************
  3519 ;; Defined at:
  3520 ;;		line 10 in file "Triangular.c"
  3521 ;; Parameters:    Size  Location     Type
  3522 ;;		None
  3523 ;; Auto vars:     Size  Location     Type
  3524 ;;  valoresSeno    40    5[COMRAM] int [20]
  3525 ;;  i               2   49[COMRAM] int 
  3526 ;;  j               2   47[COMRAM] int 
  3527 ;;  k               2   45[COMRAM] int 
  3528 ;; Return value:  Size  Location     Type
  3529 ;;		None               void
  3530 ;; Registers used:
  3531 ;;		wreg, fsr1l, fsr1h, fsr2l, fsr2h, status,2, status,0
  3532 ;; Tracked objects:
  3533 ;;		On entry : 0/0
  3534 ;;		On exit  : 0/0
  3535 ;;		Unchanged: 0/0
  3536 ;; Data sizes:     COMRAM   BANK0   BANK1   BANK2   BANK3   BANK4   BANK5   BANK6   BANK7
  3537 ;;      Params:         0       0       0       0       0       0       0       0       0
  3538 ;;      Locals:        46       0       0       0       0       0       0       0       0
  3539 ;;      Temps:          5       0       0       0       0       0       0       0       0
  3540 ;;      Totals:        51       0       0       0       0       0       0       0       0
  3541 ;;Total ram usage:       51 bytes
  3542 ;; Hardware stack levels used:    1
  3543 ;; This function calls:
  3544 ;;		Nothing
  3545 ;; This function is called by:
  3546 ;;		_main
  3547 ;; This function uses a non-reentrant model
  3548 ;;
  3549                           
  3550                           	psect	text8
  3551  001D28                     __ptext8:
  3552                           	opt stack 0
  3553  001D28                     _TRIANGULAR_GENERAR_1:
  3554                           	opt stack 30
  3555                           
  3556                           ;Triangular.c: 11: OSCCON=0b01010111;
  3557                           
  3558                           ;incstack = 0
  3559  001D28  0E57               	movlw	87
  3560  001D2A  6ED3               	movwf	4051,c	;volatile
  3561                           
  3562                           ;Triangular.c: 12: TRISAbits.RA6=0;
  3563  001D2C  9C92               	bcf	3986,6,c	;volatile
  3564                           
  3565                           ;Triangular.c: 13: TRISCbits.RC2=0;
  3566  001D2E  9494               	bcf	3988,2,c	;volatile
  3567                           
  3568                           ;Triangular.c: 14: int valoresSeno [20]= {10,20,30,40,50,60,70,80,90,100,90,80,70,60,50,
      +                          40,30,20,10,0};
  3569  001D30  EE21  F000         	lfsr	2,TRIANGULAR_GENERAR_1@F7354
  3570  001D34  EE10  F006         	lfsr	1,TRIANGULAR_GENERAR_1@valoresSeno
  3571  001D38  0E28               	movlw	40
  3572  001D3A                     u2441:
  3573  001D3A  CFDE FFE6          	movff	postinc2,postinc1
  3574  001D3E  2EE8               	decfsz	wreg,f,c
  3575  001D40  D7FC               	goto	u2441
  3576                           
  3577                           ;Triangular.c: 15: int i, j,k;
  3578                           ;Triangular.c: 16: for (i=0;i<20;i++){
  3579  001D42  0E00               	movlw	0
  3580  001D44  6E33               	movwf	TRIANGULAR_GENERAR_1@i+1,c
  3581  001D46  0E00               	movlw	0
  3582  001D48  6E32               	movwf	TRIANGULAR_GENERAR_1@i,c
  3583  001D4A  5033               	movf	TRIANGULAR_GENERAR_1@i+1,w,c
  3584  001D4C  0A80               	xorlw	128
  3585  001D4E  0F80               	addlw	-128
  3586  001D50  0E14               	movlw	20
  3587  001D52  B4D8               	btfsc	status,2,c
  3588  001D54  5C32               	subwf	TRIANGULAR_GENERAR_1@i,w,c
  3589  001D56  B0D8               	btfsc	status,0,c
  3590  001D58  D003               	goto	l3127
  3591  001D5A  4A32               	infsnz	TRIANGULAR_GENERAR_1@i,f,c
  3592  001D5C  2A33               	incf	TRIANGULAR_GENERAR_1@i+1,f,c
  3593  001D5E  D7F5               	goto	L6
  3594  001D60                     l3127:
  3595                           
  3596                           ;Triangular.c: 22: for (i=0;i<20;i++){
  3597  001D60  0E00               	movlw	0
  3598  001D62  6E33               	movwf	TRIANGULAR_GENERAR_1@i+1,c
  3599  001D64  0E00               	movlw	0
  3600  001D66  6E32               	movwf	TRIANGULAR_GENERAR_1@i,c
  3601  001D68  5033               	movf	TRIANGULAR_GENERAR_1@i+1,w,c
  3602  001D6A  0A80               	xorlw	128
  3603  001D6C  0F80               	addlw	-128
  3604  001D6E  0E14               	movlw	20
  3605  001D70  B4D8               	btfsc	status,2,c
  3606  001D72  5C32               	subwf	TRIANGULAR_GENERAR_1@i,w,c
  3607  001D74  B0D8               	btfsc	status,0,c
  3608  001D76  0012               	return	
  3609                           
  3610                           ;Triangular.c: 23: for (j=0;j<valoresSeno[i];j++){
  3611  001D78  0E00               	movlw	0
  3612  001D7A  6E31               	movwf	TRIANGULAR_GENERAR_1@j+1,c
  3613  001D7C  0E00               	movlw	0
  3614  001D7E  6E30               	movwf	TRIANGULAR_GENERAR_1@j,c
  3615  001D80  D004               	goto	l3137
  3616  001D82                     l386:
  3617                           
  3618                           ;Triangular.c: 24: PORTCbits.RC2=1;
  3619  001D82  8482               	bsf	3970,2,c	;volatile
  3620                           
  3621                           ;Triangular.c: 25: PORTAbits.RA6=1;
  3622  001D84  8C80               	bsf	3968,6,c	;volatile
  3623  001D86  4A30               	infsnz	TRIANGULAR_GENERAR_1@j,f,c
  3624  001D88  2A31               	incf	TRIANGULAR_GENERAR_1@j+1,f,c
  3625  001D8A                     l3137:
  3626  001D8A  0E06               	movlw	low TRIANGULAR_GENERAR_1@valoresSeno
  3627  001D8C  6E01               	movwf	??_TRIANGULAR_GENERAR_1& (0+255),c
  3628  001D8E  0E00               	movlw	high TRIANGULAR_GENERAR_1@valoresSeno
  3629  001D90  6E02               	movwf	(??_TRIANGULAR_GENERAR_1+1)& (0+255),c
  3630  001D92  90D8               	bcf	status,0,c
  3631  001D94  3432               	rlcf	TRIANGULAR_GENERAR_1@i,w,c
  3632  001D96  6ED9               	movwf	fsr2l,c
  3633  001D98  3433               	rlcf	TRIANGULAR_GENERAR_1@i+1,w,c
  3634  001D9A  6EDA               	movwf	fsr2h,c
  3635  001D9C  5001               	movf	??_TRIANGULAR_GENERAR_1,w,c
  3636  001D9E  26D9               	addwf	fsr2l,f,c
  3637  001DA0  5002               	movf	??_TRIANGULAR_GENERAR_1+1,w,c
  3638  001DA2  22DA               	addwfc	fsr2h,f,c
  3639  001DA4  CFDE F003          	movff	postinc2,??_TRIANGULAR_GENERAR_1+2
  3640  001DA8  CFDD F004          	movff	postdec2,??_TRIANGULAR_GENERAR_1+3
  3641  001DAC  5031               	movf	TRIANGULAR_GENERAR_1@j+1,w,c
  3642  001DAE  0A80               	xorlw	128
  3643  001DB0  6E05               	movwf	(??_TRIANGULAR_GENERAR_1+4)& (0+255),c
  3644  001DB2  5003               	movf	??_TRIANGULAR_GENERAR_1+2,w,c
  3645  001DB4  5C30               	subwf	TRIANGULAR_GENERAR_1@j,w,c
  3646  001DB6  5004               	movf	??_TRIANGULAR_GENERAR_1+3,w,c
  3647  001DB8  0A80               	xorlw	128
  3648  001DBA  5805               	subwfb	(??_TRIANGULAR_GENERAR_1+4)& (0+255),w,c
  3649  001DBC  A0D8               	btfss	status,0,c
  3650  001DBE  D7E1               	goto	l386
  3651                           
  3652                           ;Triangular.c: 26: }
  3653                           ;Triangular.c: 27: k=100-valoresSeno[i];
  3654  001DC0  0E06               	movlw	low TRIANGULAR_GENERAR_1@valoresSeno
  3655  001DC2  6E01               	movwf	??_TRIANGULAR_GENERAR_1& (0+255),c
  3656  001DC4  0E00               	movlw	high TRIANGULAR_GENERAR_1@valoresSeno
  3657  001DC6  6E02               	movwf	(??_TRIANGULAR_GENERAR_1+1)& (0+255),c
  3658  001DC8  90D8               	bcf	status,0,c
  3659  001DCA  3432               	rlcf	TRIANGULAR_GENERAR_1@i,w,c
  3660  001DCC  6ED9               	movwf	fsr2l,c
  3661  001DCE  3433               	rlcf	TRIANGULAR_GENERAR_1@i+1,w,c
  3662  001DD0  6EDA               	movwf	fsr2h,c
  3663  001DD2  5001               	movf	??_TRIANGULAR_GENERAR_1,w,c
  3664  001DD4  26D9               	addwf	fsr2l,f,c
  3665  001DD6  5002               	movf	??_TRIANGULAR_GENERAR_1+1,w,c
  3666  001DD8  22DA               	addwfc	fsr2h,f,c
  3667  001DDA  CFDE F003          	movff	postinc2,??_TRIANGULAR_GENERAR_1+2
  3668  001DDE  CFDD F004          	movff	postdec2,??_TRIANGULAR_GENERAR_1+3
  3669  001DE2  1E03               	comf	??_TRIANGULAR_GENERAR_1+2,f,c
  3670  001DE4  1E04               	comf	??_TRIANGULAR_GENERAR_1+3,f,c
  3671  001DE6  4A03               	infsnz	??_TRIANGULAR_GENERAR_1+2,f,c
  3672  001DE8  2A04               	incf	??_TRIANGULAR_GENERAR_1+3,f,c
  3673  001DEA  0E64               	movlw	100
  3674  001DEC  2403               	addwf	??_TRIANGULAR_GENERAR_1+2,w,c
  3675  001DEE  6E2E               	movwf	TRIANGULAR_GENERAR_1@k,c
  3676  001DF0  0E00               	movlw	0
  3677  001DF2  2004               	addwfc	??_TRIANGULAR_GENERAR_1+3,w,c
  3678  001DF4  6E2F               	movwf	TRIANGULAR_GENERAR_1@k+1,c
  3679                           
  3680                           ;Triangular.c: 28: for (j=0;j<k;j++){
  3681  001DF6  0E00               	movlw	0
  3682  001DF8  6E31               	movwf	TRIANGULAR_GENERAR_1@j+1,c
  3683  001DFA  0E00               	movlw	0
  3684  001DFC  6E30               	movwf	TRIANGULAR_GENERAR_1@j,c
  3685  001DFE  D004               	goto	l3145
  3686  001E00                     l389:
  3687                           
  3688                           ;Triangular.c: 29: PORTCbits.RC2=0;
  3689  001E00  9482               	bcf	3970,2,c	;volatile
  3690                           
  3691                           ;Triangular.c: 30: PORTAbits.RA6=0;
  3692  001E02  9C80               	bcf	3968,6,c	;volatile
  3693  001E04  4A30               	infsnz	TRIANGULAR_GENERAR_1@j,f,c
  3694  001E06  2A31               	incf	TRIANGULAR_GENERAR_1@j+1,f,c
  3695  001E08                     l3145:
  3696  001E08  5031               	movf	TRIANGULAR_GENERAR_1@j+1,w,c
  3697  001E0A  0A80               	xorlw	128
  3698  001E0C  6E01               	movwf	??_TRIANGULAR_GENERAR_1& (0+255),c
  3699  001E0E  502E               	movf	TRIANGULAR_GENERAR_1@k,w,c
  3700  001E10  5C30               	subwf	TRIANGULAR_GENERAR_1@j,w,c
  3701  001E12  502F               	movf	TRIANGULAR_GENERAR_1@k+1,w,c
  3702  001E14  0A80               	xorlw	128
  3703  001E16  5801               	subwfb	??_TRIANGULAR_GENERAR_1& (0+255),w,c
  3704  001E18  A0D8               	btfss	status,0,c
  3705  001E1A  D7F2               	goto	l389
  3706  001E1C  4A32               	infsnz	TRIANGULAR_GENERAR_1@i,f,c
  3707  001E1E  2A33               	incf	TRIANGULAR_GENERAR_1@i+1,f,c
  3708  001E20  D7A3               	goto	L7
  3709  001E22                     __end_of_TRIANGULAR_GENERAR_1:
  3710                           	opt stack 0
  3711                           tblptru	equ	0xFF8
  3712                           tblptrh	equ	0xFF7
  3713                           tblptrl	equ	0xFF6
  3714                           tablat	equ	0xFF5
  3715                           prodh	equ	0xFF4
  3716                           prodl	equ	0xFF3
  3717                           intcon2	equ	0xFF1
  3718                           postinc0	equ	0xFEE
  3719                           wreg	equ	0xFE8
  3720                           postinc1	equ	0xFE6
  3721                           postdec1	equ	0xFE5
  3722                           fsr1l	equ	0xFE1
  3723                           indf2	equ	0xFDF
  3724                           postinc2	equ	0xFDE
  3725                           postdec2	equ	0xFDD
  3726                           fsr2h	equ	0xFDA
  3727                           fsr2l	equ	0xFD9
  3728                           status	equ	0xFD8
  3729                           
  3730 ;; *************** function _SENO_GENERAR_3 *****************
  3731 ;; Defined at:
  3732 ;;		line 61 in file "SENO.c"
  3733 ;; Parameters:    Size  Location     Type
  3734 ;;		None
  3735 ;; Auto vars:     Size  Location     Type
  3736 ;;  valoresSeno    30    5[COMRAM] int [15]
  3737 ;;  i               2   39[COMRAM] int 
  3738 ;;  j               2   37[COMRAM] int 
  3739 ;;  k               2   35[COMRAM] int 
  3740 ;; Return value:  Size  Location     Type
  3741 ;;		None               void
  3742 ;; Registers used:
  3743 ;;		wreg, fsr1l, fsr1h, fsr2l, fsr2h, status,2, status,0
  3744 ;; Tracked objects:
  3745 ;;		On entry : 0/0
  3746 ;;		On exit  : 0/0
  3747 ;;		Unchanged: 0/0
  3748 ;; Data sizes:     COMRAM   BANK0   BANK1   BANK2   BANK3   BANK4   BANK5   BANK6   BANK7
  3749 ;;      Params:         0       0       0       0       0       0       0       0       0
  3750 ;;      Locals:        36       0       0       0       0       0       0       0       0
  3751 ;;      Temps:          5       0       0       0       0       0       0       0       0
  3752 ;;      Totals:        41       0       0       0       0       0       0       0       0
  3753 ;;Total ram usage:       41 bytes
  3754 ;; Hardware stack levels used:    1
  3755 ;; This function calls:
  3756 ;;		Nothing
  3757 ;; This function is called by:
  3758 ;;		_main
  3759 ;; This function uses a non-reentrant model
  3760 ;;
  3761                           
  3762                           	psect	text9
  3763  001E22                     __ptext9:
  3764                           	opt stack 0
  3765  001E22                     _SENO_GENERAR_3:
  3766                           	opt stack 30
  3767                           
  3768                           ;SENO.c: 63: OSCCON=0b01010111;
  3769                           
  3770                           ;incstack = 0
  3771  001E22  0E57               	movlw	87
  3772  001E24  6ED3               	movwf	4051,c	;volatile
  3773                           
  3774                           ;SENO.c: 64: TRISAbits.RA6=0;
  3775  001E26  9C92               	bcf	3986,6,c	;volatile
  3776                           
  3777                           ;SENO.c: 65: TRISCbits.RC2=0;
  3778  001E28  9494               	bcf	3988,2,c	;volatile
  3779                           
  3780                           ;SENO.c: 66: int valoresSeno [15]= {50,70,87,98,100,93,79,60,40,21,7,0,2,13,30};
  3781  001E2A  EE20  F0AC         	lfsr	2,SENO_GENERAR_3@F7364
  3782  001E2E  EE10  F006         	lfsr	1,SENO_GENERAR_3@valoresSeno
  3783  001E32  0E1E               	movlw	30
  3784  001E34                     u2791:
  3785  001E34  CFDE FFE6          	movff	postinc2,postinc1
  3786  001E38  2EE8               	decfsz	wreg,f,c
  3787  001E3A  D7FC               	goto	u2791
  3788                           
  3789                           ;SENO.c: 67: int i, j,k;
  3790                           ;SENO.c: 68: for (i=0;i<15;i++){
  3791  001E3C  0E00               	movlw	0
  3792  001E3E  6E29               	movwf	SENO_GENERAR_3@i+1,c
  3793  001E40  0E00               	movlw	0
  3794  001E42  6E28               	movwf	SENO_GENERAR_3@i,c
  3795  001E44  5029               	movf	SENO_GENERAR_3@i+1,w,c
  3796  001E46  0A80               	xorlw	128
  3797  001E48  0F80               	addlw	-128
  3798  001E4A  0E0F               	movlw	15
  3799  001E4C  B4D8               	btfsc	status,2,c
  3800  001E4E  5C28               	subwf	SENO_GENERAR_3@i,w,c
  3801  001E50  B0D8               	btfsc	status,0,c
  3802  001E52  D003               	goto	l3341
  3803  001E54  4A28               	infsnz	SENO_GENERAR_3@i,f,c
  3804  001E56  2A29               	incf	SENO_GENERAR_3@i+1,f,c
  3805  001E58  D7F5               	goto	L8
  3806  001E5A                     l3341:
  3807                           
  3808                           ;SENO.c: 72: for (i=0;i<15;i++){
  3809  001E5A  0E00               	movlw	0
  3810  001E5C  6E29               	movwf	SENO_GENERAR_3@i+1,c
  3811  001E5E  0E00               	movlw	0
  3812  001E60  6E28               	movwf	SENO_GENERAR_3@i,c
  3813  001E62  5029               	movf	SENO_GENERAR_3@i+1,w,c
  3814  001E64  0A80               	xorlw	128
  3815  001E66  0F80               	addlw	-128
  3816  001E68  0E0F               	movlw	15
  3817  001E6A  B4D8               	btfsc	status,2,c
  3818  001E6C  5C28               	subwf	SENO_GENERAR_3@i,w,c
  3819  001E6E  B0D8               	btfsc	status,0,c
  3820  001E70  0012               	return	
  3821                           
  3822                           ;SENO.c: 73: for (j=0;j<valoresSeno[i];j++){
  3823  001E72  0E00               	movlw	0
  3824  001E74  6E27               	movwf	SENO_GENERAR_3@j+1,c
  3825  001E76  0E00               	movlw	0
  3826  001E78  6E26               	movwf	SENO_GENERAR_3@j,c
  3827  001E7A  D004               	goto	l3351
  3828  001E7C                     l348:
  3829                           
  3830                           ;SENO.c: 74: PORTCbits.RC2=1;
  3831  001E7C  8482               	bsf	3970,2,c	;volatile
  3832                           
  3833                           ;SENO.c: 75: PORTAbits.RA6=1;
  3834  001E7E  8C80               	bsf	3968,6,c	;volatile
  3835  001E80  4A26               	infsnz	SENO_GENERAR_3@j,f,c
  3836  001E82  2A27               	incf	SENO_GENERAR_3@j+1,f,c
  3837  001E84                     l3351:
  3838  001E84  0E06               	movlw	low SENO_GENERAR_3@valoresSeno
  3839  001E86  6E01               	movwf	??_SENO_GENERAR_3& (0+255),c
  3840  001E88  0E00               	movlw	high SENO_GENERAR_3@valoresSeno
  3841  001E8A  6E02               	movwf	(??_SENO_GENERAR_3+1)& (0+255),c
  3842  001E8C  90D8               	bcf	status,0,c
  3843  001E8E  3428               	rlcf	SENO_GENERAR_3@i,w,c
  3844  001E90  6ED9               	movwf	fsr2l,c
  3845  001E92  3429               	rlcf	SENO_GENERAR_3@i+1,w,c
  3846  001E94  6EDA               	movwf	fsr2h,c
  3847  001E96  5001               	movf	??_SENO_GENERAR_3,w,c
  3848  001E98  26D9               	addwf	fsr2l,f,c
  3849  001E9A  5002               	movf	??_SENO_GENERAR_3+1,w,c
  3850  001E9C  22DA               	addwfc	fsr2h,f,c
  3851  001E9E  CFDE F003          	movff	postinc2,??_SENO_GENERAR_3+2
  3852  001EA2  CFDD F004          	movff	postdec2,??_SENO_GENERAR_3+3
  3853  001EA6  5027               	movf	SENO_GENERAR_3@j+1,w,c
  3854  001EA8  0A80               	xorlw	128
  3855  001EAA  6E05               	movwf	(??_SENO_GENERAR_3+4)& (0+255),c
  3856  001EAC  5003               	movf	??_SENO_GENERAR_3+2,w,c
  3857  001EAE  5C26               	subwf	SENO_GENERAR_3@j,w,c
  3858  001EB0  5004               	movf	??_SENO_GENERAR_3+3,w,c
  3859  001EB2  0A80               	xorlw	128
  3860  001EB4  5805               	subwfb	(??_SENO_GENERAR_3+4)& (0+255),w,c
  3861  001EB6  A0D8               	btfss	status,0,c
  3862  001EB8  D7E1               	goto	l348
  3863                           
  3864                           ;SENO.c: 76: }
  3865                           ;SENO.c: 77: k=100-valoresSeno[i];
  3866  001EBA  0E06               	movlw	low SENO_GENERAR_3@valoresSeno
  3867  001EBC  6E01               	movwf	??_SENO_GENERAR_3& (0+255),c
  3868  001EBE  0E00               	movlw	high SENO_GENERAR_3@valoresSeno
  3869  001EC0  6E02               	movwf	(??_SENO_GENERAR_3+1)& (0+255),c
  3870  001EC2  90D8               	bcf	status,0,c
  3871  001EC4  3428               	rlcf	SENO_GENERAR_3@i,w,c
  3872  001EC6  6ED9               	movwf	fsr2l,c
  3873  001EC8  3429               	rlcf	SENO_GENERAR_3@i+1,w,c
  3874  001ECA  6EDA               	movwf	fsr2h,c
  3875  001ECC  5001               	movf	??_SENO_GENERAR_3,w,c
  3876  001ECE  26D9               	addwf	fsr2l,f,c
  3877  001ED0  5002               	movf	??_SENO_GENERAR_3+1,w,c
  3878  001ED2  22DA               	addwfc	fsr2h,f,c
  3879  001ED4  CFDE F003          	movff	postinc2,??_SENO_GENERAR_3+2
  3880  001ED8  CFDD F004          	movff	postdec2,??_SENO_GENERAR_3+3
  3881  001EDC  1E03               	comf	??_SENO_GENERAR_3+2,f,c
  3882  001EDE  1E04               	comf	??_SENO_GENERAR_3+3,f,c
  3883  001EE0  4A03               	infsnz	??_SENO_GENERAR_3+2,f,c
  3884  001EE2  2A04               	incf	??_SENO_GENERAR_3+3,f,c
  3885  001EE4  0E64               	movlw	100
  3886  001EE6  2403               	addwf	??_SENO_GENERAR_3+2,w,c
  3887  001EE8  6E24               	movwf	SENO_GENERAR_3@k,c
  3888  001EEA  0E00               	movlw	0
  3889  001EEC  2004               	addwfc	??_SENO_GENERAR_3+3,w,c
  3890  001EEE  6E25               	movwf	SENO_GENERAR_3@k+1,c
  3891                           
  3892                           ;SENO.c: 78: for (j=0;j<k;j++){
  3893  001EF0  0E00               	movlw	0
  3894  001EF2  6E27               	movwf	SENO_GENERAR_3@j+1,c
  3895  001EF4  0E00               	movlw	0
  3896  001EF6  6E26               	movwf	SENO_GENERAR_3@j,c
  3897  001EF8  D004               	goto	l3359
  3898  001EFA                     l351:
  3899                           
  3900                           ;SENO.c: 79: PORTCbits.RC2=0;
  3901  001EFA  9482               	bcf	3970,2,c	;volatile
  3902                           
  3903                           ;SENO.c: 80: PORTAbits.RA6=0;
  3904  001EFC  9C80               	bcf	3968,6,c	;volatile
  3905  001EFE  4A26               	infsnz	SENO_GENERAR_3@j,f,c
  3906  001F00  2A27               	incf	SENO_GENERAR_3@j+1,f,c
  3907  001F02                     l3359:
  3908  001F02  5027               	movf	SENO_GENERAR_3@j+1,w,c
  3909  001F04  0A80               	xorlw	128
  3910  001F06  6E01               	movwf	??_SENO_GENERAR_3& (0+255),c
  3911  001F08  5024               	movf	SENO_GENERAR_3@k,w,c
  3912  001F0A  5C26               	subwf	SENO_GENERAR_3@j,w,c
  3913  001F0C  5025               	movf	SENO_GENERAR_3@k+1,w,c
  3914  001F0E  0A80               	xorlw	128
  3915  001F10  5801               	subwfb	??_SENO_GENERAR_3& (0+255),w,c
  3916  001F12  A0D8               	btfss	status,0,c
  3917  001F14  D7F2               	goto	l351
  3918  001F16  4A28               	infsnz	SENO_GENERAR_3@i,f,c
  3919  001F18  2A29               	incf	SENO_GENERAR_3@i+1,f,c
  3920  001F1A  D7A3               	goto	L9
  3921  001F1C                     __end_of_SENO_GENERAR_3:
  3922                           	opt stack 0
  3923                           tblptru	equ	0xFF8
  3924                           tblptrh	equ	0xFF7
  3925                           tblptrl	equ	0xFF6
  3926                           tablat	equ	0xFF5
  3927                           prodh	equ	0xFF4
  3928                           prodl	equ	0xFF3
  3929                           intcon2	equ	0xFF1
  3930                           postinc0	equ	0xFEE
  3931                           wreg	equ	0xFE8
  3932                           postinc1	equ	0xFE6
  3933                           postdec1	equ	0xFE5
  3934                           fsr1l	equ	0xFE1
  3935                           indf2	equ	0xFDF
  3936                           postinc2	equ	0xFDE
  3937                           postdec2	equ	0xFDD
  3938                           fsr2h	equ	0xFDA
  3939                           fsr2l	equ	0xFD9
  3940                           status	equ	0xFD8
  3941                           
  3942 ;; *************** function _SENO_GENERAR_2 *****************
  3943 ;; Defined at:
  3944 ;;		line 34 in file "SENO.c"
  3945 ;; Parameters:    Size  Location     Type
  3946 ;;		None
  3947 ;; Auto vars:     Size  Location     Type
  3948 ;;  valoresSeno    36    5[COMRAM] int [18]
  3949 ;;  i               2   45[COMRAM] int 
  3950 ;;  j               2   43[COMRAM] int 
  3951 ;;  k               2   41[COMRAM] int 
  3952 ;; Return value:  Size  Location     Type
  3953 ;;		None               void
  3954 ;; Registers used:
  3955 ;;		wreg, fsr1l, fsr1h, fsr2l, fsr2h, status,2, status,0
  3956 ;; Tracked objects:
  3957 ;;		On entry : 0/0
  3958 ;;		On exit  : 0/0
  3959 ;;		Unchanged: 0/0
  3960 ;; Data sizes:     COMRAM   BANK0   BANK1   BANK2   BANK3   BANK4   BANK5   BANK6   BANK7
  3961 ;;      Params:         0       0       0       0       0       0       0       0       0
  3962 ;;      Locals:        42       0       0       0       0       0       0       0       0
  3963 ;;      Temps:          5       0       0       0       0       0       0       0       0
  3964 ;;      Totals:        47       0       0       0       0       0       0       0       0
  3965 ;;Total ram usage:       47 bytes
  3966 ;; Hardware stack levels used:    1
  3967 ;; This function calls:
  3968 ;;		Nothing
  3969 ;; This function is called by:
  3970 ;;		_main
  3971 ;; This function uses a non-reentrant model
  3972 ;;
  3973                           
  3974                           	psect	text10
  3975  001F1C                     __ptext10:
  3976                           	opt stack 0
  3977  001F1C                     _SENO_GENERAR_2:
  3978                           	opt stack 30
  3979                           
  3980                           ;SENO.c: 36: OSCCON=0b01010111;
  3981                           
  3982                           ;incstack = 0
  3983  001F1C  0E57               	movlw	87
  3984  001F1E  6ED3               	movwf	4051,c	;volatile
  3985                           
  3986                           ;SENO.c: 37: TRISAbits.RA6=0;
  3987  001F20  9C92               	bcf	3986,6,c	;volatile
  3988                           
  3989                           ;SENO.c: 38: TRISCbits.RC2=0;
  3990  001F22  9494               	bcf	3988,2,c	;volatile
  3991                           
  3992                           ;SENO.c: 39: int valoresSeno [18]= {50,67,82,93,99,99,93,82,67,50,33,18,7,1,1,7,18,33};
  3993  001F24  EE20  F088         	lfsr	2,SENO_GENERAR_2@F7359
  3994  001F28  EE10  F006         	lfsr	1,SENO_GENERAR_2@valoresSeno
  3995  001F2C  0E24               	movlw	36
  3996  001F2E                     u2721:
  3997  001F2E  CFDE FFE6          	movff	postinc2,postinc1
  3998  001F32  2EE8               	decfsz	wreg,f,c
  3999  001F34  D7FC               	goto	u2721
  4000                           
  4001                           ;SENO.c: 40: int i, j,k;
  4002                           ;SENO.c: 41: for (i=0;i<18;i++){
  4003  001F36  0E00               	movlw	0
  4004  001F38  6E2F               	movwf	SENO_GENERAR_2@i+1,c
  4005  001F3A  0E00               	movlw	0
  4006  001F3C  6E2E               	movwf	SENO_GENERAR_2@i,c
  4007  001F3E  502F               	movf	SENO_GENERAR_2@i+1,w,c
  4008  001F40  0A80               	xorlw	128
  4009  001F42  0F80               	addlw	-128
  4010  001F44  0E12               	movlw	18
  4011  001F46  B4D8               	btfsc	status,2,c
  4012  001F48  5C2E               	subwf	SENO_GENERAR_2@i,w,c
  4013  001F4A  B0D8               	btfsc	status,0,c
  4014  001F4C  D003               	goto	l3299
  4015  001F4E  4A2E               	infsnz	SENO_GENERAR_2@i,f,c
  4016  001F50  2A2F               	incf	SENO_GENERAR_2@i+1,f,c
  4017  001F52  D7F5               	goto	L10
  4018  001F54                     l3299:
  4019                           
  4020                           ;SENO.c: 45: for (i=0;i<18;i++){
  4021  001F54  0E00               	movlw	0
  4022  001F56  6E2F               	movwf	SENO_GENERAR_2@i+1,c
  4023  001F58  0E00               	movlw	0
  4024  001F5A  6E2E               	movwf	SENO_GENERAR_2@i,c
  4025  001F5C  502F               	movf	SENO_GENERAR_2@i+1,w,c
  4026  001F5E  0A80               	xorlw	128
  4027  001F60  0F80               	addlw	-128
  4028  001F62  0E12               	movlw	18
  4029  001F64  B4D8               	btfsc	status,2,c
  4030  001F66  5C2E               	subwf	SENO_GENERAR_2@i,w,c
  4031  001F68  B0D8               	btfsc	status,0,c
  4032  001F6A  0012               	return	
  4033                           
  4034                           ;SENO.c: 46: for (j=0;j<valoresSeno[i];j++){
  4035  001F6C  0E00               	movlw	0
  4036  001F6E  6E2D               	movwf	SENO_GENERAR_2@j+1,c
  4037  001F70  0E00               	movlw	0
  4038  001F72  6E2C               	movwf	SENO_GENERAR_2@j,c
  4039  001F74  D004               	goto	l3309
  4040  001F76                     l330:
  4041                           
  4042                           ;SENO.c: 47: PORTCbits.RC2=1;
  4043  001F76  8482               	bsf	3970,2,c	;volatile
  4044                           
  4045                           ;SENO.c: 48: PORTAbits.RA6=1;
  4046  001F78  8C80               	bsf	3968,6,c	;volatile
  4047  001F7A  4A2C               	infsnz	SENO_GENERAR_2@j,f,c
  4048  001F7C  2A2D               	incf	SENO_GENERAR_2@j+1,f,c
  4049  001F7E                     l3309:
  4050  001F7E  0E06               	movlw	low SENO_GENERAR_2@valoresSeno
  4051  001F80  6E01               	movwf	??_SENO_GENERAR_2& (0+255),c
  4052  001F82  0E00               	movlw	high SENO_GENERAR_2@valoresSeno
  4053  001F84  6E02               	movwf	(??_SENO_GENERAR_2+1)& (0+255),c
  4054  001F86  90D8               	bcf	status,0,c
  4055  001F88  342E               	rlcf	SENO_GENERAR_2@i,w,c
  4056  001F8A  6ED9               	movwf	fsr2l,c
  4057  001F8C  342F               	rlcf	SENO_GENERAR_2@i+1,w,c
  4058  001F8E  6EDA               	movwf	fsr2h,c
  4059  001F90  5001               	movf	??_SENO_GENERAR_2,w,c
  4060  001F92  26D9               	addwf	fsr2l,f,c
  4061  001F94  5002               	movf	??_SENO_GENERAR_2+1,w,c
  4062  001F96  22DA               	addwfc	fsr2h,f,c
  4063  001F98  CFDE F003          	movff	postinc2,??_SENO_GENERAR_2+2
  4064  001F9C  CFDD F004          	movff	postdec2,??_SENO_GENERAR_2+3
  4065  001FA0  502D               	movf	SENO_GENERAR_2@j+1,w,c
  4066  001FA2  0A80               	xorlw	128
  4067  001FA4  6E05               	movwf	(??_SENO_GENERAR_2+4)& (0+255),c
  4068  001FA6  5003               	movf	??_SENO_GENERAR_2+2,w,c
  4069  001FA8  5C2C               	subwf	SENO_GENERAR_2@j,w,c
  4070  001FAA  5004               	movf	??_SENO_GENERAR_2+3,w,c
  4071  001FAC  0A80               	xorlw	128
  4072  001FAE  5805               	subwfb	(??_SENO_GENERAR_2+4)& (0+255),w,c
  4073  001FB0  A0D8               	btfss	status,0,c
  4074  001FB2  D7E1               	goto	l330
  4075                           
  4076                           ;SENO.c: 49: }
  4077                           ;SENO.c: 50: k=100-valoresSeno[i];
  4078  001FB4  0E06               	movlw	low SENO_GENERAR_2@valoresSeno
  4079  001FB6  6E01               	movwf	??_SENO_GENERAR_2& (0+255),c
  4080  001FB8  0E00               	movlw	high SENO_GENERAR_2@valoresSeno
  4081  001FBA  6E02               	movwf	(??_SENO_GENERAR_2+1)& (0+255),c
  4082  001FBC  90D8               	bcf	status,0,c
  4083  001FBE  342E               	rlcf	SENO_GENERAR_2@i,w,c
  4084  001FC0  6ED9               	movwf	fsr2l,c
  4085  001FC2  342F               	rlcf	SENO_GENERAR_2@i+1,w,c
  4086  001FC4  6EDA               	movwf	fsr2h,c
  4087  001FC6  5001               	movf	??_SENO_GENERAR_2,w,c
  4088  001FC8  26D9               	addwf	fsr2l,f,c
  4089  001FCA  5002               	movf	??_SENO_GENERAR_2+1,w,c
  4090  001FCC  22DA               	addwfc	fsr2h,f,c
  4091  001FCE  CFDE F003          	movff	postinc2,??_SENO_GENERAR_2+2
  4092  001FD2  CFDD F004          	movff	postdec2,??_SENO_GENERAR_2+3
  4093  001FD6  1E03               	comf	??_SENO_GENERAR_2+2,f,c
  4094  001FD8  1E04               	comf	??_SENO_GENERAR_2+3,f,c
  4095  001FDA  4A03               	infsnz	??_SENO_GENERAR_2+2,f,c
  4096  001FDC  2A04               	incf	??_SENO_GENERAR_2+3,f,c
  4097  001FDE  0E64               	movlw	100
  4098  001FE0  2403               	addwf	??_SENO_GENERAR_2+2,w,c
  4099  001FE2  6E2A               	movwf	SENO_GENERAR_2@k,c
  4100  001FE4  0E00               	movlw	0
  4101  001FE6  2004               	addwfc	??_SENO_GENERAR_2+3,w,c
  4102  001FE8  6E2B               	movwf	SENO_GENERAR_2@k+1,c
  4103                           
  4104                           ;SENO.c: 51: for (j=0;j<k;j++){
  4105  001FEA  0E00               	movlw	0
  4106  001FEC  6E2D               	movwf	SENO_GENERAR_2@j+1,c
  4107  001FEE  0E00               	movlw	0
  4108  001FF0  6E2C               	movwf	SENO_GENERAR_2@j,c
  4109  001FF2  D004               	goto	l3317
  4110  001FF4                     l333:
  4111                           
  4112                           ;SENO.c: 52: PORTCbits.RC2=0;
  4113  001FF4  9482               	bcf	3970,2,c	;volatile
  4114                           
  4115                           ;SENO.c: 53: PORTAbits.RA6=0;
  4116  001FF6  9C80               	bcf	3968,6,c	;volatile
  4117  001FF8  4A2C               	infsnz	SENO_GENERAR_2@j,f,c
  4118  001FFA  2A2D               	incf	SENO_GENERAR_2@j+1,f,c
  4119  001FFC                     l3317:
  4120  001FFC  502D               	movf	SENO_GENERAR_2@j+1,w,c
  4121  001FFE  0A80               	xorlw	128
  4122  002000  6E01               	movwf	??_SENO_GENERAR_2& (0+255),c
  4123  002002  502A               	movf	SENO_GENERAR_2@k,w,c
  4124  002004  5C2C               	subwf	SENO_GENERAR_2@j,w,c
  4125  002006  502B               	movf	SENO_GENERAR_2@k+1,w,c
  4126  002008  0A80               	xorlw	128
  4127  00200A  5801               	subwfb	??_SENO_GENERAR_2& (0+255),w,c
  4128  00200C  A0D8               	btfss	status,0,c
  4129  00200E  D7F2               	goto	l333
  4130  002010  4A2E               	infsnz	SENO_GENERAR_2@i,f,c
  4131  002012  2A2F               	incf	SENO_GENERAR_2@i+1,f,c
  4132  002014  D7A3               	goto	L11
  4133  002016                     __end_of_SENO_GENERAR_2:
  4134                           	opt stack 0
  4135                           tblptru	equ	0xFF8
  4136                           tblptrh	equ	0xFF7
  4137                           tblptrl	equ	0xFF6
  4138                           tablat	equ	0xFF5
  4139                           prodh	equ	0xFF4
  4140                           prodl	equ	0xFF3
  4141                           intcon2	equ	0xFF1
  4142                           postinc0	equ	0xFEE
  4143                           wreg	equ	0xFE8
  4144                           postinc1	equ	0xFE6
  4145                           postdec1	equ	0xFE5
  4146                           fsr1l	equ	0xFE1
  4147                           indf2	equ	0xFDF
  4148                           postinc2	equ	0xFDE
  4149                           postdec2	equ	0xFDD
  4150                           fsr2h	equ	0xFDA
  4151                           fsr2l	equ	0xFD9
  4152                           status	equ	0xFD8
  4153                           
  4154 ;; *************** function _SENO_GENERAR_1 *****************
  4155 ;; Defined at:
  4156 ;;		line 8 in file "SENO.c"
  4157 ;; Parameters:    Size  Location     Type
  4158 ;;		None
  4159 ;; Auto vars:     Size  Location     Type
  4160 ;;  valoresSeno    40    5[COMRAM] int [20]
  4161 ;;  i               2   49[COMRAM] int 
  4162 ;;  j               2   47[COMRAM] int 
  4163 ;;  k               2   45[COMRAM] int 
  4164 ;; Return value:  Size  Location     Type
  4165 ;;		None               void
  4166 ;; Registers used:
  4167 ;;		wreg, fsr1l, fsr1h, fsr2l, fsr2h, status,2, status,0
  4168 ;; Tracked objects:
  4169 ;;		On entry : 0/0
  4170 ;;		On exit  : 0/0
  4171 ;;		Unchanged: 0/0
  4172 ;; Data sizes:     COMRAM   BANK0   BANK1   BANK2   BANK3   BANK4   BANK5   BANK6   BANK7
  4173 ;;      Params:         0       0       0       0       0       0       0       0       0
  4174 ;;      Locals:        46       0       0       0       0       0       0       0       0
  4175 ;;      Temps:          5       0       0       0       0       0       0       0       0
  4176 ;;      Totals:        51       0       0       0       0       0       0       0       0
  4177 ;;Total ram usage:       51 bytes
  4178 ;; Hardware stack levels used:    1
  4179 ;; This function calls:
  4180 ;;		Nothing
  4181 ;; This function is called by:
  4182 ;;		_main
  4183 ;; This function uses a non-reentrant model
  4184 ;;
  4185                           
  4186                           	psect	text11
  4187  002016                     __ptext11:
  4188                           	opt stack 0
  4189  002016                     _SENO_GENERAR_1:
  4190                           	opt stack 30
  4191                           
  4192                           ;SENO.c: 10: OSCCON=0b01010111;
  4193                           
  4194                           ;incstack = 0
  4195  002016  0E57               	movlw	87
  4196  002018  6ED3               	movwf	4051,c	;volatile
  4197                           
  4198                           ;SENO.c: 11: TRISAbits.RA6=0;
  4199  00201A  9C92               	bcf	3986,6,c	;volatile
  4200                           
  4201                           ;SENO.c: 12: TRISCbits.RC2=0;
  4202  00201C  9494               	bcf	3988,2,c	;volatile
  4203                           
  4204                           ;SENO.c: 13: int valoresSeno [20]= {50,35,21,10, 2, 0, 2,10, 21, 35, 50, 65, 79, 90, 98,
      +                           100, 98, 90, 79, 65};
  4205  00201E  EE20  F060         	lfsr	2,SENO_GENERAR_1@F7354
  4206  002022  EE10  F006         	lfsr	1,SENO_GENERAR_1@valoresSeno
  4207  002026  0E28               	movlw	40
  4208  002028                     u2651:
  4209  002028  CFDE FFE6          	movff	postinc2,postinc1
  4210  00202C  2EE8               	decfsz	wreg,f,c
  4211  00202E  D7FC               	goto	u2651
  4212                           
  4213                           ;SENO.c: 14: int i, j,k;
  4214                           ;SENO.c: 15: for (i=0;i<20;i++){
  4215  002030  0E00               	movlw	0
  4216  002032  6E33               	movwf	SENO_GENERAR_1@i+1,c
  4217  002034  0E00               	movlw	0
  4218  002036  6E32               	movwf	SENO_GENERAR_1@i,c
  4219  002038  5033               	movf	SENO_GENERAR_1@i+1,w,c
  4220  00203A  0A80               	xorlw	128
  4221  00203C  0F80               	addlw	-128
  4222  00203E  0E14               	movlw	20
  4223  002040  B4D8               	btfsc	status,2,c
  4224  002042  5C32               	subwf	SENO_GENERAR_1@i,w,c
  4225  002044  B0D8               	btfsc	status,0,c
  4226  002046  D003               	goto	l3257
  4227  002048  4A32               	infsnz	SENO_GENERAR_1@i,f,c
  4228  00204A  2A33               	incf	SENO_GENERAR_1@i+1,f,c
  4229  00204C  D7F5               	goto	L12
  4230  00204E                     l3257:
  4231                           
  4232                           ;SENO.c: 19: for (i=0;i<20;i++){
  4233  00204E  0E00               	movlw	0
  4234  002050  6E33               	movwf	SENO_GENERAR_1@i+1,c
  4235  002052  0E00               	movlw	0
  4236  002054  6E32               	movwf	SENO_GENERAR_1@i,c
  4237  002056  5033               	movf	SENO_GENERAR_1@i+1,w,c
  4238  002058  0A80               	xorlw	128
  4239  00205A  0F80               	addlw	-128
  4240  00205C  0E14               	movlw	20
  4241  00205E  B4D8               	btfsc	status,2,c
  4242  002060  5C32               	subwf	SENO_GENERAR_1@i,w,c
  4243  002062  B0D8               	btfsc	status,0,c
  4244  002064  0012               	return	
  4245                           
  4246                           ;SENO.c: 20: for (j=0;j<valoresSeno[i];j++){
  4247  002066  0E00               	movlw	0
  4248  002068  6E31               	movwf	SENO_GENERAR_1@j+1,c
  4249  00206A  0E00               	movlw	0
  4250  00206C  6E30               	movwf	SENO_GENERAR_1@j,c
  4251  00206E  D004               	goto	l3267
  4252  002070                     l312:
  4253                           
  4254                           ;SENO.c: 21: PORTCbits.RC2=1;
  4255  002070  8482               	bsf	3970,2,c	;volatile
  4256                           
  4257                           ;SENO.c: 22: PORTAbits.RA6=1;
  4258  002072  8C80               	bsf	3968,6,c	;volatile
  4259  002074  4A30               	infsnz	SENO_GENERAR_1@j,f,c
  4260  002076  2A31               	incf	SENO_GENERAR_1@j+1,f,c
  4261  002078                     l3267:
  4262  002078  0E06               	movlw	low SENO_GENERAR_1@valoresSeno
  4263  00207A  6E01               	movwf	??_SENO_GENERAR_1& (0+255),c
  4264  00207C  0E00               	movlw	high SENO_GENERAR_1@valoresSeno
  4265  00207E  6E02               	movwf	(??_SENO_GENERAR_1+1)& (0+255),c
  4266  002080  90D8               	bcf	status,0,c
  4267  002082  3432               	rlcf	SENO_GENERAR_1@i,w,c
  4268  002084  6ED9               	movwf	fsr2l,c
  4269  002086  3433               	rlcf	SENO_GENERAR_1@i+1,w,c
  4270  002088  6EDA               	movwf	fsr2h,c
  4271  00208A  5001               	movf	??_SENO_GENERAR_1,w,c
  4272  00208C  26D9               	addwf	fsr2l,f,c
  4273  00208E  5002               	movf	??_SENO_GENERAR_1+1,w,c
  4274  002090  22DA               	addwfc	fsr2h,f,c
  4275  002092  CFDE F003          	movff	postinc2,??_SENO_GENERAR_1+2
  4276  002096  CFDD F004          	movff	postdec2,??_SENO_GENERAR_1+3
  4277  00209A  5031               	movf	SENO_GENERAR_1@j+1,w,c
  4278  00209C  0A80               	xorlw	128
  4279  00209E  6E05               	movwf	(??_SENO_GENERAR_1+4)& (0+255),c
  4280  0020A0  5003               	movf	??_SENO_GENERAR_1+2,w,c
  4281  0020A2  5C30               	subwf	SENO_GENERAR_1@j,w,c
  4282  0020A4  5004               	movf	??_SENO_GENERAR_1+3,w,c
  4283  0020A6  0A80               	xorlw	128
  4284  0020A8  5805               	subwfb	(??_SENO_GENERAR_1+4)& (0+255),w,c
  4285  0020AA  A0D8               	btfss	status,0,c
  4286  0020AC  D7E1               	goto	l312
  4287                           
  4288                           ;SENO.c: 23: }
  4289                           ;SENO.c: 24: k=100-valoresSeno[i];
  4290  0020AE  0E06               	movlw	low SENO_GENERAR_1@valoresSeno
  4291  0020B0  6E01               	movwf	??_SENO_GENERAR_1& (0+255),c
  4292  0020B2  0E00               	movlw	high SENO_GENERAR_1@valoresSeno
  4293  0020B4  6E02               	movwf	(??_SENO_GENERAR_1+1)& (0+255),c
  4294  0020B6  90D8               	bcf	status,0,c
  4295  0020B8  3432               	rlcf	SENO_GENERAR_1@i,w,c
  4296  0020BA  6ED9               	movwf	fsr2l,c
  4297  0020BC  3433               	rlcf	SENO_GENERAR_1@i+1,w,c
  4298  0020BE  6EDA               	movwf	fsr2h,c
  4299  0020C0  5001               	movf	??_SENO_GENERAR_1,w,c
  4300  0020C2  26D9               	addwf	fsr2l,f,c
  4301  0020C4  5002               	movf	??_SENO_GENERAR_1+1,w,c
  4302  0020C6  22DA               	addwfc	fsr2h,f,c
  4303  0020C8  CFDE F003          	movff	postinc2,??_SENO_GENERAR_1+2
  4304  0020CC  CFDD F004          	movff	postdec2,??_SENO_GENERAR_1+3
  4305  0020D0  1E03               	comf	??_SENO_GENERAR_1+2,f,c
  4306  0020D2  1E04               	comf	??_SENO_GENERAR_1+3,f,c
  4307  0020D4  4A03               	infsnz	??_SENO_GENERAR_1+2,f,c
  4308  0020D6  2A04               	incf	??_SENO_GENERAR_1+3,f,c
  4309  0020D8  0E64               	movlw	100
  4310  0020DA  2403               	addwf	??_SENO_GENERAR_1+2,w,c
  4311  0020DC  6E2E               	movwf	SENO_GENERAR_1@k,c
  4312  0020DE  0E00               	movlw	0
  4313  0020E0  2004               	addwfc	??_SENO_GENERAR_1+3,w,c
  4314  0020E2  6E2F               	movwf	SENO_GENERAR_1@k+1,c
  4315                           
  4316                           ;SENO.c: 25: for (j=0;j<k;j++){
  4317  0020E4  0E00               	movlw	0
  4318  0020E6  6E31               	movwf	SENO_GENERAR_1@j+1,c
  4319  0020E8  0E00               	movlw	0
  4320  0020EA  6E30               	movwf	SENO_GENERAR_1@j,c
  4321  0020EC  D004               	goto	l3275
  4322  0020EE                     l315:
  4323                           
  4324                           ;SENO.c: 26: PORTCbits.RC2=0;
  4325  0020EE  9482               	bcf	3970,2,c	;volatile
  4326                           
  4327                           ;SENO.c: 27: PORTAbits.RA6=0;
  4328  0020F0  9C80               	bcf	3968,6,c	;volatile
  4329  0020F2  4A30               	infsnz	SENO_GENERAR_1@j,f,c
  4330  0020F4  2A31               	incf	SENO_GENERAR_1@j+1,f,c
  4331  0020F6                     l3275:
  4332  0020F6  5031               	movf	SENO_GENERAR_1@j+1,w,c
  4333  0020F8  0A80               	xorlw	128
  4334  0020FA  6E01               	movwf	??_SENO_GENERAR_1& (0+255),c
  4335  0020FC  502E               	movf	SENO_GENERAR_1@k,w,c
  4336  0020FE  5C30               	subwf	SENO_GENERAR_1@j,w,c
  4337  002100  502F               	movf	SENO_GENERAR_1@k+1,w,c
  4338  002102  0A80               	xorlw	128
  4339  002104  5801               	subwfb	??_SENO_GENERAR_1& (0+255),w,c
  4340  002106  A0D8               	btfss	status,0,c
  4341  002108  D7F2               	goto	l315
  4342  00210A  4A32               	infsnz	SENO_GENERAR_1@i,f,c
  4343  00210C  2A33               	incf	SENO_GENERAR_1@i+1,f,c
  4344  00210E  D7A3               	goto	L13
  4345  002110                     __end_of_SENO_GENERAR_1:
  4346                           	opt stack 0
  4347                           tblptru	equ	0xFF8
  4348                           tblptrh	equ	0xFF7
  4349                           tblptrl	equ	0xFF6
  4350                           tablat	equ	0xFF5
  4351                           prodh	equ	0xFF4
  4352                           prodl	equ	0xFF3
  4353                           intcon2	equ	0xFF1
  4354                           postinc0	equ	0xFEE
  4355                           wreg	equ	0xFE8
  4356                           postinc1	equ	0xFE6
  4357                           postdec1	equ	0xFE5
  4358                           fsr1l	equ	0xFE1
  4359                           indf2	equ	0xFDF
  4360                           postinc2	equ	0xFDE
  4361                           postdec2	equ	0xFDD
  4362                           fsr2h	equ	0xFDA
  4363                           fsr2l	equ	0xFD9
  4364                           status	equ	0xFD8
  4365                           
  4366 ;; *************** function _PWM_generar *****************
  4367 ;; Defined at:
  4368 ;;		line 10 in file "PWM.c"
  4369 ;; Parameters:    Size  Location     Type
  4370 ;;  duty            2   13[COMRAM] unsigned int 
  4371 ;;  fpwm            2   15[COMRAM] unsigned int 
  4372 ;; Auto vars:     Size  Location     Type
  4373 ;;  AuxCCPR2L       4   29[COMRAM] unsigned long 
  4374 ;;  PR2cal          4   25[COMRAM] unsigned long 
  4375 ;;  AuxCCP2CON      2   23[COMRAM] unsigned int 
  4376 ;;  prescalador     2   21[COMRAM] unsigned int 
  4377 ;; Return value:  Size  Location     Type
  4378 ;;		None               void
  4379 ;; Registers used:
  4380 ;;		wreg, status,2, status,0, cstack
  4381 ;; Tracked objects:
  4382 ;;		On entry : 0/0
  4383 ;;		On exit  : 0/0
  4384 ;;		Unchanged: 0/0
  4385 ;; Data sizes:     COMRAM   BANK0   BANK1   BANK2   BANK3   BANK4   BANK5   BANK6   BANK7
  4386 ;;      Params:         4       0       0       0       0       0       0       0       0
  4387 ;;      Locals:        12       0       0       0       0       0       0       0       0
  4388 ;;      Temps:          4       0       0       0       0       0       0       0       0
  4389 ;;      Totals:        20       0       0       0       0       0       0       0       0
  4390 ;;Total ram usage:       20 bytes
  4391 ;; Hardware stack levels used:    1
  4392 ;; Hardware stack levels required when called:    1
  4393 ;; This function calls:
  4394 ;;		___lldiv
  4395 ;;		___lmul
  4396 ;; This function is called by:
  4397 ;;		_main
  4398 ;;		_Prueba2
  4399 ;; This function uses a non-reentrant model
  4400 ;;
  4401                           
  4402                           	psect	text12
  4403  0010EC                     __ptext12:
  4404                           	opt stack 0
  4405  0010EC                     _PWM_generar:
  4406                           	opt stack 29
  4407                           
  4408                           ;PWM.c: 17: TRISCbits.RC1=0;
  4409                           
  4410                           ;incstack = 0
  4411  0010EC  9294               	bcf	3988,1,c	;volatile
  4412                           
  4413                           ;PWM.c: 18: ANSELC=0;
  4414  0010EE  0E00               	movlw	0
  4415  0010F0  010F               	movlb	15	; () banked
  4416  0010F2  6F5D               	movwf	93,b	;volatile
  4417                           
  4418                           ;PWM.c: 19: unsigned int prescalador=1;
  4419  0010F4  0E00               	movlw	0
  4420  0010F6  6E17               	movwf	PWM_generar@prescalador+1,c
  4421  0010F8  0E01               	movlw	1
  4422  0010FA  6E16               	movwf	PWM_generar@prescalador,c
  4423                           
  4424                           ;PWM.c: 20: unsigned long PR2cal=4000000;
  4425  0010FC  0E00               	movlw	0
  4426  0010FE  6E1A               	movwf	PWM_generar@PR2cal,c
  4427  001100  0E09               	movlw	9
  4428  001102  6E1B               	movwf	PWM_generar@PR2cal+1,c
  4429  001104  0E3D               	movlw	61
  4430  001106  6E1C               	movwf	PWM_generar@PR2cal+2,c
  4431  001108  0E00               	movlw	0
  4432  00110A  6E1D               	movwf	PWM_generar@PR2cal+3,c
  4433                           
  4434                           ; BSR set to: 15
  4435                           ;PWM.c: 21: PR2cal=PR2cal/fpwm;
  4436  00110C  C01A  F001         	movff	PWM_generar@PR2cal,___lldiv@dividend
  4437  001110  C01B  F002         	movff	PWM_generar@PR2cal+1,___lldiv@dividend+1
  4438  001114  C01C  F003         	movff	PWM_generar@PR2cal+2,___lldiv@dividend+2
  4439  001118  C01D  F004         	movff	PWM_generar@PR2cal+3,___lldiv@dividend+3
  4440  00111C  C010  F005         	movff	PWM_generar@fpwm,___lldiv@divisor
  4441  001120  C011  F006         	movff	PWM_generar@fpwm+1,___lldiv@divisor+1
  4442  001124  6A07               	clrf	___lldiv@divisor+2,c
  4443  001126  6A08               	clrf	___lldiv@divisor+3,c
  4444  001128  EC89  F012         	call	___lldiv	;wreg free
  4445  00112C  C001  F01A         	movff	?___lldiv,PWM_generar@PR2cal
  4446  001130  C002  F01B         	movff	?___lldiv+1,PWM_generar@PR2cal+1
  4447  001134  C003  F01C         	movff	?___lldiv+2,PWM_generar@PR2cal+2
  4448  001138  C004  F01D         	movff	?___lldiv+3,PWM_generar@PR2cal+3
  4449                           
  4450                           ;PWM.c: 22: PR2cal=PR2cal/4;
  4451  00113C  C01A  F012         	movff	PWM_generar@PR2cal,??_PWM_generar
  4452  001140  C01B  F013         	movff	PWM_generar@PR2cal+1,??_PWM_generar+1
  4453  001144  C01C  F014         	movff	PWM_generar@PR2cal+2,??_PWM_generar+2
  4454  001148  C01D  F015         	movff	PWM_generar@PR2cal+3,??_PWM_generar+3
  4455  00114C  0E03               	movlw	3
  4456  00114E  D005               	goto	u2390
  4457  001150                     u2395:
  4458  001150  90D8               	bcf	status,0,c
  4459  001152  3215               	rrcf	??_PWM_generar+3,f,c
  4460  001154  3214               	rrcf	??_PWM_generar+2,f,c
  4461  001156  3213               	rrcf	??_PWM_generar+1,f,c
  4462  001158  3212               	rrcf	??_PWM_generar,f,c
  4463  00115A                     u2390:
  4464  00115A  2EE8               	decfsz	wreg,f,c
  4465  00115C  D7F9               	goto	u2395
  4466  00115E  C012  F01A         	movff	??_PWM_generar,PWM_generar@PR2cal
  4467  001162  C013  F01B         	movff	??_PWM_generar+1,PWM_generar@PR2cal+1
  4468  001166  C014  F01C         	movff	??_PWM_generar+2,PWM_generar@PR2cal+2
  4469  00116A  C015  F01D         	movff	??_PWM_generar+3,PWM_generar@PR2cal+3
  4470                           
  4471                           ;PWM.c: 23: T2CON=0b00000000;
  4472  00116E  0E00               	movlw	0
  4473  001170  6EBA               	movwf	4026,c	;volatile
  4474                           
  4475                           ;PWM.c: 24: while(PR2cal>256){
  4476  001172  D028               	goto	l3075
  4477  001174                     l3071:
  4478                           
  4479                           ;PWM.c: 25: prescalador=prescalador*4;
  4480  001174  C016  F012         	movff	PWM_generar@prescalador,??_PWM_generar
  4481  001178  C017  F013         	movff	PWM_generar@prescalador+1,??_PWM_generar+1
  4482  00117C  90D8               	bcf	status,0,c
  4483  00117E  3612               	rlcf	??_PWM_generar,f,c
  4484  001180  3613               	rlcf	??_PWM_generar+1,f,c
  4485  001182  90D8               	bcf	status,0,c
  4486  001184  3612               	rlcf	??_PWM_generar,f,c
  4487  001186  3613               	rlcf	??_PWM_generar+1,f,c
  4488  001188  C012  F016         	movff	??_PWM_generar,PWM_generar@prescalador
  4489  00118C  C013  F017         	movff	??_PWM_generar+1,PWM_generar@prescalador+1
  4490                           
  4491                           ;PWM.c: 26: T2CON++;
  4492  001190  2ABA               	incf	4026,f,c	;volatile
  4493                           
  4494                           ;PWM.c: 27: PR2cal=PR2cal/4;
  4495  001192  C01A  F012         	movff	PWM_generar@PR2cal,??_PWM_generar
  4496  001196  C01B  F013         	movff	PWM_generar@PR2cal+1,??_PWM_generar+1
  4497  00119A  C01C  F014         	movff	PWM_generar@PR2cal+2,??_PWM_generar+2
  4498  00119E  C01D  F015         	movff	PWM_generar@PR2cal+3,??_PWM_generar+3
  4499  0011A2  0E03               	movlw	3
  4500  0011A4  D005               	goto	u2400
  4501  0011A6                     u2405:
  4502  0011A6  90D8               	bcf	status,0,c
  4503  0011A8  3215               	rrcf	??_PWM_generar+3,f,c
  4504  0011AA  3214               	rrcf	??_PWM_generar+2,f,c
  4505  0011AC  3213               	rrcf	??_PWM_generar+1,f,c
  4506  0011AE  3212               	rrcf	??_PWM_generar,f,c
  4507  0011B0                     u2400:
  4508  0011B0  2EE8               	decfsz	wreg,f,c
  4509  0011B2  D7F9               	goto	u2405
  4510  0011B4  C012  F01A         	movff	??_PWM_generar,PWM_generar@PR2cal
  4511  0011B8  C013  F01B         	movff	??_PWM_generar+1,PWM_generar@PR2cal+1
  4512  0011BC  C014  F01C         	movff	??_PWM_generar+2,PWM_generar@PR2cal+2
  4513  0011C0  C015  F01D         	movff	??_PWM_generar+3,PWM_generar@PR2cal+3
  4514  0011C4                     l3075:
  4515  0011C4  0E01               	movlw	1
  4516  0011C6  6E12               	movwf	??_PWM_generar& (0+255),c
  4517  0011C8  0E01               	movlw	1
  4518  0011CA  6E13               	movwf	(??_PWM_generar+1)& (0+255),c
  4519  0011CC  0E00               	movlw	0
  4520  0011CE  6E14               	movwf	(??_PWM_generar+2)& (0+255),c
  4521  0011D0  0E00               	movlw	0
  4522  0011D2  6E15               	movwf	(??_PWM_generar+3)& (0+255),c
  4523  0011D4  5012               	movf	??_PWM_generar,w,c
  4524  0011D6  5C1A               	subwf	PWM_generar@PR2cal,w,c
  4525  0011D8  5013               	movf	??_PWM_generar+1,w,c
  4526  0011DA  581B               	subwfb	PWM_generar@PR2cal+1,w,c
  4527  0011DC  5014               	movf	??_PWM_generar+2,w,c
  4528  0011DE  581C               	subwfb	PWM_generar@PR2cal+2,w,c
  4529  0011E0  5015               	movf	??_PWM_generar+3,w,c
  4530  0011E2  581D               	subwfb	PWM_generar@PR2cal+3,w,c
  4531  0011E4  B0D8               	btfsc	status,0,c
  4532  0011E6  D7C6               	goto	l3071
  4533                           
  4534                           ;PWM.c: 28: }
  4535                           ;PWM.c: 29: PR2cal--;
  4536  0011E8  061A               	decf	PWM_generar@PR2cal,f,c
  4537  0011EA  0E00               	movlw	0
  4538  0011EC  5A1B               	subwfb	PWM_generar@PR2cal+1,f,c
  4539  0011EE  5A1C               	subwfb	PWM_generar@PR2cal+2,f,c
  4540  0011F0  5A1D               	subwfb	PWM_generar@PR2cal+3,f,c
  4541                           
  4542                           ;PWM.c: 30: PR2=PR2cal;
  4543  0011F2  C01A  FFBB         	movff	PWM_generar@PR2cal,4027	;volatile
  4544                           
  4545                           ;PWM.c: 37: unsigned long AuxCCPR2L=PR2cal;
  4546  0011F6  C01A  F01E         	movff	PWM_generar@PR2cal,PWM_generar@AuxCCPR2L
  4547  0011FA  C01B  F01F         	movff	PWM_generar@PR2cal+1,PWM_generar@AuxCCPR2L+1
  4548  0011FE  C01C  F020         	movff	PWM_generar@PR2cal+2,PWM_generar@AuxCCPR2L+2
  4549  001202  C01D  F021         	movff	PWM_generar@PR2cal+3,PWM_generar@AuxCCPR2L+3
  4550                           
  4551                           ;PWM.c: 38: AuxCCPR2L++;
  4552  001206  0E01               	movlw	1
  4553  001208  261E               	addwf	PWM_generar@AuxCCPR2L,f,c
  4554  00120A  0E00               	movlw	0
  4555  00120C  221F               	addwfc	PWM_generar@AuxCCPR2L+1,f,c
  4556  00120E  2220               	addwfc	PWM_generar@AuxCCPR2L+2,f,c
  4557  001210  2221               	addwfc	PWM_generar@AuxCCPR2L+3,f,c
  4558                           
  4559                           ;PWM.c: 39: AuxCCPR2L=AuxCCPR2L*duty;
  4560  001212  C00E  F001         	movff	PWM_generar@duty,___lmul@multiplier
  4561  001216  C00F  F002         	movff	PWM_generar@duty+1,___lmul@multiplier+1
  4562  00121A  6A03               	clrf	___lmul@multiplier+2,c
  4563  00121C  6A04               	clrf	___lmul@multiplier+3,c
  4564  00121E  C01E  F005         	movff	PWM_generar@AuxCCPR2L,___lmul@multiplicand
  4565  001222  C01F  F006         	movff	PWM_generar@AuxCCPR2L+1,___lmul@multiplicand+1
  4566  001226  C020  F007         	movff	PWM_generar@AuxCCPR2L+2,___lmul@multiplicand+2
  4567  00122A  C021  F008         	movff	PWM_generar@AuxCCPR2L+3,___lmul@multiplicand+3
  4568  00122E  ECA9  F013         	call	___lmul	;wreg free
  4569  001232  C001  F01E         	movff	?___lmul,PWM_generar@AuxCCPR2L
  4570  001236  C002  F01F         	movff	?___lmul+1,PWM_generar@AuxCCPR2L+1
  4571  00123A  C003  F020         	movff	?___lmul+2,PWM_generar@AuxCCPR2L+2
  4572  00123E  C004  F021         	movff	?___lmul+3,PWM_generar@AuxCCPR2L+3
  4573                           
  4574                           ;PWM.c: 40: AuxCCPR2L=AuxCCPR2L*4;
  4575  001242  C01E  F012         	movff	PWM_generar@AuxCCPR2L,??_PWM_generar
  4576  001246  C01F  F013         	movff	PWM_generar@AuxCCPR2L+1,??_PWM_generar+1
  4577  00124A  C020  F014         	movff	PWM_generar@AuxCCPR2L+2,??_PWM_generar+2
  4578  00124E  C021  F015         	movff	PWM_generar@AuxCCPR2L+3,??_PWM_generar+3
  4579  001252  0E02               	movlw	2
  4580  001254                     u2425:
  4581  001254  90D8               	bcf	status,0,c
  4582  001256  3612               	rlcf	??_PWM_generar,f,c
  4583  001258  3613               	rlcf	??_PWM_generar+1,f,c
  4584  00125A  3614               	rlcf	??_PWM_generar+2,f,c
  4585  00125C  3615               	rlcf	??_PWM_generar+3,f,c
  4586  00125E  2EE8               	decfsz	wreg,f,c
  4587  001260  D7F9               	goto	u2425
  4588  001262  C012  F01E         	movff	??_PWM_generar,PWM_generar@AuxCCPR2L
  4589  001266  C013  F01F         	movff	??_PWM_generar+1,PWM_generar@AuxCCPR2L+1
  4590  00126A  C014  F020         	movff	??_PWM_generar+2,PWM_generar@AuxCCPR2L+2
  4591  00126E  C015  F021         	movff	??_PWM_generar+3,PWM_generar@AuxCCPR2L+3
  4592                           
  4593                           ;PWM.c: 41: AuxCCPR2L=AuxCCPR2L/100;
  4594  001272  C01E  F001         	movff	PWM_generar@AuxCCPR2L,___lldiv@dividend
  4595  001276  C01F  F002         	movff	PWM_generar@AuxCCPR2L+1,___lldiv@dividend+1
  4596  00127A  C020  F003         	movff	PWM_generar@AuxCCPR2L+2,___lldiv@dividend+2
  4597  00127E  C021  F004         	movff	PWM_generar@AuxCCPR2L+3,___lldiv@dividend+3
  4598  001282  0E64               	movlw	100
  4599  001284  6E05               	movwf	___lldiv@divisor,c
  4600  001286  0E00               	movlw	0
  4601  001288  6E06               	movwf	___lldiv@divisor+1,c
  4602  00128A  0E00               	movlw	0
  4603  00128C  6E07               	movwf	___lldiv@divisor+2,c
  4604  00128E  0E00               	movlw	0
  4605  001290  6E08               	movwf	___lldiv@divisor+3,c
  4606  001292  EC89  F012         	call	___lldiv	;wreg free
  4607  001296  C001  F01E         	movff	?___lldiv,PWM_generar@AuxCCPR2L
  4608  00129A  C002  F01F         	movff	?___lldiv+1,PWM_generar@AuxCCPR2L+1
  4609  00129E  C003  F020         	movff	?___lldiv+2,PWM_generar@AuxCCPR2L+2
  4610  0012A2  C004  F021         	movff	?___lldiv+3,PWM_generar@AuxCCPR2L+3
  4611                           
  4612                           ;PWM.c: 42: unsigned int AuxCCP2CON= AuxCCPR2L;
  4613  0012A6  C01E  F018         	movff	PWM_generar@AuxCCPR2L,PWM_generar@AuxCCP2CON
  4614  0012AA  C01F  F019         	movff	PWM_generar@AuxCCPR2L+1,PWM_generar@AuxCCP2CON+1
  4615                           
  4616                           ;PWM.c: 43: AuxCCP2CON= AuxCCP2CON & 0b00000011 ;
  4617  0012AE  0E03               	movlw	3
  4618  0012B0  1418               	andwf	PWM_generar@AuxCCP2CON,w,c
  4619  0012B2  6E18               	movwf	PWM_generar@AuxCCP2CON,c
  4620  0012B4  6A19               	clrf	PWM_generar@AuxCCP2CON+1,c
  4621                           
  4622                           ;PWM.c: 44: AuxCCP2CON= AuxCCP2CON*16;
  4623  0012B6  C018  F012         	movff	PWM_generar@AuxCCP2CON,??_PWM_generar
  4624  0012BA  C019  F013         	movff	PWM_generar@AuxCCP2CON+1,??_PWM_generar+1
  4625  0012BE  3A12               	swapf	??_PWM_generar,f,c
  4626  0012C0  3A13               	swapf	??_PWM_generar+1,f,c
  4627  0012C2  0EF0               	movlw	240
  4628  0012C4  1613               	andwf	??_PWM_generar+1,f,c
  4629  0012C6  5012               	movf	??_PWM_generar,w,c
  4630  0012C8  0B0F               	andlw	15
  4631  0012CA  1213               	iorwf	??_PWM_generar+1,f,c
  4632  0012CC  0EF0               	movlw	240
  4633  0012CE  1612               	andwf	??_PWM_generar,f,c
  4634  0012D0  C012  F018         	movff	??_PWM_generar,PWM_generar@AuxCCP2CON
  4635  0012D4  C013  F019         	movff	??_PWM_generar+1,PWM_generar@AuxCCP2CON+1
  4636                           
  4637                           ;PWM.c: 45: CCP2CON= 0b00001100;
  4638  0012D8  0E0C               	movlw	12
  4639  0012DA  6E97               	movwf	3991,c	;volatile
  4640                           
  4641                           ;PWM.c: 46: CCP2CON= CCP2CON|AuxCCP2CON;
  4642  0012DC  5097               	movf	3991,w,c
  4643  0012DE  1018               	iorwf	PWM_generar@AuxCCP2CON,w,c
  4644  0012E0  6E97               	movwf	3991,c	;volatile
  4645                           
  4646                           ;PWM.c: 47: AuxCCPR2L=AuxCCPR2L/4;
  4647  0012E2  C01E  F012         	movff	PWM_generar@AuxCCPR2L,??_PWM_generar
  4648  0012E6  C01F  F013         	movff	PWM_generar@AuxCCPR2L+1,??_PWM_generar+1
  4649  0012EA  C020  F014         	movff	PWM_generar@AuxCCPR2L+2,??_PWM_generar+2
  4650  0012EE  C021  F015         	movff	PWM_generar@AuxCCPR2L+3,??_PWM_generar+3
  4651  0012F2  0E03               	movlw	3
  4652  0012F4  D005               	goto	u2430
  4653  0012F6                     u2435:
  4654  0012F6  90D8               	bcf	status,0,c
  4655  0012F8  3215               	rrcf	??_PWM_generar+3,f,c
  4656  0012FA  3214               	rrcf	??_PWM_generar+2,f,c
  4657  0012FC  3213               	rrcf	??_PWM_generar+1,f,c
  4658  0012FE  3212               	rrcf	??_PWM_generar,f,c
  4659  001300                     u2430:
  4660  001300  2EE8               	decfsz	wreg,f,c
  4661  001302  D7F9               	goto	u2435
  4662  001304  C012  F01E         	movff	??_PWM_generar,PWM_generar@AuxCCPR2L
  4663  001308  C013  F01F         	movff	??_PWM_generar+1,PWM_generar@AuxCCPR2L+1
  4664  00130C  C014  F020         	movff	??_PWM_generar+2,PWM_generar@AuxCCPR2L+2
  4665  001310  C015  F021         	movff	??_PWM_generar+3,PWM_generar@AuxCCPR2L+3
  4666                           
  4667                           ;PWM.c: 48: CCPR2L=AuxCCPR2L;
  4668  001314  C01E  FF90         	movff	PWM_generar@AuxCCPR2L,3984	;volatile
  4669                           
  4670                           ;PWM.c: 49: T2CONbits.TMR2ON=1;
  4671  001318  84BA               	bsf	4026,2,c	;volatile
  4672                           
  4673                           ;PWM.c: 50: TMR2=0;
  4674  00131A  0E00               	movlw	0
  4675  00131C  6EBC               	movwf	4028,c	;volatile
  4676  00131E  0012               	return	
  4677  001320                     __end_of_PWM_generar:
  4678                           	opt stack 0
  4679                           tblptru	equ	0xFF8
  4680                           tblptrh	equ	0xFF7
  4681                           tblptrl	equ	0xFF6
  4682                           tablat	equ	0xFF5
  4683                           prodh	equ	0xFF4
  4684                           prodl	equ	0xFF3
  4685                           intcon2	equ	0xFF1
  4686                           postinc0	equ	0xFEE
  4687                           wreg	equ	0xFE8
  4688                           postinc1	equ	0xFE6
  4689                           postdec1	equ	0xFE5
  4690                           fsr1l	equ	0xFE1
  4691                           indf2	equ	0xFDF
  4692                           postinc2	equ	0xFDE
  4693                           postdec2	equ	0xFDD
  4694                           fsr2h	equ	0xFDA
  4695                           fsr2l	equ	0xFD9
  4696                           status	equ	0xFD8
  4697                           
  4698 ;; *************** function ___lldiv *****************
  4699 ;; Defined at:
  4700 ;;		line 8 in file "/opt/microchip/xc8/v1.32/sources/common/lldiv.c"
  4701 ;; Parameters:    Size  Location     Type
  4702 ;;  dividend        4    0[COMRAM] unsigned long 
  4703 ;;  divisor         4    4[COMRAM] unsigned long 
  4704 ;; Auto vars:     Size  Location     Type
  4705 ;;  quotient        4    8[COMRAM] unsigned long 
  4706 ;;  counter         1   12[COMRAM] unsigned char 
  4707 ;; Return value:  Size  Location     Type
  4708 ;;                  4    0[COMRAM] unsigned long 
  4709 ;; Registers used:
  4710 ;;		wreg, status,2, status,0
  4711 ;; Tracked objects:
  4712 ;;		On entry : 0/0
  4713 ;;		On exit  : 0/0
  4714 ;;		Unchanged: 0/0
  4715 ;; Data sizes:     COMRAM   BANK0   BANK1   BANK2   BANK3   BANK4   BANK5   BANK6   BANK7
  4716 ;;      Params:         8       0       0       0       0       0       0       0       0
  4717 ;;      Locals:         5       0       0       0       0       0       0       0       0
  4718 ;;      Temps:          0       0       0       0       0       0       0       0       0
  4719 ;;      Totals:        13       0       0       0       0       0       0       0       0
  4720 ;;Total ram usage:       13 bytes
  4721 ;; Hardware stack levels used:    1
  4722 ;; This function calls:
  4723 ;;		Nothing
  4724 ;; This function is called by:
  4725 ;;		_PWM_generar
  4726 ;; This function uses a non-reentrant model
  4727 ;;
  4728                           
  4729                           	psect	text13
  4730  002512                     __ptext13:
  4731                           	opt stack 0
  4732  002512                     ___lldiv:
  4733                           	opt stack 29
  4734                           
  4735                           ;incstack = 0
  4736  002512  0E00               	movlw	0
  4737  002514  6E09               	movwf	___lldiv@quotient,c
  4738  002516  0E00               	movlw	0
  4739  002518  6E0A               	movwf	___lldiv@quotient+1,c
  4740  00251A  0E00               	movlw	0
  4741  00251C  6E0B               	movwf	___lldiv@quotient+2,c
  4742  00251E  0E00               	movlw	0
  4743  002520  6E0C               	movwf	___lldiv@quotient+3,c
  4744  002522  5008               	movf	___lldiv@divisor+3,w,c
  4745  002524  1005               	iorwf	___lldiv@divisor,w,c
  4746  002526  1006               	iorwf	___lldiv@divisor+1,w,c
  4747  002528  1007               	iorwf	___lldiv@divisor+2,w,c
  4748  00252A  B4D8               	btfsc	status,2,c
  4749  00252C  D02A               	goto	l901
  4750  00252E  0E01               	movlw	1
  4751  002530  6E0D               	movwf	___lldiv@counter,c
  4752  002532  D006               	goto	l2929
  4753  002534                     l2927:
  4754  002534  90D8               	bcf	status,0,c
  4755  002536  3605               	rlcf	___lldiv@divisor,f,c
  4756  002538  3606               	rlcf	___lldiv@divisor+1,f,c
  4757  00253A  3607               	rlcf	___lldiv@divisor+2,f,c
  4758  00253C  3608               	rlcf	___lldiv@divisor+3,f,c
  4759  00253E  2A0D               	incf	___lldiv@counter,f,c
  4760  002540                     l2929:
  4761  002540  AE08               	btfss	___lldiv@divisor+3,7,c
  4762  002542  D7F8               	goto	l2927
  4763  002544                     l2931:
  4764  002544  90D8               	bcf	status,0,c
  4765  002546  3609               	rlcf	___lldiv@quotient,f,c
  4766  002548  360A               	rlcf	___lldiv@quotient+1,f,c
  4767  00254A  360B               	rlcf	___lldiv@quotient+2,f,c
  4768  00254C  360C               	rlcf	___lldiv@quotient+3,f,c
  4769  00254E  5005               	movf	___lldiv@divisor,w,c
  4770  002550  5C01               	subwf	___lldiv@dividend,w,c
  4771  002552  5006               	movf	___lldiv@divisor+1,w,c
  4772  002554  5802               	subwfb	___lldiv@dividend+1,w,c
  4773  002556  5007               	movf	___lldiv@divisor+2,w,c
  4774  002558  5803               	subwfb	___lldiv@dividend+2,w,c
  4775  00255A  5008               	movf	___lldiv@divisor+3,w,c
  4776  00255C  5804               	subwfb	___lldiv@dividend+3,w,c
  4777  00255E  A0D8               	btfss	status,0,c
  4778  002560  D009               	goto	l2939
  4779  002562  5005               	movf	___lldiv@divisor,w,c
  4780  002564  5E01               	subwf	___lldiv@dividend,f,c
  4781  002566  5006               	movf	___lldiv@divisor+1,w,c
  4782  002568  5A02               	subwfb	___lldiv@dividend+1,f,c
  4783  00256A  5007               	movf	___lldiv@divisor+2,w,c
  4784  00256C  5A03               	subwfb	___lldiv@dividend+2,f,c
  4785  00256E  5008               	movf	___lldiv@divisor+3,w,c
  4786  002570  5A04               	subwfb	___lldiv@dividend+3,f,c
  4787  002572  8009               	bsf	___lldiv@quotient,0,c
  4788  002574                     l2939:
  4789  002574  90D8               	bcf	status,0,c
  4790  002576  3208               	rrcf	___lldiv@divisor+3,f,c
  4791  002578  3207               	rrcf	___lldiv@divisor+2,f,c
  4792  00257A  3206               	rrcf	___lldiv@divisor+1,f,c
  4793  00257C  3205               	rrcf	___lldiv@divisor,f,c
  4794  00257E  2E0D               	decfsz	___lldiv@counter,f,c
  4795  002580  D7E1               	goto	l2931
  4796  002582                     l901:
  4797  002582  C009  F001         	movff	___lldiv@quotient,?___lldiv
  4798  002586  C00A  F002         	movff	___lldiv@quotient+1,?___lldiv+1
  4799  00258A  C00B  F003         	movff	___lldiv@quotient+2,?___lldiv+2
  4800  00258E  C00C  F004         	movff	___lldiv@quotient+3,?___lldiv+3
  4801  002592  0012               	return	
  4802  002594                     __end_of___lldiv:
  4803                           	opt stack 0
  4804                           tblptru	equ	0xFF8
  4805                           tblptrh	equ	0xFF7
  4806                           tblptrl	equ	0xFF6
  4807                           tablat	equ	0xFF5
  4808                           prodh	equ	0xFF4
  4809                           prodl	equ	0xFF3
  4810                           intcon2	equ	0xFF1
  4811                           postinc0	equ	0xFEE
  4812                           wreg	equ	0xFE8
  4813                           postinc1	equ	0xFE6
  4814                           postdec1	equ	0xFE5
  4815                           fsr1l	equ	0xFE1
  4816                           indf2	equ	0xFDF
  4817                           postinc2	equ	0xFDE
  4818                           postdec2	equ	0xFDD
  4819                           fsr2h	equ	0xFDA
  4820                           fsr2l	equ	0xFD9
  4821                           status	equ	0xFD8
  4822                           
  4823 ;; *************** function _Lcd_Out *****************
  4824 ;; Defined at:
  4825 ;;		line 92 in file "pantalla.h"
  4826 ;; Parameters:    Size  Location     Type
  4827 ;;  y               1    wreg     unsigned char 
  4828 ;;  x               1    3[COMRAM] unsigned char 
  4829 ;;  buffer          2    4[COMRAM] PTR const unsigned char 
  4830 ;;		 -> cadena(10), 
  4831 ;; Auto vars:     Size  Location     Type
  4832 ;;  y               1    6[COMRAM] unsigned char 
  4833 ;;  data            1    7[COMRAM] unsigned char 
  4834 ;; Return value:  Size  Location     Type
  4835 ;;		None               void
  4836 ;; Registers used:
  4837 ;;		wreg, fsr2l, fsr2h, status,2, status,0, cstack
  4838 ;; Tracked objects:
  4839 ;;		On entry : 0/0
  4840 ;;		On exit  : 0/0
  4841 ;;		Unchanged: 0/0
  4842 ;; Data sizes:     COMRAM   BANK0   BANK1   BANK2   BANK3   BANK4   BANK5   BANK6   BANK7
  4843 ;;      Params:         3       0       0       0       0       0       0       0       0
  4844 ;;      Locals:         2       0       0       0       0       0       0       0       0
  4845 ;;      Temps:          0       0       0       0       0       0       0       0       0
  4846 ;;      Totals:         5       0       0       0       0       0       0       0       0
  4847 ;;Total ram usage:        5 bytes
  4848 ;; Hardware stack levels used:    1
  4849 ;; Hardware stack levels required when called:    1
  4850 ;; This function calls:
  4851 ;;		_Lcd_Chr_CP
  4852 ;;		_Lcd_Cmd
  4853 ;; This function is called by:
  4854 ;;		_main
  4855 ;;		_Prueba2
  4856 ;; This function uses a non-reentrant model
  4857 ;;
  4858                           
  4859                           	psect	text14
  4860  0026F0                     __ptext14:
  4861                           	opt stack 0
  4862  0026F0                     _Lcd_Out:
  4863                           	opt stack 29
  4864                           
  4865                           ;incstack = 0
  4866                           ;Lcd_Out@y stored from wreg
  4867  0026F0  6E07               	movwf	Lcd_Out@y,c
  4868                           
  4869                           ;pantalla.h: 94: unsigned char data;
  4870                           ;pantalla.h: 95: switch (y)
  4871  0026F2  D00D               	goto	l2955
  4872  0026F4                     l2945:
  4873  0026F4  5004               	movf	Lcd_Out@x,w,c
  4874  0026F6  0F80               	addlw	128
  4875  0026F8  D008               	goto	L16
  4876  0026FA                     l2947:
  4877  0026FA  5004               	movf	Lcd_Out@x,w,c
  4878  0026FC  0FC0               	addlw	192
  4879  0026FE  D005               	goto	L16
  4880  002700                     l2949:
  4881  002700  5004               	movf	Lcd_Out@x,w,c
  4882  002702  0F94               	addlw	148
  4883  002704  D002               	goto	L16
  4884  002706                     l2951:
  4885  002706  5004               	movf	Lcd_Out@x,w,c
  4886  002708  0FD4               	addlw	212
  4887  00270A                     L16:
  4888  00270A  6E08               	movwf	Lcd_Out@data,c
  4889  00270C  D00D               	goto	l2957
  4890  00270E                     l2955:
  4891  00270E  5007               	movf	Lcd_Out@y,w,c
  4892                           
  4893                           ; Switch size 1, requested type "space"
  4894                           ; Number of cases is 4, Range of values is 1 to 4
  4895                           ; switch strategies available:
  4896                           ; Name         Instructions Cycles
  4897                           ; simple_byte           13     7 (average)
  4898                           ;	Chosen strategy is simple_byte
  4899  002710  0A01               	xorlw	1	; case 1
  4900  002712  B4D8               	btfsc	status,2,c
  4901  002714  D7EF               	goto	l2945
  4902  002716  0A03               	xorlw	3	; case 2
  4903  002718  B4D8               	btfsc	status,2,c
  4904  00271A  D7EF               	goto	l2947
  4905  00271C  0A01               	xorlw	1	; case 3
  4906  00271E  B4D8               	btfsc	status,2,c
  4907  002720  D7EF               	goto	l2949
  4908  002722  0A07               	xorlw	7	; case 4
  4909  002724  B4D8               	btfsc	status,2,c
  4910  002726  D7EF               	goto	l2951
  4911  002728                     l2957:
  4912                           
  4913                           ;pantalla.h: 103: Lcd_Cmd(data);
  4914  002728  5008               	movf	Lcd_Out@data,w,c
  4915  00272A  EC83  F00D         	call	_Lcd_Cmd
  4916                           
  4917                           ;pantalla.h: 104: while(*buffer)
  4918  00272E  D009               	goto	l2963
  4919  002730                     l2959:
  4920                           
  4921                           ;pantalla.h: 105: {
  4922                           ;pantalla.h: 106: Lcd_Chr_CP(*buffer);
  4923  002730  C005  FFD9         	movff	Lcd_Out@buffer,fsr2l
  4924  002734  C006  FFDA         	movff	Lcd_Out@buffer+1,fsr2h
  4925  002738  50DF               	movf	indf2,w,c
  4926  00273A  ECC6  F00B         	call	_Lcd_Chr_CP
  4927                           
  4928                           ;pantalla.h: 107: buffer++;
  4929  00273E  4A05               	infsnz	Lcd_Out@buffer,f,c
  4930  002740  2A06               	incf	Lcd_Out@buffer+1,f,c
  4931  002742                     l2963:
  4932  002742  C005  FFD9         	movff	Lcd_Out@buffer,fsr2l
  4933  002746  C006  FFDA         	movff	Lcd_Out@buffer+1,fsr2h
  4934  00274A  50DF               	movf	indf2,w,c
  4935  00274C  B4D8               	btfsc	status,2,c
  4936                           
  4937                           ;pantalla.h: 108: }
  4938                           ;pantalla.h: 109: return;
  4939  00274E  0012               	return	
  4940  002750  D7EF               	goto	l2959
  4941  002752                     __end_of_Lcd_Out:
  4942                           	opt stack 0
  4943                           tblptru	equ	0xFF8
  4944                           tblptrh	equ	0xFF7
  4945                           tblptrl	equ	0xFF6
  4946                           tablat	equ	0xFF5
  4947                           prodh	equ	0xFF4
  4948                           prodl	equ	0xFF3
  4949                           intcon2	equ	0xFF1
  4950                           postinc0	equ	0xFEE
  4951                           wreg	equ	0xFE8
  4952                           postinc1	equ	0xFE6
  4953                           postdec1	equ	0xFE5
  4954                           fsr1l	equ	0xFE1
  4955                           indf2	equ	0xFDF
  4956                           postinc2	equ	0xFDE
  4957                           postdec2	equ	0xFDD
  4958                           fsr2h	equ	0xFDA
  4959                           fsr2l	equ	0xFD9
  4960                           status	equ	0xFD8
  4961                           
  4962 ;; *************** function _Imprimir_pantalla *****************
  4963 ;; Defined at:
  4964 ;;		line 127 in file "Funciones.h"
  4965 ;; Parameters:    Size  Location     Type
  4966 ;;  N               2    8[COMRAM] PTR unsigned char 
  4967 ;;		 -> ciclo(10), frecuencia(10), 
  4968 ;; Auto vars:     Size  Location     Type
  4969 ;;  columna         1   11[COMRAM] unsigned char 
  4970 ;;  fila            1   10[COMRAM] unsigned char 
  4971 ;; Return value:  Size  Location     Type
  4972 ;;		None               void
  4973 ;; Registers used:
  4974 ;;		wreg, fsr0l, fsr0h, status,2, status,0, tblptrl, tblptrh, tblptru, cstack
  4975 ;; Tracked objects:
  4976 ;;		On entry : 0/0
  4977 ;;		On exit  : 0/0
  4978 ;;		Unchanged: 0/0
  4979 ;; Data sizes:     COMRAM   BANK0   BANK1   BANK2   BANK3   BANK4   BANK5   BANK6   BANK7
  4980 ;;      Params:         2       0       0       0       0       0       0       0       0
  4981 ;;      Locals:         2       0       0       0       0       0       0       0       0
  4982 ;;      Temps:          0       0       0       0       0       0       0       0       0
  4983 ;;      Totals:         4       0       0       0       0       0       0       0       0
  4984 ;;Total ram usage:        4 bytes
  4985 ;; Hardware stack levels used:    1
  4986 ;; Hardware stack levels required when called:    2
  4987 ;; This function calls:
  4988 ;;		_Lcd_Cmd
  4989 ;;		_Lcd_Init
  4990 ;;		_Lcd_Out2
  4991 ;;		_Recuperar
  4992 ;;		_tm_1s
  4993 ;; This function is called by:
  4994 ;;		_main
  4995 ;;		_Prueba1
  4996 ;; This function uses a non-reentrant model
  4997 ;;
  4998                           
  4999                           	psect	text15
  5000  0027F6                     __ptext15:
  5001                           	opt stack 0
  5002  0027F6                     _Imprimir_pantalla:
  5003                           	opt stack 28
  5004                           
  5005                           ;Funciones.h: 129: unsigned char fila = 0, columna=0;
  5006                           
  5007                           ;incstack = 0
  5008  0027F6  0E00               	movlw	0
  5009  0027F8  6E0B               	movwf	Imprimir_pantalla@fila,c
  5010  0027FA  0E00               	movlw	0
  5011  0027FC  6E0C               	movwf	Imprimir_pantalla@columna,c
  5012                           
  5013                           ;Funciones.h: 130: Lcd_Init();
  5014  0027FE  EC5C  F00C         	call	_Lcd_Init	;wreg free
  5015                           
  5016                           ;Funciones.h: 131: Lcd_Cmd(1);
  5017  002802  0E01               	movlw	1
  5018  002804  EC83  F00D         	call	_Lcd_Cmd
  5019                           
  5020                           ;Funciones.h: 132: Lcd_Cmd(12);
  5021  002808  0E0C               	movlw	12
  5022  00280A  EC83  F00D         	call	_Lcd_Cmd
  5023                           
  5024                           ;Funciones.h: 135: Lcd_Out2(1,1,N);
  5025  00280E  0E01               	movlw	1
  5026  002810  6E04               	movwf	Lcd_Out2@x,c
  5027  002812  C00A  F006         	movff	Imprimir_pantalla@N+1,Lcd_Out2@buffer+1
  5028  002816  C009  F005         	movff	Imprimir_pantalla@N,Lcd_Out2@buffer
  5029  00281A  0E01               	movlw	1
  5030  00281C  ECFA  F011         	call	_Lcd_Out2
  5031                           
  5032                           ;Funciones.h: 136: tm_1s();
  5033  002820  EC42  F012         	call	_tm_1s	;wreg free
  5034                           
  5035                           ;Funciones.h: 137: Lcd_Cmd(1);
  5036  002824  0E01               	movlw	1
  5037  002826  EC83  F00D         	call	_Lcd_Cmd
  5038                           
  5039                           ;Funciones.h: 138: key=Recuperar();
  5040  00282A  EC6C  F014         	call	_Recuperar	;wreg free
  5041  00282E  6E57               	movwf	_key,c
  5042  002830  0012               	return	
  5043  002832                     __end_of_Imprimir_pantalla:
  5044                           	opt stack 0
  5045                           tblptru	equ	0xFF8
  5046                           tblptrh	equ	0xFF7
  5047                           tblptrl	equ	0xFF6
  5048                           tablat	equ	0xFF5
  5049                           prodh	equ	0xFF4
  5050                           prodl	equ	0xFF3
  5051                           intcon2	equ	0xFF1
  5052                           postinc0	equ	0xFEE
  5053                           wreg	equ	0xFE8
  5054                           postinc1	equ	0xFE6
  5055                           postdec1	equ	0xFE5
  5056                           fsr1l	equ	0xFE1
  5057                           indf2	equ	0xFDF
  5058                           postinc2	equ	0xFDE
  5059                           postdec2	equ	0xFDD
  5060                           fsr2h	equ	0xFDA
  5061                           fsr2l	equ	0xFD9
  5062                           status	equ	0xFD8
  5063                           
  5064 ;; *************** function _tm_1s *****************
  5065 ;; Defined at:
  5066 ;;		line 4 in file "delays.h"
  5067 ;; Parameters:    Size  Location     Type
  5068 ;;		None
  5069 ;; Auto vars:     Size  Location     Type
  5070 ;;		None
  5071 ;; Return value:  Size  Location     Type
  5072 ;;		None               void
  5073 ;; Registers used:
  5074 ;;		wreg
  5075 ;; Tracked objects:
  5076 ;;		On entry : 0/0
  5077 ;;		On exit  : 0/0
  5078 ;;		Unchanged: 0/0
  5079 ;; Data sizes:     COMRAM   BANK0   BANK1   BANK2   BANK3   BANK4   BANK5   BANK6   BANK7
  5080 ;;      Params:         0       0       0       0       0       0       0       0       0
  5081 ;;      Locals:         0       0       0       0       0       0       0       0       0
  5082 ;;      Temps:          1       0       0       0       0       0       0       0       0
  5083 ;;      Totals:         1       0       0       0       0       0       0       0       0
  5084 ;;Total ram usage:        1 bytes
  5085 ;; Hardware stack levels used:    1
  5086 ;; This function calls:
  5087 ;;		Nothing
  5088 ;; This function is called by:
  5089 ;;		_Imprimir_pantalla
  5090 ;;		_main
  5091 ;;		_Presentacion
  5092 ;;		_Menu
  5093 ;; This function uses a non-reentrant model
  5094 ;;
  5095                           
  5096                           	psect	text16
  5097  002484                     __ptext16:
  5098                           	opt stack 0
  5099  002484                     _tm_1s:
  5100                           	opt stack 30
  5101                           
  5102                           ;delays.h: 5: _delay((unsigned long)((100)*(4000000/4000.0)));
  5103                           
  5104                           ;incstack = 0
  5105  002484  0E82               	movlw	130
  5106  002486  6E01               	movwf	??_tm_1s& (0+255),c
  5107  002488  0EDE               	movlw	222
  5108  00248A                     u3367:
  5109  00248A  2EE8               	decfsz	wreg,f,c
  5110  00248C  D7FE               	goto	u3367
  5111  00248E  2E01               	decfsz	??_tm_1s& (0+255),f,c
  5112  002490  D7FC               	goto	u3367
  5113                           
  5114                           ;delays.h: 6: _delay((unsigned long)((100)*(4000000/4000.0)));
  5115  002492  0E82               	movlw	130
  5116  002494  6E01               	movwf	??_tm_1s& (0+255),c
  5117  002496  0EDE               	movlw	222
  5118  002498                     u3377:
  5119  002498  2EE8               	decfsz	wreg,f,c
  5120  00249A  D7FE               	goto	u3377
  5121  00249C  2E01               	decfsz	??_tm_1s& (0+255),f,c
  5122  00249E  D7FC               	goto	u3377
  5123                           
  5124                           ;delays.h: 7: _delay((unsigned long)((100)*(4000000/4000.0)));
  5125  0024A0  0E82               	movlw	130
  5126  0024A2  6E01               	movwf	??_tm_1s& (0+255),c
  5127  0024A4  0EDE               	movlw	222
  5128  0024A6                     u3387:
  5129  0024A6  2EE8               	decfsz	wreg,f,c
  5130  0024A8  D7FE               	goto	u3387
  5131  0024AA  2E01               	decfsz	??_tm_1s& (0+255),f,c
  5132  0024AC  D7FC               	goto	u3387
  5133                           
  5134                           ;delays.h: 8: _delay((unsigned long)((100)*(4000000/4000.0)));
  5135  0024AE  0E82               	movlw	130
  5136  0024B0  6E01               	movwf	??_tm_1s& (0+255),c
  5137  0024B2  0EDE               	movlw	222
  5138  0024B4                     u3397:
  5139  0024B4  2EE8               	decfsz	wreg,f,c
  5140  0024B6  D7FE               	goto	u3397
  5141  0024B8  2E01               	decfsz	??_tm_1s& (0+255),f,c
  5142  0024BA  D7FC               	goto	u3397
  5143                           
  5144                           ;delays.h: 9: _delay((unsigned long)((100)*(4000000/4000.0)));
  5145  0024BC  0E82               	movlw	130
  5146  0024BE  6E01               	movwf	??_tm_1s& (0+255),c
  5147  0024C0  0EDE               	movlw	222
  5148  0024C2                     u3407:
  5149  0024C2  2EE8               	decfsz	wreg,f,c
  5150  0024C4  D7FE               	goto	u3407
  5151  0024C6  2E01               	decfsz	??_tm_1s& (0+255),f,c
  5152  0024C8  D7FC               	goto	u3407
  5153                           
  5154                           ;delays.h: 10: _delay((unsigned long)((100)*(4000000/4000.0)));
  5155  0024CA  0E82               	movlw	130
  5156  0024CC  6E01               	movwf	??_tm_1s& (0+255),c
  5157  0024CE  0EDE               	movlw	222
  5158  0024D0                     u3417:
  5159  0024D0  2EE8               	decfsz	wreg,f,c
  5160  0024D2  D7FE               	goto	u3417
  5161  0024D4  2E01               	decfsz	??_tm_1s& (0+255),f,c
  5162  0024D6  D7FC               	goto	u3417
  5163                           
  5164                           ;delays.h: 11: _delay((unsigned long)((100)*(4000000/4000.0)));
  5165  0024D8  0E82               	movlw	130
  5166  0024DA  6E01               	movwf	??_tm_1s& (0+255),c
  5167  0024DC  0EDE               	movlw	222
  5168  0024DE                     u3427:
  5169  0024DE  2EE8               	decfsz	wreg,f,c
  5170  0024E0  D7FE               	goto	u3427
  5171  0024E2  2E01               	decfsz	??_tm_1s& (0+255),f,c
  5172  0024E4  D7FC               	goto	u3427
  5173                           
  5174                           ;delays.h: 12: _delay((unsigned long)((100)*(4000000/4000.0)));
  5175  0024E6  0E82               	movlw	130
  5176  0024E8  6E01               	movwf	??_tm_1s& (0+255),c
  5177  0024EA  0EDE               	movlw	222
  5178  0024EC                     u3437:
  5179  0024EC  2EE8               	decfsz	wreg,f,c
  5180  0024EE  D7FE               	goto	u3437
  5181  0024F0  2E01               	decfsz	??_tm_1s& (0+255),f,c
  5182  0024F2  D7FC               	goto	u3437
  5183                           
  5184                           ;delays.h: 13: _delay((unsigned long)((100)*(4000000/4000.0)));
  5185  0024F4  0E82               	movlw	130
  5186  0024F6  6E01               	movwf	??_tm_1s& (0+255),c
  5187  0024F8  0EDE               	movlw	222
  5188  0024FA                     u3447:
  5189  0024FA  2EE8               	decfsz	wreg,f,c
  5190  0024FC  D7FE               	goto	u3447
  5191  0024FE  2E01               	decfsz	??_tm_1s& (0+255),f,c
  5192  002500  D7FC               	goto	u3447
  5193                           
  5194                           ;delays.h: 14: _delay((unsigned long)((100)*(4000000/4000.0)));
  5195  002502  0E82               	movlw	130
  5196  002504  6E01               	movwf	??_tm_1s& (0+255),c
  5197  002506  0EDE               	movlw	222
  5198  002508                     u3457:
  5199  002508  2EE8               	decfsz	wreg,f,c
  5200  00250A  D7FE               	goto	u3457
  5201  00250C  2E01               	decfsz	??_tm_1s& (0+255),f,c
  5202  00250E  D7FC               	goto	u3457
  5203  002510  0012               	return	
  5204  002512                     __end_of_tm_1s:
  5205                           	opt stack 0
  5206                           tblptru	equ	0xFF8
  5207                           tblptrh	equ	0xFF7
  5208                           tblptrl	equ	0xFF6
  5209                           tablat	equ	0xFF5
  5210                           prodh	equ	0xFF4
  5211                           prodl	equ	0xFF3
  5212                           intcon2	equ	0xFF1
  5213                           postinc0	equ	0xFEE
  5214                           wreg	equ	0xFE8
  5215                           postinc1	equ	0xFE6
  5216                           postdec1	equ	0xFE5
  5217                           fsr1l	equ	0xFE1
  5218                           indf2	equ	0xFDF
  5219                           postinc2	equ	0xFDE
  5220                           postdec2	equ	0xFDD
  5221                           fsr2h	equ	0xFDA
  5222                           fsr2l	equ	0xFD9
  5223                           status	equ	0xFD8
  5224                           
  5225 ;; *************** function _Frecuencia *****************
  5226 ;; Defined at:
  5227 ;;		line 69 in file "Funciones.h"
  5228 ;; Parameters:    Size  Location     Type
  5229 ;;  frecuencia      2   20[COMRAM] PTR unsigned char 
  5230 ;;		 -> frecuencia(10), 
  5231 ;; Auto vars:     Size  Location     Type
  5232 ;;		None
  5233 ;; Return value:  Size  Location     Type
  5234 ;;		None               void
  5235 ;; Registers used:
  5236 ;;		wreg, fsr0l, fsr0h, fsr2l, fsr2h, status,2, status,0, tblptrl, tblptrh, tblptru, cstack
  5237 ;; Tracked objects:
  5238 ;;		On entry : 0/0
  5239 ;;		On exit  : 0/0
  5240 ;;		Unchanged: 0/0
  5241 ;; Data sizes:     COMRAM   BANK0   BANK1   BANK2   BANK3   BANK4   BANK5   BANK6   BANK7
  5242 ;;      Params:         2       0       0       0       0       0       0       0       0
  5243 ;;      Locals:         0       0       0       0       0       0       0       0       0
  5244 ;;      Temps:          0       0       0       0       0       0       0       0       0
  5245 ;;      Totals:         2       0       0       0       0       0       0       0       0
  5246 ;;Total ram usage:        2 bytes
  5247 ;; Hardware stack levels used:    1
  5248 ;; Hardware stack levels required when called:    3
  5249 ;; This function calls:
  5250 ;;		_Lcd_Cmd
  5251 ;;		_Lcd_Init
  5252 ;;		_Lcd_Out2
  5253 ;;		_Tec
  5254 ;; This function is called by:
  5255 ;;		_main
  5256 ;;		_Prueba1
  5257 ;; This function uses a non-reentrant model
  5258 ;;
  5259                           
  5260                           	psect	text17
  5261  002832                     __ptext17:
  5262                           	opt stack 0
  5263  002832                     _Frecuencia:
  5264                           	opt stack 27
  5265                           
  5266                           ;Funciones.h: 70: Lcd_Init();
  5267                           
  5268                           ;incstack = 0
  5269  002832  EC5C  F00C         	call	_Lcd_Init	;wreg free
  5270                           
  5271                           ;Funciones.h: 71: Lcd_Cmd(1);
  5272  002836  0E01               	movlw	1
  5273  002838  EC83  F00D         	call	_Lcd_Cmd
  5274                           
  5275                           ;Funciones.h: 72: Lcd_Cmd(12);
  5276  00283C  0E0C               	movlw	12
  5277  00283E  EC83  F00D         	call	_Lcd_Cmd
  5278                           
  5279                           ;Funciones.h: 73: Lcd_Out2(1,1,"Frecuencia:");
  5280  002842  0E01               	movlw	1
  5281  002844  6E04               	movwf	Lcd_Out2@x,c
  5282  002846  0E08               	movlw	high STR_10
  5283  002848  6E06               	movwf	Lcd_Out2@buffer+1,c
  5284  00284A  0E4A               	movlw	low STR_10
  5285  00284C  6E05               	movwf	Lcd_Out2@buffer,c
  5286  00284E  0E01               	movlw	1
  5287  002850  ECFA  F011         	call	_Lcd_Out2
  5288                           
  5289                           ;Funciones.h: 74: Tec(frecuencia);
  5290  002854  C016  F00C         	movff	Frecuencia@frecuencia+1,Tec@cadena+1
  5291  002858  C015  F00B         	movff	Frecuencia@frecuencia,Tec@cadena
  5292  00285C  ECF0  F00C         	call	_Tec	;wreg free
  5293  002860  0012               	return	
  5294  002862                     __end_of_Frecuencia:
  5295                           	opt stack 0
  5296                           tblptru	equ	0xFF8
  5297                           tblptrh	equ	0xFF7
  5298                           tblptrl	equ	0xFF6
  5299                           tablat	equ	0xFF5
  5300                           prodh	equ	0xFF4
  5301                           prodl	equ	0xFF3
  5302                           intcon2	equ	0xFF1
  5303                           postinc0	equ	0xFEE
  5304                           wreg	equ	0xFE8
  5305                           postinc1	equ	0xFE6
  5306                           postdec1	equ	0xFE5
  5307                           fsr1l	equ	0xFE1
  5308                           indf2	equ	0xFDF
  5309                           postinc2	equ	0xFDE
  5310                           postdec2	equ	0xFDD
  5311                           fsr2h	equ	0xFDA
  5312                           fsr2l	equ	0xFD9
  5313                           status	equ	0xFD8
  5314                           
  5315 ;; *************** function _Conv_Entero *****************
  5316 ;; Defined at:
  5317 ;;		line 12 in file "conversion.c"
  5318 ;; Parameters:    Size  Location     Type
  5319 ;;  numero          4   14[COMRAM] long 
  5320 ;;  conv            2   18[COMRAM] PTR unsigned char 
  5321 ;;		 -> cadena(10), 
  5322 ;; Auto vars:     Size  Location     Type
  5323 ;;  convTemp       21   25[COMRAM] unsigned char [21]
  5324 ;;  numeroReg       4   51[COMRAM] long 
  5325 ;;  punteroActua    2   49[COMRAM] PTR unsigned char 
  5326 ;;		 -> Conv_Entero@convTemp(21), 
  5327 ;;  num             2   46[COMRAM] int 
  5328 ;;  i               1   48[COMRAM] unsigned char 
  5329 ;; Return value:  Size  Location     Type
  5330 ;;                  2   14[COMRAM] int 
  5331 ;; Registers used:
  5332 ;;		wreg, fsr1l, fsr1h, fsr2l, fsr2h, status,2, status,0, prodl, prodh, cstack
  5333 ;; Tracked objects:
  5334 ;;		On entry : 0/0
  5335 ;;		On exit  : 0/0
  5336 ;;		Unchanged: 0/0
  5337 ;; Data sizes:     COMRAM   BANK0   BANK1   BANK2   BANK3   BANK4   BANK5   BANK6   BANK7
  5338 ;;      Params:         6       0       0       0       0       0       0       0       0
  5339 ;;      Locals:        30       0       0       0       0       0       0       0       0
  5340 ;;      Temps:          5       0       0       0       0       0       0       0       0
  5341 ;;      Totals:        41       0       0       0       0       0       0       0       0
  5342 ;;Total ram usage:       41 bytes
  5343 ;; Hardware stack levels used:    1
  5344 ;; Hardware stack levels required when called:    1
  5345 ;; This function calls:
  5346 ;;		___aldiv
  5347 ;;		___almod
  5348 ;;		___lmul
  5349 ;; This function is called by:
  5350 ;;		_main
  5351 ;;		_Prueba2
  5352 ;; This function uses a non-reentrant model
  5353 ;;
  5354                           
  5355                           	psect	text18
  5356  001320                     __ptext18:
  5357                           	opt stack 0
  5358  001320                     _Conv_Entero:
  5359                           	opt stack 29
  5360                           
  5361                           ;conversion.c: 14: char convTemp[21];
  5362                           ;conversion.c: 15: register char *punteroActual;
  5363                           ;conversion.c: 16: register int num=0;
  5364                           
  5365                           ;incstack = 0
  5366  001320  0E00               	movlw	0
  5367  001322  6E30               	movwf	Conv_Entero@num+1,c
  5368  001324  0E00               	movlw	0
  5369  001326  6E2F               	movwf	Conv_Entero@num,c
  5370                           
  5371                           ;conversion.c: 17: register char i=0;
  5372  001328  0E00               	movlw	0
  5373  00132A  6E31               	movwf	Conv_Entero@i,c
  5374                           
  5375                           ;conversion.c: 18: register long long numeroReg = numero;
  5376  00132C  C00F  F034         	movff	Conv_Entero@numero,Conv_Entero@numeroReg
  5377  001330  C010  F035         	movff	Conv_Entero@numero+1,Conv_Entero@numeroReg+1
  5378  001334  C011  F036         	movff	Conv_Entero@numero+2,Conv_Entero@numeroReg+2
  5379  001338  C012  F037         	movff	Conv_Entero@numero+3,Conv_Entero@numeroReg+3
  5380                           
  5381                           ;conversion.c: 20: punteroActual = &convTemp[21 - 1];
  5382  00133C  0E00               	movlw	high (Conv_Entero@convTemp+20)
  5383  00133E  6E33               	movwf	Conv_Entero@punteroActual+1,c
  5384  001340  0E2E               	movlw	low (Conv_Entero@convTemp+20)
  5385  001342  6E32               	movwf	Conv_Entero@punteroActual,c
  5386                           
  5387                           ;conversion.c: 21: *punteroActual = 0;
  5388  001344  C032  FFD9         	movff	Conv_Entero@punteroActual,fsr2l
  5389  001348  C033  FFDA         	movff	Conv_Entero@punteroActual+1,fsr2h
  5390  00134C  0E00               	movlw	0
  5391  00134E  6EDF               	movwf	indf2,c
  5392                           
  5393                           ;conversion.c: 23: if( numeroReg < 0)
  5394  001350  5037               	movf	Conv_Entero@numeroReg+3,w,c
  5395  001352  0A80               	xorlw	128
  5396  001354  0F80               	addlw	128
  5397  001356  E108               	bnz	u2355
  5398  001358  0E00               	movlw	0
  5399  00135A  5C36               	subwf	Conv_Entero@numeroReg+2,w,c
  5400  00135C  E105               	bnz	u2355
  5401  00135E  0E00               	movlw	0
  5402  001360  5C35               	subwf	Conv_Entero@numeroReg+1,w,c
  5403  001362  E102               	bnz	u2355
  5404  001364  0E00               	movlw	0
  5405  001366  5C34               	subwf	Conv_Entero@numeroReg,w,c
  5406  001368                     u2355:
  5407  001368  B0D8               	btfsc	status,0,c
  5408  00136A  D01A               	goto	l3033
  5409                           
  5410                           ;conversion.c: 24: {
  5411                           ;conversion.c: 25: numeroReg*=-1;
  5412  00136C  C034  F001         	movff	Conv_Entero@numeroReg,___lmul@multiplier
  5413  001370  C035  F002         	movff	Conv_Entero@numeroReg+1,___lmul@multiplier+1
  5414  001374  C036  F003         	movff	Conv_Entero@numeroReg+2,___lmul@multiplier+2
  5415  001378  C037  F004         	movff	Conv_Entero@numeroReg+3,___lmul@multiplier+3
  5416  00137C  0EFF               	movlw	255
  5417  00137E  6E05               	movwf	___lmul@multiplicand,c
  5418  001380  0EFF               	movlw	255
  5419  001382  6E06               	movwf	___lmul@multiplicand+1,c
  5420  001384  0EFF               	movlw	255
  5421  001386  6E07               	movwf	___lmul@multiplicand+2,c
  5422  001388  0EFF               	movlw	255
  5423  00138A  6E08               	movwf	___lmul@multiplicand+3,c
  5424  00138C  ECA9  F013         	call	___lmul	;wreg free
  5425  001390  C001  F034         	movff	?___lmul,Conv_Entero@numeroReg
  5426  001394  C002  F035         	movff	?___lmul+1,Conv_Entero@numeroReg+1
  5427  001398  C003  F036         	movff	?___lmul+2,Conv_Entero@numeroReg+2
  5428  00139C  C004  F037         	movff	?___lmul+3,Conv_Entero@numeroReg+3
  5429  0013A0                     l3033:
  5430                           
  5431                           ;conversion.c: 29: punteroActual--;
  5432  0013A0  0632               	decf	Conv_Entero@punteroActual,f,c
  5433  0013A2  A0D8               	btfss	status,0,c
  5434  0013A4  0633               	decf	Conv_Entero@punteroActual+1,f,c
  5435                           
  5436                           ;conversion.c: 30: num=numeroReg % 10;
  5437  0013A6  C034  F001         	movff	Conv_Entero@numeroReg,___almod@dividend
  5438  0013AA  C035  F002         	movff	Conv_Entero@numeroReg+1,___almod@dividend+1
  5439  0013AE  C036  F003         	movff	Conv_Entero@numeroReg+2,___almod@dividend+2
  5440  0013B2  C037  F004         	movff	Conv_Entero@numeroReg+3,___almod@dividend+3
  5441  0013B6  0E0A               	movlw	10
  5442  0013B8  6E05               	movwf	___almod@divisor,c
  5443  0013BA  0E00               	movlw	0
  5444  0013BC  6E06               	movwf	___almod@divisor+1,c
  5445  0013BE  0E00               	movlw	0
  5446  0013C0  6E07               	movwf	___almod@divisor+2,c
  5447  0013C2  0E00               	movlw	0
  5448  0013C4  6E08               	movwf	___almod@divisor+3,c
  5449  0013C6  EC88  F010         	call	___almod	;wreg free
  5450  0013CA  C001  F015         	movff	?___almod,??_Conv_Entero
  5451  0013CE  C002  F016         	movff	?___almod+1,??_Conv_Entero+1
  5452  0013D2  C003  F017         	movff	?___almod+2,??_Conv_Entero+2
  5453  0013D6  C004  F018         	movff	?___almod+3,??_Conv_Entero+3
  5454  0013DA  C015  F02F         	movff	??_Conv_Entero,Conv_Entero@num
  5455  0013DE  C016  F030         	movff	??_Conv_Entero+1,Conv_Entero@num+1
  5456                           
  5457                           ;conversion.c: 32: *punteroActual = num + '0';
  5458  0013E2  502F               	movf	Conv_Entero@num,w,c
  5459  0013E4  0F30               	addlw	48
  5460  0013E6  C032  FFD9         	movff	Conv_Entero@punteroActual,fsr2l
  5461  0013EA  C033  FFDA         	movff	Conv_Entero@punteroActual+1,fsr2h
  5462  0013EE  6EDF               	movwf	indf2,c
  5463                           
  5464                           ;conversion.c: 33: } while(numeroReg /= 10);
  5465  0013F0  C034  F001         	movff	Conv_Entero@numeroReg,___aldiv@dividend
  5466  0013F4  C035  F002         	movff	Conv_Entero@numeroReg+1,___aldiv@dividend+1
  5467  0013F8  C036  F003         	movff	Conv_Entero@numeroReg+2,___aldiv@dividend+2
  5468  0013FC  C037  F004         	movff	Conv_Entero@numeroReg+3,___aldiv@dividend+3
  5469  001400  0E0A               	movlw	10
  5470  001402  6E05               	movwf	___aldiv@divisor,c
  5471  001404  0E00               	movlw	0
  5472  001406  6E06               	movwf	___aldiv@divisor+1,c
  5473  001408  0E00               	movlw	0
  5474  00140A  6E07               	movwf	___aldiv@divisor+2,c
  5475  00140C  0E00               	movlw	0
  5476  00140E  6E08               	movwf	___aldiv@divisor+3,c
  5477  001410  EC16  F00E         	call	___aldiv	;wreg free
  5478  001414  C001  F034         	movff	?___aldiv,Conv_Entero@numeroReg
  5479  001418  C002  F035         	movff	?___aldiv+1,Conv_Entero@numeroReg+1
  5480  00141C  C003  F036         	movff	?___aldiv+2,Conv_Entero@numeroReg+2
  5481  001420  C004  F037         	movff	?___aldiv+3,Conv_Entero@numeroReg+3
  5482  001424  5037               	movf	(Conv_Entero@numeroReg+3)& (0+255),w,c
  5483  001426  1034               	iorwf	Conv_Entero@numeroReg& (0+255),w,c
  5484  001428  1035               	iorwf	(Conv_Entero@numeroReg+1)& (0+255),w,c
  5485  00142A  1036               	iorwf	(Conv_Entero@numeroReg+2)& (0+255),w,c
  5486  00142C  A4D8               	btfss	status,2,c
  5487  00142E  D7B8               	goto	l3033
  5488                           
  5489                           ;conversion.c: 35: if ( numero < 0)
  5490  001430  5012               	movf	Conv_Entero@numero+3,w,c
  5491  001432  0A80               	xorlw	128
  5492  001434  0F80               	addlw	128
  5493  001436  E108               	bnz	u2375
  5494  001438  0E00               	movlw	0
  5495  00143A  5C11               	subwf	Conv_Entero@numero+2,w,c
  5496  00143C  E105               	bnz	u2375
  5497  00143E  0E00               	movlw	0
  5498  001440  5C10               	subwf	Conv_Entero@numero+1,w,c
  5499  001442  E102               	bnz	u2375
  5500  001444  0E00               	movlw	0
  5501  001446  5C0F               	subwf	Conv_Entero@numero,w,c
  5502  001448                     u2375:
  5503  001448  B0D8               	btfsc	status,0,c
  5504  00144A  D009               	goto	l3047
  5505                           
  5506                           ;conversion.c: 36: {
  5507                           ;conversion.c: 37: punteroActual--;
  5508  00144C  0632               	decf	Conv_Entero@punteroActual,f,c
  5509  00144E  A0D8               	btfss	status,0,c
  5510  001450  0633               	decf	Conv_Entero@punteroActual+1,f,c
  5511                           
  5512                           ;conversion.c: 38: *punteroActual = '-';
  5513  001452  C032  FFD9         	movff	Conv_Entero@punteroActual,fsr2l
  5514  001456  C033  FFDA         	movff	Conv_Entero@punteroActual+1,fsr2h
  5515  00145A  0E2D               	movlw	45
  5516  00145C  6EDF               	movwf	indf2,c
  5517  00145E                     l3047:
  5518                           
  5519                           ;conversion.c: 39: }
  5520                           ;conversion.c: 41: numeroReg=convTemp+21-punteroActual;
  5521  00145E  C032  F015         	movff	Conv_Entero@punteroActual,??_Conv_Entero
  5522  001462  C033  F016         	movff	Conv_Entero@punteroActual+1,??_Conv_Entero+1
  5523  001466  1E15               	comf	??_Conv_Entero,f,c
  5524  001468  1E16               	comf	??_Conv_Entero+1,f,c
  5525  00146A  4A15               	infsnz	??_Conv_Entero,f,c
  5526  00146C  2A16               	incf	??_Conv_Entero+1,f,c
  5527  00146E  0E15               	movlw	21
  5528  001470  2615               	addwf	??_Conv_Entero,f,c
  5529  001472  0E00               	movlw	0
  5530  001474  2216               	addwfc	??_Conv_Entero+1,f,c
  5531  001476  0E1A               	movlw	low Conv_Entero@convTemp
  5532  001478  6E17               	movwf	(??_Conv_Entero+2)& (0+255),c
  5533  00147A  0E00               	movlw	high Conv_Entero@convTemp
  5534  00147C  6E18               	movwf	(??_Conv_Entero+3)& (0+255),c
  5535  00147E  5015               	movf	??_Conv_Entero,w,c
  5536  001480  2617               	addwf	??_Conv_Entero+2,f,c
  5537  001482  5016               	movf	??_Conv_Entero+1,w,c
  5538  001484  2218               	addwfc	??_Conv_Entero+3,f,c
  5539  001486  C017  F034         	movff	??_Conv_Entero+2,Conv_Entero@numeroReg
  5540  00148A  C018  F035         	movff	??_Conv_Entero+3,Conv_Entero@numeroReg+1
  5541  00148E  0E00               	movlw	0
  5542  001490  BE35               	btfsc	Conv_Entero@numeroReg+1,7,c
  5543  001492  0EFF               	movlw	-1
  5544  001494  6E36               	movwf	Conv_Entero@numeroReg+2,c
  5545  001496  6E37               	movwf	Conv_Entero@numeroReg+3,c
  5546                           
  5547                           ;conversion.c: 42: for (i = 0; i< numeroReg; i++)
  5548  001498  0E00               	movlw	0
  5549  00149A  6E31               	movwf	Conv_Entero@i,c
  5550  00149C  D013               	goto	l3055
  5551  00149E                     l3051:
  5552                           
  5553                           ;conversion.c: 43: {
  5554                           ;conversion.c: 49: ((unsigned char *)conv)[i] = ((const unsigned char *)punteroActual)[i
      +                          ];
  5555  00149E  5031               	movf	Conv_Entero@i,w,c
  5556  0014A0  0D01               	mullw	1
  5557  0014A2  50F3               	movf	prodl,w,c
  5558  0014A4  2432               	addwf	Conv_Entero@punteroActual,w,c
  5559  0014A6  6ED9               	movwf	fsr2l,c
  5560  0014A8  50F4               	movf	prodh,w,c
  5561  0014AA  2033               	addwfc	Conv_Entero@punteroActual+1,w,c
  5562  0014AC  6EDA               	movwf	fsr2h,c
  5563  0014AE  5031               	movf	Conv_Entero@i,w,c
  5564  0014B0  0D01               	mullw	1
  5565  0014B2  50F3               	movf	prodl,w,c
  5566  0014B4  2413               	addwf	Conv_Entero@conv,w,c
  5567  0014B6  6EE1               	movwf	fsr1l,c
  5568  0014B8  50F4               	movf	prodh,w,c
  5569  0014BA  2014               	addwfc	Conv_Entero@conv+1,w,c
  5570  0014BC  6EE2               	movwf	fsr1h,c
  5571  0014BE  CFDF FFE7          	movff	indf2,indf1
  5572  0014C2  2A31               	incf	Conv_Entero@i,f,c
  5573  0014C4                     l3055:
  5574  0014C4  C031  F015         	movff	Conv_Entero@i,??_Conv_Entero
  5575  0014C8  6A16               	clrf	(??_Conv_Entero+1)& (0+255),c
  5576  0014CA  6A17               	clrf	(??_Conv_Entero+2)& (0+255),c
  5577  0014CC  6A18               	clrf	(??_Conv_Entero+3)& (0+255),c
  5578  0014CE  5018               	movf	??_Conv_Entero+3,w,c
  5579  0014D0  0A80               	xorlw	128
  5580  0014D2  6E19               	movwf	(??_Conv_Entero+4)& (0+255),c
  5581  0014D4  5034               	movf	Conv_Entero@numeroReg,w,c
  5582  0014D6  5C15               	subwf	??_Conv_Entero,w,c
  5583  0014D8  5035               	movf	Conv_Entero@numeroReg+1,w,c
  5584  0014DA  5816               	subwfb	??_Conv_Entero+1,w,c
  5585  0014DC  5036               	movf	Conv_Entero@numeroReg+2,w,c
  5586  0014DE  5817               	subwfb	??_Conv_Entero+2,w,c
  5587  0014E0  5037               	movf	Conv_Entero@numeroReg+3,w,c
  5588  0014E2  0A80               	xorlw	128
  5589  0014E4  5819               	subwfb	(??_Conv_Entero+4)& (0+255),w,c
  5590  0014E6  A0D8               	btfss	status,0,c
  5591  0014E8  D7DA               	goto	l3051
  5592                           
  5593                           ;conversion.c: 50: }
  5594                           ;conversion.c: 52: return numeroReg - 1;
  5595  0014EA  0EFF               	movlw	255
  5596  0014EC  2434               	addwf	Conv_Entero@numeroReg,w,c
  5597  0014EE  6E0F               	movwf	?_Conv_Entero,c
  5598  0014F0  0EFF               	movlw	255
  5599  0014F2  2035               	addwfc	Conv_Entero@numeroReg+1,w,c
  5600  0014F4  6E10               	movwf	?_Conv_Entero+1,c
  5601  0014F6  0012               	return	
  5602  0014F8                     __end_of_Conv_Entero:
  5603                           	opt stack 0
  5604                           tblptru	equ	0xFF8
  5605                           tblptrh	equ	0xFF7
  5606                           tblptrl	equ	0xFF6
  5607                           tablat	equ	0xFF5
  5608                           prodh	equ	0xFF4
  5609                           prodl	equ	0xFF3
  5610                           intcon2	equ	0xFF1
  5611                           postinc0	equ	0xFEE
  5612                           wreg	equ	0xFE8
  5613                           indf1	equ	0xFE7
  5614                           postinc1	equ	0xFE6
  5615                           postdec1	equ	0xFE5
  5616                           fsr1h	equ	0xFE2
  5617                           fsr1l	equ	0xFE1
  5618                           indf2	equ	0xFDF
  5619                           postinc2	equ	0xFDE
  5620                           postdec2	equ	0xFDD
  5621                           fsr2h	equ	0xFDA
  5622                           fsr2l	equ	0xFD9
  5623                           status	equ	0xFD8
  5624                           
  5625 ;; *************** function ___lmul *****************
  5626 ;; Defined at:
  5627 ;;		line 15 in file "/opt/microchip/xc8/v1.32/sources/common/Umul32.c"
  5628 ;; Parameters:    Size  Location     Type
  5629 ;;  multiplier      4    0[COMRAM] unsigned long 
  5630 ;;  multiplicand    4    4[COMRAM] unsigned long 
  5631 ;; Auto vars:     Size  Location     Type
  5632 ;;  product         4    8[COMRAM] unsigned long 
  5633 ;; Return value:  Size  Location     Type
  5634 ;;                  4    0[COMRAM] unsigned long 
  5635 ;; Registers used:
  5636 ;;		wreg, status,2, status,0
  5637 ;; Tracked objects:
  5638 ;;		On entry : 0/0
  5639 ;;		On exit  : 0/0
  5640 ;;		Unchanged: 0/0
  5641 ;; Data sizes:     COMRAM   BANK0   BANK1   BANK2   BANK3   BANK4   BANK5   BANK6   BANK7
  5642 ;;      Params:         8       0       0       0       0       0       0       0       0
  5643 ;;      Locals:         4       0       0       0       0       0       0       0       0
  5644 ;;      Temps:          0       0       0       0       0       0       0       0       0
  5645 ;;      Totals:        12       0       0       0       0       0       0       0       0
  5646 ;;Total ram usage:       12 bytes
  5647 ;; Hardware stack levels used:    1
  5648 ;; This function calls:
  5649 ;;		Nothing
  5650 ;; This function is called by:
  5651 ;;		_PWM_generar
  5652 ;;		_Conv_Entero
  5653 ;; This function uses a non-reentrant model
  5654 ;;
  5655                           
  5656                           	psect	text19
  5657  002752                     __ptext19:
  5658                           	opt stack 0
  5659  002752                     ___lmul:
  5660                           	opt stack 29
  5661                           
  5662                           ;incstack = 0
  5663  002752  0E00               	movlw	0
  5664  002754  6E09               	movwf	___lmul@product,c
  5665  002756  0E00               	movlw	0
  5666  002758  6E0A               	movwf	___lmul@product+1,c
  5667  00275A  0E00               	movlw	0
  5668  00275C  6E0B               	movwf	___lmul@product+2,c
  5669  00275E  0E00               	movlw	0
  5670  002760  6E0C               	movwf	___lmul@product+3,c
  5671  002762                     l2777:
  5672  002762  A001               	btfss	___lmul@multiplier,0,c
  5673  002764  D008               	goto	l2781
  5674  002766  5005               	movf	___lmul@multiplicand,w,c
  5675  002768  2609               	addwf	___lmul@product,f,c
  5676  00276A  5006               	movf	___lmul@multiplicand+1,w,c
  5677  00276C  220A               	addwfc	___lmul@product+1,f,c
  5678  00276E  5007               	movf	___lmul@multiplicand+2,w,c
  5679  002770  220B               	addwfc	___lmul@product+2,f,c
  5680  002772  5008               	movf	___lmul@multiplicand+3,w,c
  5681  002774  220C               	addwfc	___lmul@product+3,f,c
  5682  002776                     l2781:
  5683  002776  90D8               	bcf	status,0,c
  5684  002778  3605               	rlcf	___lmul@multiplicand,f,c
  5685  00277A  3606               	rlcf	___lmul@multiplicand+1,f,c
  5686  00277C  3607               	rlcf	___lmul@multiplicand+2,f,c
  5687  00277E  3608               	rlcf	___lmul@multiplicand+3,f,c
  5688  002780  90D8               	bcf	status,0,c
  5689  002782  3204               	rrcf	___lmul@multiplier+3,f,c
  5690  002784  3203               	rrcf	___lmul@multiplier+2,f,c
  5691  002786  3202               	rrcf	___lmul@multiplier+1,f,c
  5692  002788  3201               	rrcf	___lmul@multiplier,f,c
  5693  00278A  5004               	movf	___lmul@multiplier+3,w,c
  5694  00278C  1001               	iorwf	___lmul@multiplier,w,c
  5695  00278E  1002               	iorwf	___lmul@multiplier+1,w,c
  5696  002790  1003               	iorwf	___lmul@multiplier+2,w,c
  5697  002792  A4D8               	btfss	status,2,c
  5698  002794  D7E6               	goto	l2777
  5699  002796  C009  F001         	movff	___lmul@product,?___lmul
  5700  00279A  C00A  F002         	movff	___lmul@product+1,?___lmul+1
  5701  00279E  C00B  F003         	movff	___lmul@product+2,?___lmul+2
  5702  0027A2  C00C  F004         	movff	___lmul@product+3,?___lmul+3
  5703  0027A6  0012               	return	
  5704  0027A8                     __end_of___lmul:
  5705                           	opt stack 0
  5706                           tblptru	equ	0xFF8
  5707                           tblptrh	equ	0xFF7
  5708                           tblptrl	equ	0xFF6
  5709                           tablat	equ	0xFF5
  5710                           prodh	equ	0xFF4
  5711                           prodl	equ	0xFF3
  5712                           intcon2	equ	0xFF1
  5713                           postinc0	equ	0xFEE
  5714                           wreg	equ	0xFE8
  5715                           indf1	equ	0xFE7
  5716                           postinc1	equ	0xFE6
  5717                           postdec1	equ	0xFE5
  5718                           fsr1h	equ	0xFE2
  5719                           fsr1l	equ	0xFE1
  5720                           indf2	equ	0xFDF
  5721                           postinc2	equ	0xFDE
  5722                           postdec2	equ	0xFDD
  5723                           fsr2h	equ	0xFDA
  5724                           fsr2l	equ	0xFD9
  5725                           status	equ	0xFD8
  5726                           
  5727 ;; *************** function ___almod *****************
  5728 ;; Defined at:
  5729 ;;		line 8 in file "/opt/microchip/xc8/v1.32/sources/common/almod.c"
  5730 ;; Parameters:    Size  Location     Type
  5731 ;;  dividend        4    0[COMRAM] long 
  5732 ;;  divisor         4    4[COMRAM] long 
  5733 ;; Auto vars:     Size  Location     Type
  5734 ;;  sign            1    9[COMRAM] unsigned char 
  5735 ;;  counter         1    8[COMRAM] unsigned char 
  5736 ;; Return value:  Size  Location     Type
  5737 ;;                  4    0[COMRAM] long 
  5738 ;; Registers used:
  5739 ;;		wreg, status,2, status,0
  5740 ;; Tracked objects:
  5741 ;;		On entry : 0/0
  5742 ;;		On exit  : 0/0
  5743 ;;		Unchanged: 0/0
  5744 ;; Data sizes:     COMRAM   BANK0   BANK1   BANK2   BANK3   BANK4   BANK5   BANK6   BANK7
  5745 ;;      Params:         8       0       0       0       0       0       0       0       0
  5746 ;;      Locals:         2       0       0       0       0       0       0       0       0
  5747 ;;      Temps:          0       0       0       0       0       0       0       0       0
  5748 ;;      Totals:        10       0       0       0       0       0       0       0       0
  5749 ;;Total ram usage:       10 bytes
  5750 ;; Hardware stack levels used:    1
  5751 ;; This function calls:
  5752 ;;		Nothing
  5753 ;; This function is called by:
  5754 ;;		_Conv_Entero
  5755 ;; This function uses a non-reentrant model
  5756 ;;
  5757                           
  5758                           	psect	text20
  5759  002110                     __ptext20:
  5760                           	opt stack 0
  5761  002110                     ___almod:
  5762                           	opt stack 29
  5763                           
  5764                           ;incstack = 0
  5765  002110  0E00               	movlw	0
  5766  002112  6E0A               	movwf	___almod@sign,c
  5767  002114  5004               	movf	___almod@dividend+3,w,c
  5768  002116  0A80               	xorlw	128
  5769  002118  0F80               	addlw	128
  5770  00211A  E108               	bnz	u2115
  5771  00211C  0E00               	movlw	0
  5772  00211E  5C03               	subwf	___almod@dividend+2,w,c
  5773  002120  E105               	bnz	u2115
  5774  002122  0E00               	movlw	0
  5775  002124  5C02               	subwf	___almod@dividend+1,w,c
  5776  002126  E102               	bnz	u2115
  5777  002128  0E00               	movlw	0
  5778  00212A  5C01               	subwf	___almod@dividend,w,c
  5779  00212C                     u2115:
  5780  00212C  B0D8               	btfsc	status,0,c
  5781  00212E  D00A               	goto	l2837
  5782  002130  1E04               	comf	___almod@dividend+3,f,c
  5783  002132  1E03               	comf	___almod@dividend+2,f,c
  5784  002134  1E02               	comf	___almod@dividend+1,f,c
  5785  002136  6C01               	negf	___almod@dividend,c
  5786  002138  0E00               	movlw	0
  5787  00213A  2202               	addwfc	___almod@dividend+1,f,c
  5788  00213C  2203               	addwfc	___almod@dividend+2,f,c
  5789  00213E  2204               	addwfc	___almod@dividend+3,f,c
  5790  002140  0E01               	movlw	1
  5791  002142  6E0A               	movwf	___almod@sign,c
  5792  002144                     l2837:
  5793  002144  5008               	movf	___almod@divisor+3,w,c
  5794  002146  0A80               	xorlw	128
  5795  002148  0F80               	addlw	128
  5796  00214A  E108               	bnz	u2125
  5797  00214C  0E00               	movlw	0
  5798  00214E  5C07               	subwf	___almod@divisor+2,w,c
  5799  002150  E105               	bnz	u2125
  5800  002152  0E00               	movlw	0
  5801  002154  5C06               	subwf	___almod@divisor+1,w,c
  5802  002156  E102               	bnz	u2125
  5803  002158  0E00               	movlw	0
  5804  00215A  5C05               	subwf	___almod@divisor,w,c
  5805  00215C                     u2125:
  5806  00215C  B0D8               	btfsc	status,0,c
  5807  00215E  D008               	goto	l2841
  5808  002160  1E08               	comf	___almod@divisor+3,f,c
  5809  002162  1E07               	comf	___almod@divisor+2,f,c
  5810  002164  1E06               	comf	___almod@divisor+1,f,c
  5811  002166  6C05               	negf	___almod@divisor,c
  5812  002168  0E00               	movlw	0
  5813  00216A  2206               	addwfc	___almod@divisor+1,f,c
  5814  00216C  2207               	addwfc	___almod@divisor+2,f,c
  5815  00216E  2208               	addwfc	___almod@divisor+3,f,c
  5816  002170                     l2841:
  5817  002170  5008               	movf	___almod@divisor+3,w,c
  5818  002172  1005               	iorwf	___almod@divisor,w,c
  5819  002174  1006               	iorwf	___almod@divisor+1,w,c
  5820  002176  1007               	iorwf	___almod@divisor+2,w,c
  5821  002178  B4D8               	btfsc	status,2,c
  5822  00217A  D024               	goto	l2857
  5823  00217C  0E01               	movlw	1
  5824  00217E  6E09               	movwf	___almod@counter,c
  5825  002180  D006               	goto	l2847
  5826  002182                     l2845:
  5827  002182  90D8               	bcf	status,0,c
  5828  002184  3605               	rlcf	___almod@divisor,f,c
  5829  002186  3606               	rlcf	___almod@divisor+1,f,c
  5830  002188  3607               	rlcf	___almod@divisor+2,f,c
  5831  00218A  3608               	rlcf	___almod@divisor+3,f,c
  5832  00218C  2A09               	incf	___almod@counter,f,c
  5833  00218E                     l2847:
  5834  00218E  AE08               	btfss	___almod@divisor+3,7,c
  5835  002190  D7F8               	goto	l2845
  5836  002192                     l2849:
  5837  002192  5005               	movf	___almod@divisor,w,c
  5838  002194  5C01               	subwf	___almod@dividend,w,c
  5839  002196  5006               	movf	___almod@divisor+1,w,c
  5840  002198  5802               	subwfb	___almod@dividend+1,w,c
  5841  00219A  5007               	movf	___almod@divisor+2,w,c
  5842  00219C  5803               	subwfb	___almod@dividend+2,w,c
  5843  00219E  5008               	movf	___almod@divisor+3,w,c
  5844  0021A0  5804               	subwfb	___almod@dividend+3,w,c
  5845  0021A2  A0D8               	btfss	status,0,c
  5846  0021A4  D008               	goto	l2853
  5847  0021A6  5005               	movf	___almod@divisor,w,c
  5848  0021A8  5E01               	subwf	___almod@dividend,f,c
  5849  0021AA  5006               	movf	___almod@divisor+1,w,c
  5850  0021AC  5A02               	subwfb	___almod@dividend+1,f,c
  5851  0021AE  5007               	movf	___almod@divisor+2,w,c
  5852  0021B0  5A03               	subwfb	___almod@dividend+2,f,c
  5853  0021B2  5008               	movf	___almod@divisor+3,w,c
  5854  0021B4  5A04               	subwfb	___almod@dividend+3,f,c
  5855  0021B6                     l2853:
  5856  0021B6  90D8               	bcf	status,0,c
  5857  0021B8  3208               	rrcf	___almod@divisor+3,f,c
  5858  0021BA  3207               	rrcf	___almod@divisor+2,f,c
  5859  0021BC  3206               	rrcf	___almod@divisor+1,f,c
  5860  0021BE  3205               	rrcf	___almod@divisor,f,c
  5861  0021C0  2E09               	decfsz	___almod@counter,f,c
  5862  0021C2  D7E7               	goto	l2849
  5863  0021C4                     l2857:
  5864  0021C4  500A               	movf	___almod@sign,w,c
  5865  0021C6  B4D8               	btfsc	status,2,c
  5866  0021C8  D008               	goto	l2861
  5867  0021CA  1E04               	comf	___almod@dividend+3,f,c
  5868  0021CC  1E03               	comf	___almod@dividend+2,f,c
  5869  0021CE  1E02               	comf	___almod@dividend+1,f,c
  5870  0021D0  6C01               	negf	___almod@dividend,c
  5871  0021D2  0E00               	movlw	0
  5872  0021D4  2202               	addwfc	___almod@dividend+1,f,c
  5873  0021D6  2203               	addwfc	___almod@dividend+2,f,c
  5874  0021D8  2204               	addwfc	___almod@dividend+3,f,c
  5875  0021DA                     l2861:
  5876  0021DA  C001  F001         	movff	___almod@dividend,?___almod
  5877  0021DE  C002  F002         	movff	___almod@dividend+1,?___almod+1
  5878  0021E2  C003  F003         	movff	___almod@dividend+2,?___almod+2
  5879  0021E6  C004  F004         	movff	___almod@dividend+3,?___almod+3
  5880  0021EA  0012               	return	
  5881  0021EC                     __end_of___almod:
  5882                           	opt stack 0
  5883                           tblptru	equ	0xFF8
  5884                           tblptrh	equ	0xFF7
  5885                           tblptrl	equ	0xFF6
  5886                           tablat	equ	0xFF5
  5887                           prodh	equ	0xFF4
  5888                           prodl	equ	0xFF3
  5889                           intcon2	equ	0xFF1
  5890                           postinc0	equ	0xFEE
  5891                           wreg	equ	0xFE8
  5892                           indf1	equ	0xFE7
  5893                           postinc1	equ	0xFE6
  5894                           postdec1	equ	0xFE5
  5895                           fsr1h	equ	0xFE2
  5896                           fsr1l	equ	0xFE1
  5897                           indf2	equ	0xFDF
  5898                           postinc2	equ	0xFDE
  5899                           postdec2	equ	0xFDD
  5900                           fsr2h	equ	0xFDA
  5901                           fsr2l	equ	0xFD9
  5902                           status	equ	0xFD8
  5903                           
  5904 ;; *************** function ___aldiv *****************
  5905 ;; Defined at:
  5906 ;;		line 8 in file "/opt/microchip/xc8/v1.32/sources/common/aldiv.c"
  5907 ;; Parameters:    Size  Location     Type
  5908 ;;  dividend        4    0[COMRAM] long 
  5909 ;;  divisor         4    4[COMRAM] long 
  5910 ;; Auto vars:     Size  Location     Type
  5911 ;;  quotient        4   10[COMRAM] long 
  5912 ;;  sign            1    9[COMRAM] unsigned char 
  5913 ;;  counter         1    8[COMRAM] unsigned char 
  5914 ;; Return value:  Size  Location     Type
  5915 ;;                  4    0[COMRAM] long 
  5916 ;; Registers used:
  5917 ;;		wreg, status,2, status,0
  5918 ;; Tracked objects:
  5919 ;;		On entry : 0/0
  5920 ;;		On exit  : 0/0
  5921 ;;		Unchanged: 0/0
  5922 ;; Data sizes:     COMRAM   BANK0   BANK1   BANK2   BANK3   BANK4   BANK5   BANK6   BANK7
  5923 ;;      Params:         8       0       0       0       0       0       0       0       0
  5924 ;;      Locals:         6       0       0       0       0       0       0       0       0
  5925 ;;      Temps:          0       0       0       0       0       0       0       0       0
  5926 ;;      Totals:        14       0       0       0       0       0       0       0       0
  5927 ;;Total ram usage:       14 bytes
  5928 ;; Hardware stack levels used:    1
  5929 ;; This function calls:
  5930 ;;		Nothing
  5931 ;; This function is called by:
  5932 ;;		_Conv_Entero
  5933 ;; This function uses a non-reentrant model
  5934 ;;
  5935                           
  5936                           	psect	text21
  5937  001C2C                     __ptext21:
  5938                           	opt stack 0
  5939  001C2C                     ___aldiv:
  5940                           	opt stack 29
  5941                           
  5942                           ;incstack = 0
  5943  001C2C  0E00               	movlw	0
  5944  001C2E  6E0A               	movwf	___aldiv@sign,c
  5945  001C30  5008               	movf	___aldiv@divisor+3,w,c
  5946  001C32  0A80               	xorlw	128
  5947  001C34  0F80               	addlw	128
  5948  001C36  E108               	bnz	u2055
  5949  001C38  0E00               	movlw	0
  5950  001C3A  5C07               	subwf	___aldiv@divisor+2,w,c
  5951  001C3C  E105               	bnz	u2055
  5952  001C3E  0E00               	movlw	0
  5953  001C40  5C06               	subwf	___aldiv@divisor+1,w,c
  5954  001C42  E102               	bnz	u2055
  5955  001C44  0E00               	movlw	0
  5956  001C46  5C05               	subwf	___aldiv@divisor,w,c
  5957  001C48                     u2055:
  5958  001C48  B0D8               	btfsc	status,0,c
  5959  001C4A  D00A               	goto	l2793
  5960  001C4C  1E08               	comf	___aldiv@divisor+3,f,c
  5961  001C4E  1E07               	comf	___aldiv@divisor+2,f,c
  5962  001C50  1E06               	comf	___aldiv@divisor+1,f,c
  5963  001C52  6C05               	negf	___aldiv@divisor,c
  5964  001C54  0E00               	movlw	0
  5965  001C56  2206               	addwfc	___aldiv@divisor+1,f,c
  5966  001C58  2207               	addwfc	___aldiv@divisor+2,f,c
  5967  001C5A  2208               	addwfc	___aldiv@divisor+3,f,c
  5968  001C5C  0E01               	movlw	1
  5969  001C5E  6E0A               	movwf	___aldiv@sign,c
  5970  001C60                     l2793:
  5971  001C60  5004               	movf	___aldiv@dividend+3,w,c
  5972  001C62  0A80               	xorlw	128
  5973  001C64  0F80               	addlw	128
  5974  001C66  E108               	bnz	u2065
  5975  001C68  0E00               	movlw	0
  5976  001C6A  5C03               	subwf	___aldiv@dividend+2,w,c
  5977  001C6C  E105               	bnz	u2065
  5978  001C6E  0E00               	movlw	0
  5979  001C70  5C02               	subwf	___aldiv@dividend+1,w,c
  5980  001C72  E102               	bnz	u2065
  5981  001C74  0E00               	movlw	0
  5982  001C76  5C01               	subwf	___aldiv@dividend,w,c
  5983  001C78                     u2065:
  5984  001C78  B0D8               	btfsc	status,0,c
  5985  001C7A  D00A               	goto	l2799
  5986  001C7C  1E04               	comf	___aldiv@dividend+3,f,c
  5987  001C7E  1E03               	comf	___aldiv@dividend+2,f,c
  5988  001C80  1E02               	comf	___aldiv@dividend+1,f,c
  5989  001C82  6C01               	negf	___aldiv@dividend,c
  5990  001C84  0E00               	movlw	0
  5991  001C86  2202               	addwfc	___aldiv@dividend+1,f,c
  5992  001C88  2203               	addwfc	___aldiv@dividend+2,f,c
  5993  001C8A  2204               	addwfc	___aldiv@dividend+3,f,c
  5994  001C8C  0E01               	movlw	1
  5995  001C8E  1A0A               	xorwf	___aldiv@sign,f,c
  5996  001C90                     l2799:
  5997  001C90  0E00               	movlw	0
  5998  001C92  6E0B               	movwf	___aldiv@quotient,c
  5999  001C94  0E00               	movlw	0
  6000  001C96  6E0C               	movwf	___aldiv@quotient+1,c
  6001  001C98  0E00               	movlw	0
  6002  001C9A  6E0D               	movwf	___aldiv@quotient+2,c
  6003  001C9C  0E00               	movlw	0
  6004  001C9E  6E0E               	movwf	___aldiv@quotient+3,c
  6005  001CA0  5008               	movf	___aldiv@divisor+3,w,c
  6006  001CA2  1005               	iorwf	___aldiv@divisor,w,c
  6007  001CA4  1006               	iorwf	___aldiv@divisor+1,w,c
  6008  001CA6  1007               	iorwf	___aldiv@divisor+2,w,c
  6009  001CA8  B4D8               	btfsc	status,2,c
  6010  001CAA  D02A               	goto	l2821
  6011  001CAC  0E01               	movlw	1
  6012  001CAE  6E09               	movwf	___aldiv@counter,c
  6013  001CB0  D006               	goto	l2807
  6014  001CB2                     l2805:
  6015  001CB2  90D8               	bcf	status,0,c
  6016  001CB4  3605               	rlcf	___aldiv@divisor,f,c
  6017  001CB6  3606               	rlcf	___aldiv@divisor+1,f,c
  6018  001CB8  3607               	rlcf	___aldiv@divisor+2,f,c
  6019  001CBA  3608               	rlcf	___aldiv@divisor+3,f,c
  6020  001CBC  2A09               	incf	___aldiv@counter,f,c
  6021  001CBE                     l2807:
  6022  001CBE  AE08               	btfss	___aldiv@divisor+3,7,c
  6023  001CC0  D7F8               	goto	l2805
  6024  001CC2                     l2809:
  6025  001CC2  90D8               	bcf	status,0,c
  6026  001CC4  360B               	rlcf	___aldiv@quotient,f,c
  6027  001CC6  360C               	rlcf	___aldiv@quotient+1,f,c
  6028  001CC8  360D               	rlcf	___aldiv@quotient+2,f,c
  6029  001CCA  360E               	rlcf	___aldiv@quotient+3,f,c
  6030  001CCC  5005               	movf	___aldiv@divisor,w,c
  6031  001CCE  5C01               	subwf	___aldiv@dividend,w,c
  6032  001CD0  5006               	movf	___aldiv@divisor+1,w,c
  6033  001CD2  5802               	subwfb	___aldiv@dividend+1,w,c
  6034  001CD4  5007               	movf	___aldiv@divisor+2,w,c
  6035  001CD6  5803               	subwfb	___aldiv@dividend+2,w,c
  6036  001CD8  5008               	movf	___aldiv@divisor+3,w,c
  6037  001CDA  5804               	subwfb	___aldiv@dividend+3,w,c
  6038  001CDC  A0D8               	btfss	status,0,c
  6039  001CDE  D009               	goto	l2817
  6040  001CE0  5005               	movf	___aldiv@divisor,w,c
  6041  001CE2  5E01               	subwf	___aldiv@dividend,f,c
  6042  001CE4  5006               	movf	___aldiv@divisor+1,w,c
  6043  001CE6  5A02               	subwfb	___aldiv@dividend+1,f,c
  6044  001CE8  5007               	movf	___aldiv@divisor+2,w,c
  6045  001CEA  5A03               	subwfb	___aldiv@dividend+2,f,c
  6046  001CEC  5008               	movf	___aldiv@divisor+3,w,c
  6047  001CEE  5A04               	subwfb	___aldiv@dividend+3,f,c
  6048  001CF0  800B               	bsf	___aldiv@quotient,0,c
  6049  001CF2                     l2817:
  6050  001CF2  90D8               	bcf	status,0,c
  6051  001CF4  3208               	rrcf	___aldiv@divisor+3,f,c
  6052  001CF6  3207               	rrcf	___aldiv@divisor+2,f,c
  6053  001CF8  3206               	rrcf	___aldiv@divisor+1,f,c
  6054  001CFA  3205               	rrcf	___aldiv@divisor,f,c
  6055  001CFC  2E09               	decfsz	___aldiv@counter,f,c
  6056  001CFE  D7E1               	goto	l2809
  6057  001D00                     l2821:
  6058  001D00  500A               	movf	___aldiv@sign,w,c
  6059  001D02  B4D8               	btfsc	status,2,c
  6060  001D04  D008               	goto	l2825
  6061  001D06  1E0E               	comf	___aldiv@quotient+3,f,c
  6062  001D08  1E0D               	comf	___aldiv@quotient+2,f,c
  6063  001D0A  1E0C               	comf	___aldiv@quotient+1,f,c
  6064  001D0C  6C0B               	negf	___aldiv@quotient,c
  6065  001D0E  0E00               	movlw	0
  6066  001D10  220C               	addwfc	___aldiv@quotient+1,f,c
  6067  001D12  220D               	addwfc	___aldiv@quotient+2,f,c
  6068  001D14  220E               	addwfc	___aldiv@quotient+3,f,c
  6069  001D16                     l2825:
  6070  001D16  C00B  F001         	movff	___aldiv@quotient,?___aldiv
  6071  001D1A  C00C  F002         	movff	___aldiv@quotient+1,?___aldiv+1
  6072  001D1E  C00D  F003         	movff	___aldiv@quotient+2,?___aldiv+2
  6073  001D22  C00E  F004         	movff	___aldiv@quotient+3,?___aldiv+3
  6074  001D26  0012               	return	
  6075  001D28                     __end_of___aldiv:
  6076                           	opt stack 0
  6077                           tblptru	equ	0xFF8
  6078                           tblptrh	equ	0xFF7
  6079                           tblptrl	equ	0xFF6
  6080                           tablat	equ	0xFF5
  6081                           prodh	equ	0xFF4
  6082                           prodl	equ	0xFF3
  6083                           intcon2	equ	0xFF1
  6084                           postinc0	equ	0xFEE
  6085                           wreg	equ	0xFE8
  6086                           indf1	equ	0xFE7
  6087                           postinc1	equ	0xFE6
  6088                           postdec1	equ	0xFE5
  6089                           fsr1h	equ	0xFE2
  6090                           fsr1l	equ	0xFE1
  6091                           indf2	equ	0xFDF
  6092                           postinc2	equ	0xFDE
  6093                           postdec2	equ	0xFDD
  6094                           fsr2h	equ	0xFDA
  6095                           fsr2l	equ	0xFD9
  6096                           status	equ	0xFD8
  6097                           
  6098 ;; *************** function _Ciclo *****************
  6099 ;; Defined at:
  6100 ;;		line 76 in file "Funciones.h"
  6101 ;; Parameters:    Size  Location     Type
  6102 ;;  ciclo           2   20[COMRAM] PTR unsigned char 
  6103 ;;		 -> ciclo(10), 
  6104 ;; Auto vars:     Size  Location     Type
  6105 ;;		None
  6106 ;; Return value:  Size  Location     Type
  6107 ;;		None               void
  6108 ;; Registers used:
  6109 ;;		wreg, fsr0l, fsr0h, fsr2l, fsr2h, status,2, status,0, tblptrl, tblptrh, tblptru, cstack
  6110 ;; Tracked objects:
  6111 ;;		On entry : 0/0
  6112 ;;		On exit  : 0/0
  6113 ;;		Unchanged: 0/0
  6114 ;; Data sizes:     COMRAM   BANK0   BANK1   BANK2   BANK3   BANK4   BANK5   BANK6   BANK7
  6115 ;;      Params:         2       0       0       0       0       0       0       0       0
  6116 ;;      Locals:         0       0       0       0       0       0       0       0       0
  6117 ;;      Temps:          0       0       0       0       0       0       0       0       0
  6118 ;;      Totals:         2       0       0       0       0       0       0       0       0
  6119 ;;Total ram usage:        2 bytes
  6120 ;; Hardware stack levels used:    1
  6121 ;; Hardware stack levels required when called:    3
  6122 ;; This function calls:
  6123 ;;		_Lcd_Cmd
  6124 ;;		_Lcd_Init
  6125 ;;		_Lcd_Out2
  6126 ;;		_Tec
  6127 ;; This function is called by:
  6128 ;;		_main
  6129 ;;		_Prueba1
  6130 ;; This function uses a non-reentrant model
  6131 ;;
  6132                           
  6133                           	psect	text22
  6134  002862                     __ptext22:
  6135                           	opt stack 0
  6136  002862                     _Ciclo:
  6137                           	opt stack 27
  6138                           
  6139                           ;Funciones.h: 77: Lcd_Init();
  6140                           
  6141                           ;incstack = 0
  6142  002862  EC5C  F00C         	call	_Lcd_Init	;wreg free
  6143                           
  6144                           ;Funciones.h: 78: Lcd_Cmd(1);
  6145  002866  0E01               	movlw	1
  6146  002868  EC83  F00D         	call	_Lcd_Cmd
  6147                           
  6148                           ;Funciones.h: 79: Lcd_Cmd(12);
  6149  00286C  0E0C               	movlw	12
  6150  00286E  EC83  F00D         	call	_Lcd_Cmd
  6151                           
  6152                           ;Funciones.h: 80: Lcd_Out2(1,1,"Ingrese ciclo");
  6153  002872  0E01               	movlw	1
  6154  002874  6E04               	movwf	Lcd_Out2@x,c
  6155  002876  0E08               	movlw	high STR_11
  6156  002878  6E06               	movwf	Lcd_Out2@buffer+1,c
  6157  00287A  0E2E               	movlw	low STR_11
  6158  00287C  6E05               	movwf	Lcd_Out2@buffer,c
  6159  00287E  0E01               	movlw	1
  6160  002880  ECFA  F011         	call	_Lcd_Out2
  6161                           
  6162                           ;Funciones.h: 81: Tec(ciclo);
  6163  002884  C016  F00C         	movff	Ciclo@ciclo+1,Tec@cadena+1
  6164  002888  C015  F00B         	movff	Ciclo@ciclo,Tec@cadena
  6165  00288C  ECF0  F00C         	call	_Tec	;wreg free
  6166  002890  0012               	return	
  6167  002892                     __end_of_Ciclo:
  6168                           	opt stack 0
  6169                           tblptru	equ	0xFF8
  6170                           tblptrh	equ	0xFF7
  6171                           tblptrl	equ	0xFF6
  6172                           tablat	equ	0xFF5
  6173                           prodh	equ	0xFF4
  6174                           prodl	equ	0xFF3
  6175                           intcon2	equ	0xFF1
  6176                           postinc0	equ	0xFEE
  6177                           wreg	equ	0xFE8
  6178                           indf1	equ	0xFE7
  6179                           postinc1	equ	0xFE6
  6180                           postdec1	equ	0xFE5
  6181                           fsr1h	equ	0xFE2
  6182                           fsr1l	equ	0xFE1
  6183                           indf2	equ	0xFDF
  6184                           postinc2	equ	0xFDE
  6185                           postdec2	equ	0xFDD
  6186                           fsr2h	equ	0xFDA
  6187                           fsr2l	equ	0xFD9
  6188                           status	equ	0xFD8
  6189                           
  6190 ;; *************** function _Tec *****************
  6191 ;; Defined at:
  6192 ;;		line 83 in file "Funciones.h"
  6193 ;; Parameters:    Size  Location     Type
  6194 ;;  cadena          2   10[COMRAM] PTR unsigned char 
  6195 ;;		 -> ciclo(10), frecuencia(10), 
  6196 ;; Auto vars:     Size  Location     Type
  6197 ;;  j               2   17[COMRAM] unsigned int 
  6198 ;;  contador        2   15[COMRAM] unsigned int 
  6199 ;;  i               2   12[COMRAM] unsigned int 
  6200 ;;  Key             1   19[COMRAM] unsigned char 
  6201 ;;  aux             1   14[COMRAM] unsigned char 
  6202 ;; Return value:  Size  Location     Type
  6203 ;;		None               void
  6204 ;; Registers used:
  6205 ;;		wreg, fsr2l, fsr2h, status,2, status,0, cstack
  6206 ;; Tracked objects:
  6207 ;;		On entry : 0/0
  6208 ;;		On exit  : 0/0
  6209 ;;		Unchanged: 0/0
  6210 ;; Data sizes:     COMRAM   BANK0   BANK1   BANK2   BANK3   BANK4   BANK5   BANK6   BANK7
  6211 ;;      Params:         2       0       0       0       0       0       0       0       0
  6212 ;;      Locals:         8       0       0       0       0       0       0       0       0
  6213 ;;      Temps:          0       0       0       0       0       0       0       0       0
  6214 ;;      Totals:        10       0       0       0       0       0       0       0       0
  6215 ;;Total ram usage:       10 bytes
  6216 ;; Hardware stack levels used:    1
  6217 ;; Hardware stack levels required when called:    2
  6218 ;; This function calls:
  6219 ;;		_Lcd_Chr_CP
  6220 ;;		_Recuperar
  6221 ;;		_lcd_goto
  6222 ;; This function is called by:
  6223 ;;		_Frecuencia
  6224 ;;		_Ciclo
  6225 ;; This function uses a non-reentrant model
  6226 ;;
  6227                           
  6228                           	psect	text23
  6229  0019E0                     __ptext23:
  6230                           	opt stack 0
  6231  0019E0                     _Tec:
  6232                           	opt stack 27
  6233                           
  6234                           ;Funciones.h: 85: unsigned char Key = '+' , aux;
  6235                           
  6236                           ;incstack = 0
  6237  0019E0  0E2B               	movlw	43
  6238  0019E2  6E14               	movwf	Tec@Key,c
  6239                           
  6240                           ;Funciones.h: 86: unsigned int i=0 , j=0, contador = 1;
  6241  0019E4  0E00               	movlw	0
  6242  0019E6  6E0E               	movwf	Tec@i+1,c
  6243  0019E8  0E00               	movlw	0
  6244  0019EA  6E0D               	movwf	Tec@i,c
  6245  0019EC  0E00               	movlw	0
  6246  0019EE  6E13               	movwf	Tec@j+1,c
  6247  0019F0  0E00               	movlw	0
  6248  0019F2  6E12               	movwf	Tec@j,c
  6249  0019F4  0E00               	movlw	0
  6250  0019F6  6E11               	movwf	Tec@contador+1,c
  6251  0019F8  0E01               	movlw	1
  6252  0019FA  6E10               	movwf	Tec@contador,c
  6253                           
  6254                           ;Funciones.h: 88: lcd_goto(contador,2);
  6255  0019FC  C010  F004         	movff	Tec@contador,lcd_goto@x
  6256  001A00  C011  F005         	movff	Tec@contador+1,lcd_goto@x+1
  6257  001A04  0E00               	movlw	0
  6258  001A06  6E07               	movwf	lcd_goto@y+1,c
  6259  001A08  0E02               	movlw	2
  6260  001A0A  6E06               	movwf	lcd_goto@y,c
  6261  001A0C  ECD4  F013         	call	_lcd_goto	;wreg free
  6262  001A10                     l2715:
  6263                           
  6264                           ;Funciones.h: 92: Key = Recuperar();
  6265  001A10  EC6C  F014         	call	_Recuperar	;wreg free
  6266  001A14  6E14               	movwf	Tec@Key,c
  6267                           
  6268                           ;Funciones.h: 93: if( Key == ' ')continue;
  6269  001A16  5014               	movf	Tec@Key,w,c
  6270  001A18  0A20               	xorlw	32
  6271  001A1A  B4D8               	btfsc	status,2,c
  6272  001A1C  D7F9               	goto	l2715
  6273                           
  6274                           ;Funciones.h: 94: if( Key == '*')break;
  6275  001A1E  5014               	movf	Tec@Key,w,c
  6276  001A20  0A2A               	xorlw	42
  6277  001A22  B4D8               	btfsc	status,2,c
  6278  001A24  D067               	goto	l2767
  6279                           
  6280                           ;Funciones.h: 95: if(Key == 'B') {
  6281  001A26  5014               	movf	Tec@Key,w,c
  6282  001A28  0A42               	xorlw	66
  6283  001A2A  A4D8               	btfss	status,2,c
  6284  001A2C  D017               	goto	l2733
  6285                           
  6286                           ;Funciones.h: 96: lcd_goto(--contador,2);
  6287  001A2E  0610               	decf	Tec@contador,f,c
  6288  001A30  A0D8               	btfss	status,0,c
  6289  001A32  0611               	decf	Tec@contador+1,f,c
  6290  001A34  C010  F004         	movff	Tec@contador,lcd_goto@x
  6291  001A38  C011  F005         	movff	Tec@contador+1,lcd_goto@x+1
  6292  001A3C  0E00               	movlw	0
  6293  001A3E  6E07               	movwf	lcd_goto@y+1,c
  6294  001A40  0E02               	movlw	2
  6295  001A42  6E06               	movwf	lcd_goto@y,c
  6296  001A44  ECD4  F013         	call	_lcd_goto	;wreg free
  6297                           
  6298                           ;Funciones.h: 97: if(j!= 0) j--;
  6299  001A48  5013               	movf	Tec@j+1,w,c
  6300  001A4A  1012               	iorwf	Tec@j,w,c
  6301  001A4C  B4D8               	btfsc	status,2,c
  6302  001A4E  D003               	goto	l2731
  6303  001A50  0612               	decf	Tec@j,f,c
  6304  001A52  A0D8               	btfss	status,0,c
  6305  001A54  0613               	decf	Tec@j+1,f,c
  6306  001A56                     l2731:
  6307                           
  6308                           ;Funciones.h: 98: aux = '\0';
  6309  001A56  0E00               	movlw	0
  6310  001A58  6E0F               	movwf	Tec@aux,c
  6311                           
  6312                           ;Funciones.h: 99: continue;
  6313  001A5A  D7DA               	goto	l2715
  6314  001A5C                     l2733:
  6315                           
  6316                           ;Funciones.h: 101: }
  6317                           ;Funciones.h: 102: if(Key == aux){
  6318  001A5C  500F               	movf	Tec@aux,w,c
  6319  001A5E  6214               	cpfseq	Tec@Key,c
  6320  001A60  D021               	goto	l2747
  6321                           
  6322                           ;Funciones.h: 104: if(Key!='#')
  6323  001A62  5014               	movf	Tec@Key,w,c
  6324  001A64  0A23               	xorlw	35
  6325  001A66  B4D8               	btfsc	status,2,c
  6326  001A68  D006               	goto	l2739
  6327                           
  6328                           ;Funciones.h: 105: contador --,j--;
  6329  001A6A  0610               	decf	Tec@contador,f,c
  6330  001A6C  A0D8               	btfss	status,0,c
  6331  001A6E  0611               	decf	Tec@contador+1,f,c
  6332  001A70  0612               	decf	Tec@j,f,c
  6333  001A72  A0D8               	btfss	status,0,c
  6334  001A74  0613               	decf	Tec@j+1,f,c
  6335  001A76                     l2739:
  6336                           
  6337                           ;Funciones.h: 106: lcd_goto(contador++,2);
  6338  001A76  C010  F004         	movff	Tec@contador,lcd_goto@x
  6339  001A7A  C011  F005         	movff	Tec@contador+1,lcd_goto@x+1
  6340  001A7E  0E00               	movlw	0
  6341  001A80  6E07               	movwf	lcd_goto@y+1,c
  6342  001A82  0E02               	movlw	2
  6343  001A84  6E06               	movwf	lcd_goto@y,c
  6344  001A86  ECD4  F013         	call	_lcd_goto	;wreg free
  6345  001A8A  4A10               	infsnz	Tec@contador,f,c
  6346  001A8C  2A11               	incf	Tec@contador+1,f,c
  6347                           
  6348                           ;Funciones.h: 107: cadena[j++]=Key;
  6349  001A8E  5012               	movf	Tec@j,w,c
  6350  001A90  240B               	addwf	Tec@cadena,w,c
  6351  001A92  6ED9               	movwf	fsr2l,c
  6352  001A94  5013               	movf	Tec@j+1,w,c
  6353  001A96  200C               	addwfc	Tec@cadena+1,w,c
  6354  001A98  6EDA               	movwf	fsr2h,c
  6355  001A9A  C014  FFDF         	movff	Tec@Key,indf2
  6356  001A9E  4A12               	infsnz	Tec@j,f,c
  6357  001AA0  2A13               	incf	Tec@j+1,f,c
  6358                           
  6359                           ;Funciones.h: 108: continue;
  6360  001AA2  D7B6               	goto	l2715
  6361  001AA4                     l2747:
  6362                           
  6363                           ;Funciones.h: 109: }
  6364                           ;Funciones.h: 110: i = 0;
  6365  001AA4  0E00               	movlw	0
  6366  001AA6  6E0E               	movwf	Tec@i+1,c
  6367  001AA8  0E00               	movlw	0
  6368  001AAA  6E0D               	movwf	Tec@i,c
  6369                           
  6370                           ;Funciones.h: 112: if(Key == '#' && Key!=aux ){
  6371  001AAC  5014               	movf	Tec@Key,w,c
  6372  001AAE  0A23               	xorlw	35
  6373  001AB0  A4D8               	btfss	status,2,c
  6374  001AB2  D004               	goto	l2755
  6375  001AB4  5014               	movf	Tec@Key,w,c
  6376  001AB6  180F               	xorwf	Tec@aux,w,c
  6377  001AB8  A4D8               	btfss	status,2,c
  6378  001ABA  D019               	goto	L17
  6379  001ABC                     l2755:
  6380                           
  6381                           ;Funciones.h: 115: }
  6382                           ;Funciones.h: 116: lcd_goto(contador,2);
  6383  001ABC  C010  F004         	movff	Tec@contador,lcd_goto@x
  6384  001AC0  C011  F005         	movff	Tec@contador+1,lcd_goto@x+1
  6385  001AC4  0E00               	movlw	0
  6386  001AC6  6E07               	movwf	lcd_goto@y+1,c
  6387  001AC8  0E02               	movlw	2
  6388  001ACA  6E06               	movwf	lcd_goto@y,c
  6389  001ACC  ECD4  F013         	call	_lcd_goto	;wreg free
  6390                           
  6391                           ;Funciones.h: 117: cadena[j++]=Key;
  6392  001AD0  5012               	movf	Tec@j,w,c
  6393  001AD2  240B               	addwf	Tec@cadena,w,c
  6394  001AD4  6ED9               	movwf	fsr2l,c
  6395  001AD6  5013               	movf	Tec@j+1,w,c
  6396  001AD8  200C               	addwfc	Tec@cadena+1,w,c
  6397  001ADA  6EDA               	movwf	fsr2h,c
  6398  001ADC  C014  FFDF         	movff	Tec@Key,indf2
  6399  001AE0  4A12               	infsnz	Tec@j,f,c
  6400  001AE2  2A13               	incf	Tec@j+1,f,c
  6401                           
  6402                           ;Funciones.h: 118: Lcd_Chr_CP(Key);
  6403  001AE4  5014               	movf	Tec@Key,w,c
  6404  001AE6  ECC6  F00B         	call	_Lcd_Chr_CP
  6405                           
  6406                           ;Funciones.h: 119: contador++;
  6407  001AEA  4A10               	infsnz	Tec@contador,f,c
  6408  001AEC  2A11               	incf	Tec@contador+1,f,c
  6409  001AEE                     L17:
  6410                           
  6411                           ;Funciones.h: 120: aux=Key;
  6412  001AEE  C014  F00F         	movff	Tec@Key,Tec@aux
  6413  001AF2  D78E               	goto	l2715
  6414  001AF4                     l2767:
  6415                           
  6416                           ;Funciones.h: 122: cadena[j] = '\0';
  6417  001AF4  5012               	movf	Tec@j,w,c
  6418  001AF6  240B               	addwf	Tec@cadena,w,c
  6419  001AF8  6ED9               	movwf	fsr2l,c
  6420  001AFA  5013               	movf	Tec@j+1,w,c
  6421  001AFC  200C               	addwfc	Tec@cadena+1,w,c
  6422  001AFE  6EDA               	movwf	fsr2h,c
  6423  001B00  0E00               	movlw	0
  6424  001B02  6EDF               	movwf	indf2,c
  6425  001B04  0012               	return	
  6426  001B06                     __end_of_Tec:
  6427                           	opt stack 0
  6428                           tblptru	equ	0xFF8
  6429                           tblptrh	equ	0xFF7
  6430                           tblptrl	equ	0xFF6
  6431                           tablat	equ	0xFF5
  6432                           prodh	equ	0xFF4
  6433                           prodl	equ	0xFF3
  6434                           intcon2	equ	0xFF1
  6435                           postinc0	equ	0xFEE
  6436                           wreg	equ	0xFE8
  6437                           indf1	equ	0xFE7
  6438                           postinc1	equ	0xFE6
  6439                           postdec1	equ	0xFE5
  6440                           fsr1h	equ	0xFE2
  6441                           fsr1l	equ	0xFE1
  6442                           indf2	equ	0xFDF
  6443                           postinc2	equ	0xFDE
  6444                           postdec2	equ	0xFDD
  6445                           fsr2h	equ	0xFDA
  6446                           fsr2l	equ	0xFD9
  6447                           status	equ	0xFD8
  6448                           
  6449 ;; *************** function _lcd_goto *****************
  6450 ;; Defined at:
  6451 ;;		line 161 in file "pantalla.h"
  6452 ;; Parameters:    Size  Location     Type
  6453 ;;  x               2    3[COMRAM] int 
  6454 ;;  y               2    5[COMRAM] int 
  6455 ;; Auto vars:     Size  Location     Type
  6456 ;;  data            1    9[COMRAM] unsigned char 
  6457 ;; Return value:  Size  Location     Type
  6458 ;;		None               void
  6459 ;; Registers used:
  6460 ;;		wreg, status,2, status,0, cstack
  6461 ;; Tracked objects:
  6462 ;;		On entry : 0/0
  6463 ;;		On exit  : 0/0
  6464 ;;		Unchanged: 0/0
  6465 ;; Data sizes:     COMRAM   BANK0   BANK1   BANK2   BANK3   BANK4   BANK5   BANK6   BANK7
  6466 ;;      Params:         4       0       0       0       0       0       0       0       0
  6467 ;;      Locals:         1       0       0       0       0       0       0       0       0
  6468 ;;      Temps:          2       0       0       0       0       0       0       0       0
  6469 ;;      Totals:         7       0       0       0       0       0       0       0       0
  6470 ;;Total ram usage:        7 bytes
  6471 ;; Hardware stack levels used:    1
  6472 ;; Hardware stack levels required when called:    1
  6473 ;; This function calls:
  6474 ;;		_Lcd_Cmd
  6475 ;; This function is called by:
  6476 ;;		_Tec
  6477 ;; This function uses a non-reentrant model
  6478 ;;
  6479                           
  6480                           	psect	text24
  6481  0027A8                     __ptext24:
  6482                           	opt stack 0
  6483  0027A8                     _lcd_goto:
  6484                           	opt stack 27
  6485                           
  6486                           ;pantalla.h: 162: unsigned char data;
  6487                           ;pantalla.h: 163: switch (y) {
  6488                           
  6489                           ;incstack = 0
  6490  0027A8  D00D               	goto	l2637
  6491  0027AA                     l2627:
  6492  0027AA  5004               	movf	lcd_goto@x,w,c
  6493  0027AC  0F80               	addlw	128
  6494  0027AE  D008               	goto	L20
  6495  0027B0                     l2629:
  6496  0027B0  5004               	movf	lcd_goto@x,w,c
  6497  0027B2  0FC0               	addlw	192
  6498  0027B4  D005               	goto	L20
  6499  0027B6                     l2631:
  6500  0027B6  5004               	movf	lcd_goto@x,w,c
  6501  0027B8  0F94               	addlw	148
  6502  0027BA  D002               	goto	L20
  6503  0027BC                     l2633:
  6504  0027BC  5004               	movf	lcd_goto@x,w,c
  6505  0027BE  0FD4               	addlw	212
  6506  0027C0                     L20:
  6507  0027C0  6E0A               	movwf	lcd_goto@data,c
  6508  0027C2  D015               	goto	l2639
  6509  0027C4                     l2637:
  6510  0027C4  C006  F008         	movff	lcd_goto@y,??_lcd_goto
  6511  0027C8  C007  F009         	movff	lcd_goto@y+1,??_lcd_goto+1
  6512                           
  6513                           ; Switch on 2 bytes has been partitioned into a top level switch of size 1, and 1 sub-sw
      +                          itches
  6514                           ; Switch size 1, requested type "space"
  6515                           ; Number of cases is 1, Range of values is 0 to 0
  6516                           ; switch strategies available:
  6517                           ; Name         Instructions Cycles
  6518                           ; simple_byte            4     3 (average)
  6519                           ;	Chosen strategy is simple_byte
  6520  0027CC  5009               	movf	??_lcd_goto+1,w,c
  6521  0027CE  0A00               	xorlw	0	; case 0
  6522  0027D0  A4D8               	btfss	status,2,c
  6523  0027D2  D00D               	goto	l2639
  6524                           
  6525                           ; Switch size 1, requested type "space"
  6526                           ; Number of cases is 4, Range of values is 1 to 4
  6527                           ; switch strategies available:
  6528                           ; Name         Instructions Cycles
  6529                           ; simple_byte           13     7 (average)
  6530                           ;	Chosen strategy is simple_byte
  6531  0027D4  5008               	movf	??_lcd_goto,w,c
  6532  0027D6  0A01               	xorlw	1	; case 1
  6533  0027D8  B4D8               	btfsc	status,2,c
  6534  0027DA  D7E7               	goto	l2627
  6535  0027DC  0A03               	xorlw	3	; case 2
  6536  0027DE  B4D8               	btfsc	status,2,c
  6537  0027E0  D7E7               	goto	l2629
  6538  0027E2  0A01               	xorlw	1	; case 3
  6539  0027E4  B4D8               	btfsc	status,2,c
  6540  0027E6  D7E7               	goto	l2631
  6541  0027E8  0A07               	xorlw	7	; case 4
  6542  0027EA  B4D8               	btfsc	status,2,c
  6543  0027EC  D7E7               	goto	l2633
  6544  0027EE                     l2639:
  6545                           
  6546                           ;pantalla.h: 170: Lcd_Cmd(data);
  6547  0027EE  500A               	movf	lcd_goto@data,w,c
  6548  0027F0  EC83  F00D         	call	_Lcd_Cmd
  6549  0027F4  0012               	return	
  6550  0027F6                     __end_of_lcd_goto:
  6551                           	opt stack 0
  6552                           tblptru	equ	0xFF8
  6553                           tblptrh	equ	0xFF7
  6554                           tblptrl	equ	0xFF6
  6555                           tablat	equ	0xFF5
  6556                           prodh	equ	0xFF4
  6557                           prodl	equ	0xFF3
  6558                           intcon2	equ	0xFF1
  6559                           postinc0	equ	0xFEE
  6560                           wreg	equ	0xFE8
  6561                           indf1	equ	0xFE7
  6562                           postinc1	equ	0xFE6
  6563                           postdec1	equ	0xFE5
  6564                           fsr1h	equ	0xFE2
  6565                           fsr1l	equ	0xFE1
  6566                           indf2	equ	0xFDF
  6567                           postinc2	equ	0xFDE
  6568                           postdec2	equ	0xFDD
  6569                           fsr2h	equ	0xFDA
  6570                           fsr2l	equ	0xFD9
  6571                           status	equ	0xFD8
  6572                           
  6573 ;; *************** function _Recuperar *****************
  6574 ;; Defined at:
  6575 ;;		line 56 in file "teclado.c"
  6576 ;; Parameters:    Size  Location     Type
  6577 ;;		None
  6578 ;; Auto vars:     Size  Location     Type
  6579 ;;  tecl            1    0[COMRAM] unsigned char 
  6580 ;; Return value:  Size  Location     Type
  6581 ;;                  1    wreg      unsigned char 
  6582 ;; Registers used:
  6583 ;;		wreg, status,2, cstack
  6584 ;; Tracked objects:
  6585 ;;		On entry : 0/0
  6586 ;;		On exit  : 0/0
  6587 ;;		Unchanged: 0/0
  6588 ;; Data sizes:     COMRAM   BANK0   BANK1   BANK2   BANK3   BANK4   BANK5   BANK6   BANK7
  6589 ;;      Params:         0       0       0       0       0       0       0       0       0
  6590 ;;      Locals:         1       0       0       0       0       0       0       0       0
  6591 ;;      Temps:          0       0       0       0       0       0       0       0       0
  6592 ;;      Totals:         1       0       0       0       0       0       0       0       0
  6593 ;;Total ram usage:        1 bytes
  6594 ;; Hardware stack levels used:    1
  6595 ;; Hardware stack levels required when called:    1
  6596 ;; This function calls:
  6597 ;;		_Teclado
  6598 ;; This function is called by:
  6599 ;;		_Tec
  6600 ;;		_Imprimir_pantalla
  6601 ;;		_main
  6602 ;;		_Menu
  6603 ;; This function uses a non-reentrant model
  6604 ;;
  6605                           
  6606                           	psect	text25
  6607  0028D8                     __ptext25:
  6608                           	opt stack 0
  6609  0028D8                     _Recuperar:
  6610                           	opt stack 29
  6611                           
  6612                           ;teclado.c: 58: char tecl = ' ' ;
  6613                           
  6614                           ;incstack = 0
  6615  0028D8  0E20               	movlw	32
  6616  0028DA  6E01               	movwf	Recuperar@tecl,c
  6617                           
  6618                           ;teclado.c: 60: tecl =Teclado();
  6619  0028DC  ECAD  F011         	call	_Teclado	;wreg free
  6620  0028E0  6E01               	movwf	Recuperar@tecl,c
  6621                           
  6622                           ;teclado.c: 62: return tecl;
  6623  0028E2  5001               	movf	Recuperar@tecl,w,c
  6624  0028E4  0012               	return	
  6625  0028E6                     __end_of_Recuperar:
  6626                           	opt stack 0
  6627                           tblptru	equ	0xFF8
  6628                           tblptrh	equ	0xFF7
  6629                           tblptrl	equ	0xFF6
  6630                           tablat	equ	0xFF5
  6631                           prodh	equ	0xFF4
  6632                           prodl	equ	0xFF3
  6633                           intcon2	equ	0xFF1
  6634                           postinc0	equ	0xFEE
  6635                           wreg	equ	0xFE8
  6636                           indf1	equ	0xFE7
  6637                           postinc1	equ	0xFE6
  6638                           postdec1	equ	0xFE5
  6639                           fsr1h	equ	0xFE2
  6640                           fsr1l	equ	0xFE1
  6641                           indf2	equ	0xFDF
  6642                           postinc2	equ	0xFDE
  6643                           postdec2	equ	0xFDD
  6644                           fsr2h	equ	0xFDA
  6645                           fsr2l	equ	0xFD9
  6646                           status	equ	0xFD8
  6647                           
  6648 ;; *************** function _Teclado *****************
  6649 ;; Defined at:
  6650 ;;		line 19 in file "teclado.c"
  6651 ;; Parameters:    Size  Location     Type
  6652 ;;		None
  6653 ;; Auto vars:     Size  Location     Type
  6654 ;;		None
  6655 ;; Return value:  Size  Location     Type
  6656 ;;                  1    wreg      unsigned char 
  6657 ;; Registers used:
  6658 ;;		wreg, status,2
  6659 ;; Tracked objects:
  6660 ;;		On entry : 0/0
  6661 ;;		On exit  : 0/0
  6662 ;;		Unchanged: 0/0
  6663 ;; Data sizes:     COMRAM   BANK0   BANK1   BANK2   BANK3   BANK4   BANK5   BANK6   BANK7
  6664 ;;      Params:         0       0       0       0       0       0       0       0       0
  6665 ;;      Locals:         0       0       0       0       0       0       0       0       0
  6666 ;;      Temps:          0       0       0       0       0       0       0       0       0
  6667 ;;      Totals:         0       0       0       0       0       0       0       0       0
  6668 ;;Total ram usage:        0 bytes
  6669 ;; Hardware stack levels used:    1
  6670 ;; This function calls:
  6671 ;;		Nothing
  6672 ;; This function is called by:
  6673 ;;		_Recuperar
  6674 ;; This function uses a non-reentrant model
  6675 ;;
  6676                           
  6677                           	psect	text26
  6678  00235A                     __ptext26:
  6679                           	opt stack 0
  6680  00235A                     _Teclado:
  6681                           	opt stack 29
  6682                           
  6683                           ;teclado.c: 22: TRISB = 0xF0;
  6684                           
  6685                           ;incstack = 0
  6686  00235A  0EF0               	movlw	240
  6687  00235C  6E93               	movwf	3987,c	;volatile
  6688                           
  6689                           ;teclado.c: 23: PORTB = 0xFF;
  6690  00235E  6881               	setf	3969,c	;volatile
  6691                           
  6692                           ;teclado.c: 25: PORTBbits.RB0=0;
  6693  002360  9081               	bcf	3969,0,c	;volatile
  6694                           
  6695                           ;teclado.c: 26: if(PORTBbits.RB4==0){return '1';}
  6696  002362  B881               	btfsc	3969,4,c	;volatile
  6697  002364  D002               	goto	l272
  6698  002366  0E31               	movlw	49
  6699  002368  0012               	return	
  6700  00236A                     l272:
  6701                           
  6702                           ;teclado.c: 27: if(PORTBbits.RB5==0){return '2';}
  6703  00236A  BA81               	btfsc	3969,5,c	;volatile
  6704  00236C  D002               	goto	l274
  6705  00236E  0E32               	movlw	50
  6706  002370  0012               	return	
  6707  002372                     l274:
  6708                           
  6709                           ;teclado.c: 28: if(PORTBbits.RB6==0){return '3';}
  6710  002372  BC81               	btfsc	3969,6,c	;volatile
  6711  002374  D002               	goto	l275
  6712  002376  0E33               	movlw	51
  6713  002378  0012               	return	
  6714  00237A                     l275:
  6715                           
  6716                           ;teclado.c: 29: if(PORTBbits.RB7==0){return 'A';}
  6717  00237A  BE81               	btfsc	3969,7,c	;volatile
  6718  00237C  D002               	goto	l276
  6719  00237E  0E41               	movlw	65
  6720  002380  0012               	return	
  6721  002382                     l276:
  6722                           
  6723                           ;teclado.c: 30: PORTBbits.RB0=1;
  6724  002382  8081               	bsf	3969,0,c	;volatile
  6725                           
  6726                           ;teclado.c: 32: PORTBbits.RB1=0;
  6727  002384  9281               	bcf	3969,1,c	;volatile
  6728                           
  6729                           ;teclado.c: 33: if(PORTBbits.RB4==0){return '4';}
  6730  002386  B881               	btfsc	3969,4,c	;volatile
  6731  002388  D002               	goto	l277
  6732  00238A  0E34               	movlw	52
  6733  00238C  0012               	return	
  6734  00238E                     l277:
  6735                           
  6736                           ;teclado.c: 34: if(PORTBbits.RB5==0){return '5'; }
  6737  00238E  BA81               	btfsc	3969,5,c	;volatile
  6738  002390  D002               	goto	l278
  6739  002392  0E35               	movlw	53
  6740  002394  0012               	return	
  6741  002396                     l278:
  6742                           
  6743                           ;teclado.c: 35: if(PORTBbits.RB6==0){return '6';}
  6744  002396  BC81               	btfsc	3969,6,c	;volatile
  6745  002398  D002               	goto	l279
  6746  00239A  0E36               	movlw	54
  6747  00239C  0012               	return	
  6748  00239E                     l279:
  6749                           
  6750                           ;teclado.c: 36: if(PORTBbits.RB7==0){return 'B';}
  6751  00239E  BE81               	btfsc	3969,7,c	;volatile
  6752  0023A0  D002               	goto	l280
  6753  0023A2  0E42               	movlw	66
  6754  0023A4  0012               	return	
  6755  0023A6                     l280:
  6756                           
  6757                           ;teclado.c: 37: PORTBbits.RB1=1;
  6758  0023A6  8281               	bsf	3969,1,c	;volatile
  6759                           
  6760                           ;teclado.c: 39: PORTBbits.RB2=0;
  6761  0023A8  9481               	bcf	3969,2,c	;volatile
  6762                           
  6763                           ;teclado.c: 40: if(PORTBbits.RB4==0){return '7';}
  6764  0023AA  B881               	btfsc	3969,4,c	;volatile
  6765  0023AC  D002               	goto	l281
  6766  0023AE  0E37               	movlw	55
  6767  0023B0  0012               	return	
  6768  0023B2                     l281:
  6769                           
  6770                           ;teclado.c: 41: if(PORTBbits.RB5==0){return '8';}
  6771  0023B2  BA81               	btfsc	3969,5,c	;volatile
  6772  0023B4  D002               	goto	l282
  6773  0023B6  0E38               	movlw	56
  6774  0023B8  0012               	return	
  6775  0023BA                     l282:
  6776                           
  6777                           ;teclado.c: 42: if(PORTBbits.RB6==0){return '9';}
  6778  0023BA  BC81               	btfsc	3969,6,c	;volatile
  6779  0023BC  D002               	goto	l283
  6780  0023BE  0E39               	movlw	57
  6781  0023C0  0012               	return	
  6782  0023C2                     l283:
  6783                           
  6784                           ;teclado.c: 43: if(PORTBbits.RB7==0){return 'C';}
  6785  0023C2  BE81               	btfsc	3969,7,c	;volatile
  6786  0023C4  D002               	goto	l284
  6787  0023C6  0E43               	movlw	67
  6788  0023C8  0012               	return	
  6789  0023CA                     l284:
  6790                           
  6791                           ;teclado.c: 44: PORTBbits.RB2=1;
  6792  0023CA  8481               	bsf	3969,2,c	;volatile
  6793                           
  6794                           ;teclado.c: 46: PORTBbits.RB3=0;
  6795  0023CC  9681               	bcf	3969,3,c	;volatile
  6796                           
  6797                           ;teclado.c: 47: if(PORTBbits.RB4==0){return '*';}
  6798  0023CE  B881               	btfsc	3969,4,c	;volatile
  6799  0023D0  D002               	goto	l285
  6800  0023D2  0E2A               	movlw	42
  6801  0023D4  0012               	return	
  6802  0023D6                     l285:
  6803                           
  6804                           ;teclado.c: 48: if(PORTBbits.RB5==0){return '0';}
  6805  0023D6  BA81               	btfsc	3969,5,c	;volatile
  6806  0023D8  D002               	goto	l286
  6807  0023DA  0E30               	movlw	48
  6808  0023DC  0012               	return	
  6809  0023DE                     l286:
  6810                           
  6811                           ;teclado.c: 49: if(PORTBbits.RB6==0){return '#';}
  6812  0023DE  BC81               	btfsc	3969,6,c	;volatile
  6813  0023E0  D002               	goto	l287
  6814  0023E2  0E23               	movlw	35
  6815  0023E4  0012               	return	
  6816  0023E6                     l287:
  6817                           
  6818                           ;teclado.c: 50: if(PORTBbits.RB7==0){return 'D';}
  6819  0023E6  BE81               	btfsc	3969,7,c	;volatile
  6820  0023E8  D002               	goto	l288
  6821  0023EA  0E44               	movlw	68
  6822  0023EC  0012               	return	
  6823  0023EE                     l288:
  6824                           
  6825                           ;teclado.c: 51: PORTBbits.RB3=1;
  6826  0023EE  8681               	bsf	3969,3,c	;volatile
  6827                           
  6828                           ;teclado.c: 53: return ' ';
  6829  0023F0  0E20               	movlw	32
  6830  0023F2  0012               	return	
  6831  0023F4                     __end_of_Teclado:
  6832                           	opt stack 0
  6833                           tblptru	equ	0xFF8
  6834                           tblptrh	equ	0xFF7
  6835                           tblptrl	equ	0xFF6
  6836                           tablat	equ	0xFF5
  6837                           prodh	equ	0xFF4
  6838                           prodl	equ	0xFF3
  6839                           intcon2	equ	0xFF1
  6840                           postinc0	equ	0xFEE
  6841                           wreg	equ	0xFE8
  6842                           indf1	equ	0xFE7
  6843                           postinc1	equ	0xFE6
  6844                           postdec1	equ	0xFE5
  6845                           fsr1h	equ	0xFE2
  6846                           fsr1l	equ	0xFE1
  6847                           indf2	equ	0xFDF
  6848                           postinc2	equ	0xFDE
  6849                           postdec2	equ	0xFDD
  6850                           fsr2h	equ	0xFDA
  6851                           fsr2l	equ	0xFD9
  6852                           status	equ	0xFD8
  6853                           
  6854 ;; *************** function _Lcd_Out2 *****************
  6855 ;; Defined at:
  6856 ;;		line 113 in file "pantalla.h"
  6857 ;; Parameters:    Size  Location     Type
  6858 ;;  y               1    wreg     unsigned char 
  6859 ;;  x               1    3[COMRAM] unsigned char 
  6860 ;;  buffer          2    4[COMRAM] PTR unsigned char 
  6861 ;;		 -> STR_43(6), STR_42(2), STR_41(8), STR_40(3), 
  6862 ;;		 -> STR_39(6), STR_38(9), STR_37(14), STR_36(12), 
  6863 ;;		 -> STR_35(9), STR_34(11), STR_33(11), STR_32(11), 
  6864 ;;		 -> STR_31(11), STR_30(11), STR_29(11), STR_28(11), 
  6865 ;;		 -> STR_27(11), STR_26(11), STR_25(11), STR_24(11), 
  6866 ;;		 -> STR_23(11), STR_22(14), STR_21(12), STR_20(12), 
  6867 ;;		 -> STR_19(10), STR_18(15), STR_17(11), STR_16(16), 
  6868 ;;		 -> STR_15(2), STR_14(8), STR_13(3), STR_12(6), 
  6869 ;;		 -> ciclo(10), frecuencia(10), STR_11(14), STR_10(12), 
  6870 ;;		 -> STR_9(12), STR_8(9), STR_7(14), STR_6(12), 
  6871 ;;		 -> STR_5(12), STR_4(10), STR_3(15), STR_2(11), 
  6872 ;;		 -> STR_1(16), 
  6873 ;; Auto vars:     Size  Location     Type
  6874 ;;  y               1    6[COMRAM] unsigned char 
  6875 ;;  data            1    7[COMRAM] unsigned char 
  6876 ;; Return value:  Size  Location     Type
  6877 ;;		None               void
  6878 ;; Registers used:
  6879 ;;		wreg, fsr0l, fsr0h, status,2, status,0, tblptrl, tblptrh, tblptru, cstack
  6880 ;; Tracked objects:
  6881 ;;		On entry : 0/0
  6882 ;;		On exit  : 0/0
  6883 ;;		Unchanged: 0/0
  6884 ;; Data sizes:     COMRAM   BANK0   BANK1   BANK2   BANK3   BANK4   BANK5   BANK6   BANK7
  6885 ;;      Params:         3       0       0       0       0       0       0       0       0
  6886 ;;      Locals:         2       0       0       0       0       0       0       0       0
  6887 ;;      Temps:          0       0       0       0       0       0       0       0       0
  6888 ;;      Totals:         5       0       0       0       0       0       0       0       0
  6889 ;;Total ram usage:        5 bytes
  6890 ;; Hardware stack levels used:    1
  6891 ;; Hardware stack levels required when called:    1
  6892 ;; This function calls:
  6893 ;;		_Lcd_Chr_CP
  6894 ;;		_Lcd_Cmd
  6895 ;; This function is called by:
  6896 ;;		_Frecuencia
  6897 ;;		_Ciclo
  6898 ;;		_Imprimir_pantalla
  6899 ;;		_main
  6900 ;;		_Presentacion
  6901 ;;		_Menu
  6902 ;;		_Menu_Pwm
  6903 ;;		_Prueba2
  6904 ;; This function uses a non-reentrant model
  6905 ;;
  6906                           
  6907                           	psect	text27
  6908  0023F4                     __ptext27:
  6909                           	opt stack 0
  6910  0023F4                     _Lcd_Out2:
  6911                           	opt stack 29
  6912                           
  6913                           ;incstack = 0
  6914                           ;Lcd_Out2@y stored from wreg
  6915  0023F4  6E07               	movwf	Lcd_Out2@y,c
  6916                           
  6917                           ;pantalla.h: 115: unsigned char data;
  6918                           ;pantalla.h: 116: switch (y)
  6919  0023F6  D00D               	goto	l2701
  6920  0023F8                     l2691:
  6921  0023F8  5004               	movf	Lcd_Out2@x,w,c
  6922  0023FA  0F80               	addlw	128
  6923  0023FC  D008               	goto	L23
  6924  0023FE                     l2693:
  6925  0023FE  5004               	movf	Lcd_Out2@x,w,c
  6926  002400  0FC0               	addlw	192
  6927  002402  D005               	goto	L23
  6928  002404                     l2695:
  6929  002404  5004               	movf	Lcd_Out2@x,w,c
  6930  002406  0F94               	addlw	148
  6931  002408  D002               	goto	L23
  6932  00240A                     l2697:
  6933  00240A  5004               	movf	Lcd_Out2@x,w,c
  6934  00240C  0FD4               	addlw	212
  6935  00240E                     L23:
  6936  00240E  6E08               	movwf	Lcd_Out2@data,c
  6937  002410  D00D               	goto	l2703
  6938  002412                     l2701:
  6939  002412  5007               	movf	Lcd_Out2@y,w,c
  6940                           
  6941                           ; Switch size 1, requested type "space"
  6942                           ; Number of cases is 4, Range of values is 1 to 4
  6943                           ; switch strategies available:
  6944                           ; Name         Instructions Cycles
  6945                           ; simple_byte           13     7 (average)
  6946                           ;	Chosen strategy is simple_byte
  6947  002414  0A01               	xorlw	1	; case 1
  6948  002416  B4D8               	btfsc	status,2,c
  6949  002418  D7EF               	goto	l2691
  6950  00241A  0A03               	xorlw	3	; case 2
  6951  00241C  B4D8               	btfsc	status,2,c
  6952  00241E  D7EF               	goto	l2693
  6953  002420  0A01               	xorlw	1	; case 3
  6954  002422  B4D8               	btfsc	status,2,c
  6955  002424  D7EF               	goto	l2695
  6956  002426  0A07               	xorlw	7	; case 4
  6957  002428  B4D8               	btfsc	status,2,c
  6958  00242A  D7EF               	goto	l2697
  6959  00242C                     l2703:
  6960                           
  6961                           ;pantalla.h: 124: Lcd_Cmd(data);
  6962  00242C  5008               	movf	Lcd_Out2@data,w,c
  6963  00242E  EC83  F00D         	call	_Lcd_Cmd
  6964                           
  6965                           ;pantalla.h: 125: while(*buffer)
  6966  002432  D014               	goto	l2709
  6967  002434                     l2705:
  6968                           
  6969                           ;pantalla.h: 126: {
  6970                           ;pantalla.h: 127: Lcd_Chr_CP(*buffer);
  6971  002434  C005  FFF6         	movff	Lcd_Out2@buffer,tblptrl
  6972  002438  C006  FFF7         	movff	Lcd_Out2@buffer+1,tblptrh
  6973  00243C  6AF8               	clrf	tblptru,c
  6974  00243E  0E07               	movlw	(high __ramtop+-1)
  6975  002440  64F7               	cpfsgt	tblptrh,c
  6976  002442  D003               	bra	u1927
  6977  002444  0008               	tblrd		*
  6978  002446  50F5               	movf	tablat,w,c
  6979  002448  D005               	bra	u1920
  6980  00244A                     u1927:
  6981  00244A  CFF6 FFE9          	movff	tblptrl,fsr0l
  6982  00244E  CFF7 FFEA          	movff	tblptrh,fsr0h
  6983  002452  50EF               	movf	indf0,w,c
  6984  002454                     u1920:
  6985  002454  ECC6  F00B         	call	_Lcd_Chr_CP
  6986                           
  6987                           ;pantalla.h: 128: buffer++;
  6988  002458  4A05               	infsnz	Lcd_Out2@buffer,f,c
  6989  00245A  2A06               	incf	Lcd_Out2@buffer+1,f,c
  6990  00245C                     l2709:
  6991  00245C  C005  FFF6         	movff	Lcd_Out2@buffer,tblptrl
  6992  002460  C006  FFF7         	movff	Lcd_Out2@buffer+1,tblptrh
  6993  002464  6AF8               	clrf	tblptru,c
  6994  002466  0E07               	movlw	(high __ramtop+-1)
  6995  002468  64F7               	cpfsgt	tblptrh,c
  6996  00246A  D003               	bra	u1937
  6997  00246C  0008               	tblrd		*
  6998  00246E  50F5               	movf	tablat,w,c
  6999  002470  D005               	bra	u1930
  7000  002472                     u1937:
  7001  002472  CFF6 FFE9          	movff	tblptrl,fsr0l
  7002  002476  CFF7 FFEA          	movff	tblptrh,fsr0h
  7003  00247A  50EF               	movf	indf0,w,c
  7004  00247C                     u1930:
  7005  00247C  0900               	iorlw	0
  7006  00247E  B4D8               	btfsc	status,2,c
  7007                           
  7008                           ;pantalla.h: 129: }
  7009                           ;pantalla.h: 130: return;
  7010  002480  0012               	return	
  7011  002482  D7D8               	goto	l2705
  7012  002484                     __end_of_Lcd_Out2:
  7013                           	opt stack 0
  7014                           tblptru	equ	0xFF8
  7015                           tblptrh	equ	0xFF7
  7016                           tblptrl	equ	0xFF6
  7017                           tablat	equ	0xFF5
  7018                           prodh	equ	0xFF4
  7019                           prodl	equ	0xFF3
  7020                           intcon2	equ	0xFF1
  7021                           indf0	equ	0xFEF
  7022                           postinc0	equ	0xFEE
  7023                           fsr0h	equ	0xFEA
  7024                           fsr0l	equ	0xFE9
  7025                           wreg	equ	0xFE8
  7026                           indf1	equ	0xFE7
  7027                           postinc1	equ	0xFE6
  7028                           postdec1	equ	0xFE5
  7029                           fsr1h	equ	0xFE2
  7030                           fsr1l	equ	0xFE1
  7031                           indf2	equ	0xFDF
  7032                           postinc2	equ	0xFDE
  7033                           postdec2	equ	0xFDD
  7034                           fsr2h	equ	0xFDA
  7035                           fsr2l	equ	0xFD9
  7036                           status	equ	0xFD8
  7037                           
  7038 ;; *************** function _Lcd_Chr_CP *****************
  7039 ;; Defined at:
  7040 ;;		line 134 in file "pantalla.h"
  7041 ;; Parameters:    Size  Location     Type
  7042 ;;  data            1    wreg     unsigned char 
  7043 ;; Auto vars:     Size  Location     Type
  7044 ;;  data            1    2[COMRAM] unsigned char 
  7045 ;; Return value:  Size  Location     Type
  7046 ;;		None               void
  7047 ;; Registers used:
  7048 ;;		wreg, status,2, status,0
  7049 ;; Tracked objects:
  7050 ;;		On entry : 0/0
  7051 ;;		On exit  : 0/0
  7052 ;;		Unchanged: 0/0
  7053 ;; Data sizes:     COMRAM   BANK0   BANK1   BANK2   BANK3   BANK4   BANK5   BANK6   BANK7
  7054 ;;      Params:         0       0       0       0       0       0       0       0       0
  7055 ;;      Locals:         1       0       0       0       0       0       0       0       0
  7056 ;;      Temps:          2       0       0       0       0       0       0       0       0
  7057 ;;      Totals:         3       0       0       0       0       0       0       0       0
  7058 ;;Total ram usage:        3 bytes
  7059 ;; Hardware stack levels used:    1
  7060 ;; This function calls:
  7061 ;;		Nothing
  7062 ;; This function is called by:
  7063 ;;		_Lcd_Out
  7064 ;;		_Lcd_Out2
  7065 ;;		_Tec
  7066 ;; This function uses a non-reentrant model
  7067 ;;
  7068                           
  7069                           	psect	text28
  7070  00178C                     __ptext28:
  7071                           	opt stack 0
  7072  00178C                     _Lcd_Chr_CP:
  7073                           	opt stack 29
  7074                           
  7075                           ;incstack = 0
  7076                           ;Lcd_Chr_CP@data stored from wreg
  7077  00178C  6E03               	movwf	Lcd_Chr_CP@data,c
  7078                           
  7079                           ;pantalla.h: 135: PORTDbits.RD2 = 0; PORTDbits.RD0 = 1;
  7080  00178E  9483               	bcf	3971,2,c	;volatile
  7081  001790  8083               	bsf	3971,0,c	;volatile
  7082                           
  7083                           ;pantalla.h: 136: PORTDbits.RD7 = (data & 0b10000000)>>7; PORTDbits.RD6 = (data & 0b0100
      +                          0000)>>6;
  7084  001792  6A01               	clrf	??_Lcd_Chr_CP& (0+255),c
  7085  001794  AE03               	btfss	Lcd_Chr_CP@data,7,c
  7086  001796  D001               	bra	u1875
  7087  001798  2A01               	incf	??_Lcd_Chr_CP& (0+255),f,c
  7088  00179A                     u1875:
  7089  00179A  0E01               	movlw	1
  7090  00179C  1601               	andwf	??_Lcd_Chr_CP,f,c
  7091  00179E  3201               	rrcf	??_Lcd_Chr_CP,f,c
  7092  0017A0  3201               	rrcf	??_Lcd_Chr_CP,f,c
  7093  0017A2  5083               	movf	3971,w,c	;volatile
  7094  0017A4  1801               	xorwf	??_Lcd_Chr_CP,w,c
  7095  0017A6  0B7F               	andlw	-129
  7096  0017A8  1801               	xorwf	??_Lcd_Chr_CP,w,c
  7097  0017AA  6E83               	movwf	3971,c	;volatile
  7098  0017AC  C003  F001         	movff	Lcd_Chr_CP@data,??_Lcd_Chr_CP
  7099  0017B0  0E06               	movlw	6
  7100  0017B2  6E02               	movwf	(??_Lcd_Chr_CP+1)& (0+255),c
  7101  0017B4                     u1885:
  7102  0017B4  90D8               	bcf	status,0,c
  7103  0017B6  3201               	rrcf	??_Lcd_Chr_CP,f,c
  7104  0017B8  2E02               	decfsz	(??_Lcd_Chr_CP+1)& (0+255),f,c
  7105  0017BA  D7FC               	goto	u1885
  7106  0017BC  0E01               	movlw	1
  7107  0017BE  1601               	andwf	??_Lcd_Chr_CP,f,c
  7108  0017C0  3A01               	swapf	??_Lcd_Chr_CP,f,c
  7109  0017C2  4601               	rlncf	??_Lcd_Chr_CP,f,c
  7110  0017C4  4601               	rlncf	??_Lcd_Chr_CP,f,c
  7111  0017C6  5083               	movf	3971,w,c	;volatile
  7112  0017C8  1801               	xorwf	??_Lcd_Chr_CP,w,c
  7113  0017CA  0BBF               	andlw	-65
  7114  0017CC  1801               	xorwf	??_Lcd_Chr_CP,w,c
  7115  0017CE  6E83               	movwf	3971,c	;volatile
  7116                           
  7117                           ;pantalla.h: 137: PORTDbits.RD5 = (data & 0b00100000)>>5; PORTDbits.RD4 = (data & 0b0001
      +                          0000)>>4;
  7118  0017D0  C003  F001         	movff	Lcd_Chr_CP@data,??_Lcd_Chr_CP
  7119  0017D4  0E05               	movlw	5
  7120  0017D6  6E02               	movwf	(??_Lcd_Chr_CP+1)& (0+255),c
  7121  0017D8                     u1895:
  7122  0017D8  90D8               	bcf	status,0,c
  7123  0017DA  3201               	rrcf	??_Lcd_Chr_CP,f,c
  7124  0017DC  2E02               	decfsz	(??_Lcd_Chr_CP+1)& (0+255),f,c
  7125  0017DE  D7FC               	goto	u1895
  7126  0017E0  0E01               	movlw	1
  7127  0017E2  1601               	andwf	??_Lcd_Chr_CP,f,c
  7128  0017E4  3A01               	swapf	??_Lcd_Chr_CP,f,c
  7129  0017E6  4601               	rlncf	??_Lcd_Chr_CP,f,c
  7130  0017E8  5083               	movf	3971,w,c	;volatile
  7131  0017EA  1801               	xorwf	??_Lcd_Chr_CP,w,c
  7132  0017EC  0BDF               	andlw	-33
  7133  0017EE  1801               	xorwf	??_Lcd_Chr_CP,w,c
  7134  0017F0  6E83               	movwf	3971,c	;volatile
  7135  0017F2  C003  F001         	movff	Lcd_Chr_CP@data,??_Lcd_Chr_CP
  7136  0017F6  3A01               	swapf	??_Lcd_Chr_CP,f,c
  7137  0017F8  0E0F               	movlw	15
  7138  0017FA  1601               	andwf	??_Lcd_Chr_CP,f,c
  7139  0017FC  0E01               	movlw	1
  7140  0017FE  1601               	andwf	??_Lcd_Chr_CP,f,c
  7141  001800  3A01               	swapf	??_Lcd_Chr_CP,f,c
  7142  001802  5083               	movf	3971,w,c	;volatile
  7143  001804  1801               	xorwf	??_Lcd_Chr_CP,w,c
  7144  001806  0BEF               	andlw	-17
  7145  001808  1801               	xorwf	??_Lcd_Chr_CP,w,c
  7146  00180A  6E83               	movwf	3971,c	;volatile
  7147                           
  7148                           ;pantalla.h: 138: _delay((unsigned long)((10)*(4000000/4000000.0)));
  7149  00180C  0E03               	movlw	3
  7150  00180E                     u3467:
  7151  00180E  2EE8               	decfsz	wreg,f,c
  7152  001810  D7FE               	goto	u3467
  7153  001812  F000               	nop	
  7154                           
  7155                           ;pantalla.h: 139: PORTDbits.RD2 = 1; _delay((unsigned long)((5)*(4000000/4000000.0))); P
      +                          ORTDbits.RD2 = 0;
  7156  001814  8483               	bsf	3971,2,c	;volatile
  7157  001816  F000               	nop	
  7158  001818  D000               	nop2		;2 cycle nop
  7159  00181A  D000               	nop2		;2 cycle nop
  7160  00181C  9483               	bcf	3971,2,c	;volatile
  7161                           
  7162                           ;pantalla.h: 140: PORTDbits.RD7 = (data & 0b00001000)>>3; PORTDbits.RD6 = (data & 0b0000
      +                          0100)>>2;
  7163  00181E  C003  F001         	movff	Lcd_Chr_CP@data,??_Lcd_Chr_CP
  7164  001822  90D8               	bcf	status,0,c
  7165  001824  3201               	rrcf	??_Lcd_Chr_CP,f,c
  7166  001826  90D8               	bcf	status,0,c
  7167  001828  3201               	rrcf	??_Lcd_Chr_CP,f,c
  7168  00182A  90D8               	bcf	status,0,c
  7169  00182C  3201               	rrcf	??_Lcd_Chr_CP,f,c
  7170  00182E  0E01               	movlw	1
  7171  001830  1601               	andwf	??_Lcd_Chr_CP,f,c
  7172  001832  3201               	rrcf	??_Lcd_Chr_CP,f,c
  7173  001834  3201               	rrcf	??_Lcd_Chr_CP,f,c
  7174  001836  5083               	movf	3971,w,c	;volatile
  7175  001838  1801               	xorwf	??_Lcd_Chr_CP,w,c
  7176  00183A  0B7F               	andlw	-129
  7177  00183C  1801               	xorwf	??_Lcd_Chr_CP,w,c
  7178  00183E  6E83               	movwf	3971,c	;volatile
  7179  001840  C003  F001         	movff	Lcd_Chr_CP@data,??_Lcd_Chr_CP
  7180  001844  90D8               	bcf	status,0,c
  7181  001846  3201               	rrcf	??_Lcd_Chr_CP,f,c
  7182  001848  90D8               	bcf	status,0,c
  7183  00184A  3201               	rrcf	??_Lcd_Chr_CP,f,c
  7184  00184C  0E01               	movlw	1
  7185  00184E  1601               	andwf	??_Lcd_Chr_CP,f,c
  7186  001850  3A01               	swapf	??_Lcd_Chr_CP,f,c
  7187  001852  4601               	rlncf	??_Lcd_Chr_CP,f,c
  7188  001854  4601               	rlncf	??_Lcd_Chr_CP,f,c
  7189  001856  5083               	movf	3971,w,c	;volatile
  7190  001858  1801               	xorwf	??_Lcd_Chr_CP,w,c
  7191  00185A  0BBF               	andlw	-65
  7192  00185C  1801               	xorwf	??_Lcd_Chr_CP,w,c
  7193  00185E  6E83               	movwf	3971,c	;volatile
  7194                           
  7195                           ;pantalla.h: 141: PORTDbits.RD5 = (data & 0b00000010)>>1; PORTDbits.RD4 = (data & 0b0000
      +                          0001);
  7196  001860  C003  F001         	movff	Lcd_Chr_CP@data,??_Lcd_Chr_CP
  7197  001864  90D8               	bcf	status,0,c
  7198  001866  3201               	rrcf	??_Lcd_Chr_CP,f,c
  7199  001868  0E01               	movlw	1
  7200  00186A  1601               	andwf	??_Lcd_Chr_CP,f,c
  7201  00186C  3A01               	swapf	??_Lcd_Chr_CP,f,c
  7202  00186E  4601               	rlncf	??_Lcd_Chr_CP,f,c
  7203  001870  5083               	movf	3971,w,c	;volatile
  7204  001872  1801               	xorwf	??_Lcd_Chr_CP,w,c
  7205  001874  0BDF               	andlw	-33
  7206  001876  1801               	xorwf	??_Lcd_Chr_CP,w,c
  7207  001878  6E83               	movwf	3971,c	;volatile
  7208  00187A  C003  F001         	movff	Lcd_Chr_CP@data,??_Lcd_Chr_CP
  7209  00187E  0E01               	movlw	1
  7210  001880  1601               	andwf	??_Lcd_Chr_CP,f,c
  7211  001882  3A01               	swapf	??_Lcd_Chr_CP,f,c
  7212  001884  5083               	movf	3971,w,c	;volatile
  7213  001886  1801               	xorwf	??_Lcd_Chr_CP,w,c
  7214  001888  0BEF               	andlw	-17
  7215  00188A  1801               	xorwf	??_Lcd_Chr_CP,w,c
  7216  00188C  6E83               	movwf	3971,c	;volatile
  7217                           
  7218                           ;pantalla.h: 142: _delay((unsigned long)((10)*(4000000/4000000.0)));
  7219  00188E  0E03               	movlw	3
  7220  001890                     u3477:
  7221  001890  2EE8               	decfsz	wreg,f,c
  7222  001892  D7FE               	goto	u3477
  7223  001894  F000               	nop	
  7224                           
  7225                           ;pantalla.h: 143: PORTDbits.RD2 = 1; _delay((unsigned long)((5)*(4000000/4000000.0))); P
      +                          ORTDbits.RD2 = 0;
  7226  001896  8483               	bsf	3971,2,c	;volatile
  7227  001898  F000               	nop	
  7228  00189A  D000               	nop2		;2 cycle nop
  7229  00189C  D000               	nop2		;2 cycle nop
  7230  00189E  9483               	bcf	3971,2,c	;volatile
  7231                           
  7232                           ;pantalla.h: 144: _delay((unsigned long)((5)*(4000000/4000000.0))); _delay((unsigned lon
      +                          g)((5500)*(4000000/4000000.0)));
  7233  0018A0  F000               	nop	
  7234  0018A2  D000               	nop2		;2 cycle nop
  7235  0018A4  D000               	nop2		;2 cycle nop
  7236  0018A6  0E08               	movlw	8
  7237  0018A8  6E01               	movwf	??_Lcd_Chr_CP& (0+255),c
  7238  0018AA  0E23               	movlw	35
  7239  0018AC                     u3487:
  7240  0018AC  2EE8               	decfsz	wreg,f,c
  7241  0018AE  D7FE               	goto	u3487
  7242  0018B0  2E01               	decfsz	??_Lcd_Chr_CP& (0+255),f,c
  7243  0018B2  D7FC               	goto	u3487
  7244  0018B4  F000               	nop	
  7245  0018B6  0012               	return	
  7246  0018B8                     __end_of_Lcd_Chr_CP:
  7247                           	opt stack 0
  7248                           tblptru	equ	0xFF8
  7249                           tblptrh	equ	0xFF7
  7250                           tblptrl	equ	0xFF6
  7251                           tablat	equ	0xFF5
  7252                           prodh	equ	0xFF4
  7253                           prodl	equ	0xFF3
  7254                           intcon2	equ	0xFF1
  7255                           indf0	equ	0xFEF
  7256                           postinc0	equ	0xFEE
  7257                           fsr0h	equ	0xFEA
  7258                           fsr0l	equ	0xFE9
  7259                           wreg	equ	0xFE8
  7260                           indf1	equ	0xFE7
  7261                           postinc1	equ	0xFE6
  7262                           postdec1	equ	0xFE5
  7263                           fsr1h	equ	0xFE2
  7264                           fsr1l	equ	0xFE1
  7265                           indf2	equ	0xFDF
  7266                           postinc2	equ	0xFDE
  7267                           postdec2	equ	0xFDD
  7268                           fsr2h	equ	0xFDA
  7269                           fsr2l	equ	0xFD9
  7270                           status	equ	0xFD8
  7271                           
  7272 ;; *************** function _Lcd_Init *****************
  7273 ;; Defined at:
  7274 ;;		line 48 in file "pantalla.h"
  7275 ;; Parameters:    Size  Location     Type
  7276 ;;		None
  7277 ;; Auto vars:     Size  Location     Type
  7278 ;;  data            1    4[COMRAM] unsigned char 
  7279 ;; Return value:  Size  Location     Type
  7280 ;;		None               void
  7281 ;; Registers used:
  7282 ;;		wreg, status,2, status,0, cstack
  7283 ;; Tracked objects:
  7284 ;;		On entry : 0/0
  7285 ;;		On exit  : 0/0
  7286 ;;		Unchanged: 0/0
  7287 ;; Data sizes:     COMRAM   BANK0   BANK1   BANK2   BANK3   BANK4   BANK5   BANK6   BANK7
  7288 ;;      Params:         0       0       0       0       0       0       0       0       0
  7289 ;;      Locals:         1       0       0       0       0       0       0       0       0
  7290 ;;      Temps:          1       0       0       0       0       0       0       0       0
  7291 ;;      Totals:         2       0       0       0       0       0       0       0       0
  7292 ;;Total ram usage:        2 bytes
  7293 ;; Hardware stack levels used:    1
  7294 ;; Hardware stack levels required when called:    1
  7295 ;; This function calls:
  7296 ;;		_Lcd_Cmd
  7297 ;; This function is called by:
  7298 ;;		_Frecuencia
  7299 ;;		_Ciclo
  7300 ;;		_Imprimir_pantalla
  7301 ;;		_main
  7302 ;;		_Presentacion
  7303 ;;		_Menu
  7304 ;;		_Menu_Pwm
  7305 ;;		_Prueba2
  7306 ;; This function uses a non-reentrant model
  7307 ;;
  7308                           
  7309                           	psect	text29
  7310  0018B8                     __ptext29:
  7311                           	opt stack 0
  7312  0018B8                     _Lcd_Init:
  7313                           	opt stack 29
  7314                           
  7315                           ;pantalla.h: 49: unsigned char data;
  7316                           ;pantalla.h: 50: TRISDbits.TRISD7 = 0;
  7317                           
  7318                           ;incstack = 0
  7319  0018B8  9E95               	bcf	3989,7,c	;volatile
  7320                           
  7321                           ;pantalla.h: 51: TRISDbits.TRISD6 = 0;
  7322  0018BA  9C95               	bcf	3989,6,c	;volatile
  7323                           
  7324                           ;pantalla.h: 52: TRISDbits.TRISD5 = 0;
  7325  0018BC  9A95               	bcf	3989,5,c	;volatile
  7326                           
  7327                           ;pantalla.h: 53: TRISDbits.TRISD4 = 0;
  7328  0018BE  9895               	bcf	3989,4,c	;volatile
  7329                           
  7330                           ;pantalla.h: 54: TRISDbits.TRISD2 = 0;
  7331  0018C0  9495               	bcf	3989,2,c	;volatile
  7332                           
  7333                           ;pantalla.h: 55: TRISDbits.TRISD0 = 0;
  7334  0018C2  9095               	bcf	3989,0,c	;volatile
  7335                           
  7336                           ;pantalla.h: 56: TRISDbits.TRISD1 = 0;
  7337  0018C4  9295               	bcf	3989,1,c	;volatile
  7338                           
  7339                           ;pantalla.h: 57: PORTDbits.RD7 = 0;
  7340  0018C6  9E83               	bcf	3971,7,c	;volatile
  7341                           
  7342                           ;pantalla.h: 58: PORTDbits.RD6 = 0;
  7343  0018C8  9C83               	bcf	3971,6,c	;volatile
  7344                           
  7345                           ;pantalla.h: 59: PORTDbits.RD5 = 0;
  7346  0018CA  9A83               	bcf	3971,5,c	;volatile
  7347                           
  7348                           ;pantalla.h: 60: PORTDbits.RD4 = 0;
  7349  0018CC  9883               	bcf	3971,4,c	;volatile
  7350                           
  7351                           ;pantalla.h: 61: PORTDbits.RD2 = 0;
  7352  0018CE  9483               	bcf	3971,2,c	;volatile
  7353                           
  7354                           ;pantalla.h: 62: PORTDbits.RD0 = 0;
  7355  0018D0  9083               	bcf	3971,0,c	;volatile
  7356                           
  7357                           ;pantalla.h: 63: PORTDbits.RD1 = 0;
  7358  0018D2  9283               	bcf	3971,1,c	;volatile
  7359                           
  7360                           ;pantalla.h: 64: _delay((unsigned long)((5500)*(4000000/4000000.0)));
  7361  0018D4  0E08               	movlw	8
  7362  0018D6  6E04               	movwf	??_Lcd_Init& (0+255),c
  7363  0018D8  0E23               	movlw	35
  7364  0018DA                     u3497:
  7365  0018DA  2EE8               	decfsz	wreg,f,c
  7366  0018DC  D7FE               	goto	u3497
  7367  0018DE  2E04               	decfsz	??_Lcd_Init& (0+255),f,c
  7368  0018E0  D7FC               	goto	u3497
  7369  0018E2  F000               	nop	
  7370                           
  7371                           ;pantalla.h: 65: _delay((unsigned long)((5500)*(4000000/4000000.0)));
  7372  0018E4  0E08               	movlw	8
  7373  0018E6  6E04               	movwf	??_Lcd_Init& (0+255),c
  7374  0018E8  0E23               	movlw	35
  7375  0018EA                     u3507:
  7376  0018EA  2EE8               	decfsz	wreg,f,c
  7377  0018EC  D7FE               	goto	u3507
  7378  0018EE  2E04               	decfsz	??_Lcd_Init& (0+255),f,c
  7379  0018F0  D7FC               	goto	u3507
  7380  0018F2  F000               	nop	
  7381                           
  7382                           ;pantalla.h: 66: _delay((unsigned long)((5500)*(4000000/4000000.0)));
  7383  0018F4  0E08               	movlw	8
  7384  0018F6  6E04               	movwf	??_Lcd_Init& (0+255),c
  7385  0018F8  0E23               	movlw	35
  7386  0018FA                     u3517:
  7387  0018FA  2EE8               	decfsz	wreg,f,c
  7388  0018FC  D7FE               	goto	u3517
  7389  0018FE  2E04               	decfsz	??_Lcd_Init& (0+255),f,c
  7390  001900  D7FC               	goto	u3517
  7391  001902  F000               	nop	
  7392                           
  7393                           ;pantalla.h: 67: _delay((unsigned long)((5500)*(4000000/4000000.0)));
  7394  001904  0E08               	movlw	8
  7395  001906  6E04               	movwf	??_Lcd_Init& (0+255),c
  7396  001908  0E23               	movlw	35
  7397  00190A                     u3527:
  7398  00190A  2EE8               	decfsz	wreg,f,c
  7399  00190C  D7FE               	goto	u3527
  7400  00190E  2E04               	decfsz	??_Lcd_Init& (0+255),f,c
  7401  001910  D7FC               	goto	u3527
  7402  001912  F000               	nop	
  7403                           
  7404                           ;pantalla.h: 68: _delay((unsigned long)((5500)*(4000000/4000000.0)));
  7405  001914  0E08               	movlw	8
  7406  001916  6E04               	movwf	??_Lcd_Init& (0+255),c
  7407  001918  0E23               	movlw	35
  7408  00191A                     u3537:
  7409  00191A  2EE8               	decfsz	wreg,f,c
  7410  00191C  D7FE               	goto	u3537
  7411  00191E  2E04               	decfsz	??_Lcd_Init& (0+255),f,c
  7412  001920  D7FC               	goto	u3537
  7413  001922  F000               	nop	
  7414                           
  7415                           ;pantalla.h: 69: _delay((unsigned long)((5500)*(4000000/4000000.0)));
  7416  001924  0E08               	movlw	8
  7417  001926  6E04               	movwf	??_Lcd_Init& (0+255),c
  7418  001928  0E23               	movlw	35
  7419  00192A                     u3547:
  7420  00192A  2EE8               	decfsz	wreg,f,c
  7421  00192C  D7FE               	goto	u3547
  7422  00192E  2E04               	decfsz	??_Lcd_Init& (0+255),f,c
  7423  001930  D7FC               	goto	u3547
  7424  001932  F000               	nop	
  7425                           
  7426                           ;pantalla.h: 70: for(data = 1; data < 4; data ++)
  7427  001934  0E01               	movlw	1
  7428  001936  6E05               	movwf	Lcd_Init@data,c
  7429  001938  D01E               	goto	L24
  7430  00193A                     l46:
  7431                           
  7432                           ;pantalla.h: 71: {
  7433                           ;pantalla.h: 72: PORTDbits.RD7 = 0; PORTDbits.RD6 = 0; PORTDbits.RD5 = 1; PORTDbits.RD4 
      +                          = 1; PORTDbits.RD2 = 0;
  7434  00193A  9E83               	bcf	3971,7,c	;volatile
  7435  00193C  9C83               	bcf	3971,6,c	;volatile
  7436  00193E  8A83               	bsf	3971,5,c	;volatile
  7437  001940  8883               	bsf	3971,4,c	;volatile
  7438  001942  9483               	bcf	3971,2,c	;volatile
  7439                           
  7440                           ;pantalla.h: 73: PORTDbits.RD0 = 0; PORTDbits.RD7 = 0; PORTDbits.RD6 = 0; PORTDbits.RD5 
      +                          = 1; PORTDbits.RD4 = 1;
  7441  001944  9083               	bcf	3971,0,c	;volatile
  7442  001946  9E83               	bcf	3971,7,c	;volatile
  7443  001948  9C83               	bcf	3971,6,c	;volatile
  7444  00194A  8A83               	bsf	3971,5,c	;volatile
  7445  00194C  8883               	bsf	3971,4,c	;volatile
  7446                           
  7447                           ;pantalla.h: 74: PORTDbits.RD2 = 1; PORTDbits.RD0 = 0;
  7448  00194E  8483               	bsf	3971,2,c	;volatile
  7449  001950  9083               	bcf	3971,0,c	;volatile
  7450                           
  7451                           ;pantalla.h: 75: _delay((unsigned long)((5)*(4000000/4000000.0)));
  7452  001952  F000               	nop	
  7453  001954  D000               	nop2		;2 cycle nop
  7454  001956  D000               	nop2		;2 cycle nop
  7455                           
  7456                           ;pantalla.h: 76: PORTDbits.RD7 = 0; PORTDbits.RD6 = 0; PORTDbits.RD5 = 1; PORTDbits.RD4 
      +                          = 1; PORTDbits.RD2 = 0;
  7457  001958  9E83               	bcf	3971,7,c	;volatile
  7458  00195A  9C83               	bcf	3971,6,c	;volatile
  7459  00195C  8A83               	bsf	3971,5,c	;volatile
  7460  00195E  8883               	bsf	3971,4,c	;volatile
  7461  001960  9483               	bcf	3971,2,c	;volatile
  7462                           
  7463                           ;pantalla.h: 77: PORTDbits.RD0 = 0;
  7464  001962  9083               	bcf	3971,0,c	;volatile
  7465                           
  7466                           ;pantalla.h: 78: _delay((unsigned long)((5500)*(4000000/4000000.0)));
  7467  001964  0E08               	movlw	8
  7468  001966  6E04               	movwf	??_Lcd_Init& (0+255),c
  7469  001968  0E23               	movlw	35
  7470  00196A                     u3557:
  7471  00196A  2EE8               	decfsz	wreg,f,c
  7472  00196C  D7FE               	goto	u3557
  7473  00196E  2E04               	decfsz	??_Lcd_Init& (0+255),f,c
  7474  001970  D7FC               	goto	u3557
  7475  001972  F000               	nop	
  7476  001974  2A05               	incf	Lcd_Init@data,f,c
  7477  001976                     L24:
  7478  001976  0E03               	movlw	3
  7479  001978  6405               	cpfsgt	Lcd_Init@data,c
  7480  00197A  D7DF               	goto	l46
  7481                           
  7482                           ;pantalla.h: 79: }
  7483                           ;pantalla.h: 80: PORTDbits.RD7 = 0; PORTDbits.RD6 = 0; PORTDbits.RD5 = 1; PORTDbits.RD4 
      +                          = 0; PORTDbits.RD2 = 0; PORTDbits.RD0 = 0;
  7484  00197C  9E83               	bcf	3971,7,c	;volatile
  7485  00197E  9C83               	bcf	3971,6,c	;volatile
  7486  001980  8A83               	bsf	3971,5,c	;volatile
  7487  001982  9883               	bcf	3971,4,c	;volatile
  7488  001984  9483               	bcf	3971,2,c	;volatile
  7489  001986  9083               	bcf	3971,0,c	;volatile
  7490                           
  7491                           ;pantalla.h: 81: PORTDbits.RD7 = 0; PORTDbits.RD6 = 0; PORTDbits.RD5 = 1; PORTDbits.RD4 
      +                          = 0; PORTDbits.RD2 = 1; PORTDbits.RD0 = 0;
  7492  001988  9E83               	bcf	3971,7,c	;volatile
  7493  00198A  9C83               	bcf	3971,6,c	;volatile
  7494  00198C  8A83               	bsf	3971,5,c	;volatile
  7495  00198E  9883               	bcf	3971,4,c	;volatile
  7496  001990  8483               	bsf	3971,2,c	;volatile
  7497  001992  9083               	bcf	3971,0,c	;volatile
  7498                           
  7499                           ;pantalla.h: 82: _delay((unsigned long)((5)*(4000000/4000000.0)));
  7500  001994  F000               	nop	
  7501  001996  D000               	nop2		;2 cycle nop
  7502  001998  D000               	nop2		;2 cycle nop
  7503                           
  7504                           ;pantalla.h: 83: PORTDbits.RD7 = 0; PORTDbits.RD6 = 0; PORTDbits.RD5 = 1; PORTDbits.RD4 
      +                          = 0; PORTDbits.RD2 = 0; PORTDbits.RD0 = 0;
  7505  00199A  9E83               	bcf	3971,7,c	;volatile
  7506  00199C  9C83               	bcf	3971,6,c	;volatile
  7507  00199E  8A83               	bsf	3971,5,c	;volatile
  7508  0019A0  9883               	bcf	3971,4,c	;volatile
  7509  0019A2  9483               	bcf	3971,2,c	;volatile
  7510  0019A4  9083               	bcf	3971,0,c	;volatile
  7511                           
  7512                           ;pantalla.h: 84: _delay((unsigned long)((5500)*(4000000/4000000.0)));
  7513  0019A6  0E08               	movlw	8
  7514  0019A8  6E04               	movwf	??_Lcd_Init& (0+255),c
  7515  0019AA  0E23               	movlw	35
  7516  0019AC                     u3567:
  7517  0019AC  2EE8               	decfsz	wreg,f,c
  7518  0019AE  D7FE               	goto	u3567
  7519  0019B0  2E04               	decfsz	??_Lcd_Init& (0+255),f,c
  7520  0019B2  D7FC               	goto	u3567
  7521  0019B4  F000               	nop	
  7522                           
  7523                           ;pantalla.h: 85: data = 40; Lcd_Cmd(data);
  7524  0019B6  0E28               	movlw	40
  7525  0019B8  6E05               	movwf	Lcd_Init@data,c
  7526  0019BA  5005               	movf	Lcd_Init@data,w,c
  7527  0019BC  EC83  F00D         	call	_Lcd_Cmd
  7528                           
  7529                           ;pantalla.h: 86: data = 16; Lcd_Cmd(data);
  7530  0019C0  0E10               	movlw	16
  7531  0019C2  6E05               	movwf	Lcd_Init@data,c
  7532  0019C4  5005               	movf	Lcd_Init@data,w,c
  7533  0019C6  EC83  F00D         	call	_Lcd_Cmd
  7534                           
  7535                           ;pantalla.h: 87: data = 1; Lcd_Cmd(data);
  7536  0019CA  0E01               	movlw	1
  7537  0019CC  6E05               	movwf	Lcd_Init@data,c
  7538  0019CE  5005               	movf	Lcd_Init@data,w,c
  7539  0019D0  EC83  F00D         	call	_Lcd_Cmd
  7540                           
  7541                           ;pantalla.h: 88: data = 15; Lcd_Cmd(data);
  7542  0019D4  0E0F               	movlw	15
  7543  0019D6  6E05               	movwf	Lcd_Init@data,c
  7544  0019D8  5005               	movf	Lcd_Init@data,w,c
  7545  0019DA  EC83  F00D         	call	_Lcd_Cmd
  7546  0019DE  0012               	return	
  7547  0019E0                     __end_of_Lcd_Init:
  7548                           	opt stack 0
  7549                           tblptru	equ	0xFF8
  7550                           tblptrh	equ	0xFF7
  7551                           tblptrl	equ	0xFF6
  7552                           tablat	equ	0xFF5
  7553                           prodh	equ	0xFF4
  7554                           prodl	equ	0xFF3
  7555                           intcon2	equ	0xFF1
  7556                           indf0	equ	0xFEF
  7557                           postinc0	equ	0xFEE
  7558                           fsr0h	equ	0xFEA
  7559                           fsr0l	equ	0xFE9
  7560                           wreg	equ	0xFE8
  7561                           indf1	equ	0xFE7
  7562                           postinc1	equ	0xFE6
  7563                           postdec1	equ	0xFE5
  7564                           fsr1h	equ	0xFE2
  7565                           fsr1l	equ	0xFE1
  7566                           indf2	equ	0xFDF
  7567                           postinc2	equ	0xFDE
  7568                           postdec2	equ	0xFDD
  7569                           fsr2h	equ	0xFDA
  7570                           fsr2l	equ	0xFD9
  7571                           status	equ	0xFD8
  7572                           
  7573 ;; *************** function _Lcd_Cmd *****************
  7574 ;; Defined at:
  7575 ;;		line 148 in file "pantalla.h"
  7576 ;; Parameters:    Size  Location     Type
  7577 ;;  data            1    wreg     unsigned char 
  7578 ;; Auto vars:     Size  Location     Type
  7579 ;;  data            1    2[COMRAM] unsigned char 
  7580 ;; Return value:  Size  Location     Type
  7581 ;;		None               void
  7582 ;; Registers used:
  7583 ;;		wreg, status,2, status,0
  7584 ;; Tracked objects:
  7585 ;;		On entry : 0/0
  7586 ;;		On exit  : 0/0
  7587 ;;		Unchanged: 0/0
  7588 ;; Data sizes:     COMRAM   BANK0   BANK1   BANK2   BANK3   BANK4   BANK5   BANK6   BANK7
  7589 ;;      Params:         0       0       0       0       0       0       0       0       0
  7590 ;;      Locals:         1       0       0       0       0       0       0       0       0
  7591 ;;      Temps:          2       0       0       0       0       0       0       0       0
  7592 ;;      Totals:         3       0       0       0       0       0       0       0       0
  7593 ;;Total ram usage:        3 bytes
  7594 ;; Hardware stack levels used:    1
  7595 ;; This function calls:
  7596 ;;		Nothing
  7597 ;; This function is called by:
  7598 ;;		_Lcd_Init
  7599 ;;		_Lcd_Out
  7600 ;;		_Lcd_Out2
  7601 ;;		_lcd_goto
  7602 ;;		_Frecuencia
  7603 ;;		_Ciclo
  7604 ;;		_Imprimir_pantalla
  7605 ;;		_main
  7606 ;;		_Presentacion
  7607 ;;		_Menu
  7608 ;;		_Menu_Pwm
  7609 ;;		_Prueba2
  7610 ;; This function uses a non-reentrant model
  7611 ;;
  7612                           
  7613                           	psect	text30
  7614  001B06                     __ptext30:
  7615                           	opt stack 0
  7616  001B06                     _Lcd_Cmd:
  7617                           	opt stack 29
  7618                           
  7619                           ;incstack = 0
  7620                           ;Lcd_Cmd@data stored from wreg
  7621  001B06  6E03               	movwf	Lcd_Cmd@data,c
  7622                           
  7623                           ;pantalla.h: 149: PORTDbits.RD2 = 0; PORTDbits.RD0 = 0;
  7624  001B08  9483               	bcf	3971,2,c	;volatile
  7625  001B0A  9083               	bcf	3971,0,c	;volatile
  7626                           
  7627                           ;pantalla.h: 150: PORTDbits.RD7 = (data & 0b10000000)>>7; PORTDbits.RD6 = (data & 0b0100
      +                          0000)>>6;
  7628  001B0C  6A01               	clrf	??_Lcd_Cmd& (0+255),c
  7629  001B0E  AE03               	btfss	Lcd_Cmd@data,7,c
  7630  001B10  D001               	bra	u1685
  7631  001B12  2A01               	incf	??_Lcd_Cmd& (0+255),f,c
  7632  001B14                     u1685:
  7633  001B14  0E01               	movlw	1
  7634  001B16  1601               	andwf	??_Lcd_Cmd,f,c
  7635  001B18  3201               	rrcf	??_Lcd_Cmd,f,c
  7636  001B1A  3201               	rrcf	??_Lcd_Cmd,f,c
  7637  001B1C  5083               	movf	3971,w,c	;volatile
  7638  001B1E  1801               	xorwf	??_Lcd_Cmd,w,c
  7639  001B20  0B7F               	andlw	-129
  7640  001B22  1801               	xorwf	??_Lcd_Cmd,w,c
  7641  001B24  6E83               	movwf	3971,c	;volatile
  7642  001B26  C003  F001         	movff	Lcd_Cmd@data,??_Lcd_Cmd
  7643  001B2A  0E06               	movlw	6
  7644  001B2C  6E02               	movwf	(??_Lcd_Cmd+1)& (0+255),c
  7645  001B2E                     u1695:
  7646  001B2E  90D8               	bcf	status,0,c
  7647  001B30  3201               	rrcf	??_Lcd_Cmd,f,c
  7648  001B32  2E02               	decfsz	(??_Lcd_Cmd+1)& (0+255),f,c
  7649  001B34  D7FC               	goto	u1695
  7650  001B36  0E01               	movlw	1
  7651  001B38  1601               	andwf	??_Lcd_Cmd,f,c
  7652  001B3A  3A01               	swapf	??_Lcd_Cmd,f,c
  7653  001B3C  4601               	rlncf	??_Lcd_Cmd,f,c
  7654  001B3E  4601               	rlncf	??_Lcd_Cmd,f,c
  7655  001B40  5083               	movf	3971,w,c	;volatile
  7656  001B42  1801               	xorwf	??_Lcd_Cmd,w,c
  7657  001B44  0BBF               	andlw	-65
  7658  001B46  1801               	xorwf	??_Lcd_Cmd,w,c
  7659  001B48  6E83               	movwf	3971,c	;volatile
  7660                           
  7661                           ;pantalla.h: 151: PORTDbits.RD5 = (data & 0b00100000)>>5; PORTDbits.RD4 = (data & 0b0001
      +                          0000)>>4;
  7662  001B4A  C003  F001         	movff	Lcd_Cmd@data,??_Lcd_Cmd
  7663  001B4E  0E05               	movlw	5
  7664  001B50  6E02               	movwf	(??_Lcd_Cmd+1)& (0+255),c
  7665  001B52                     u1705:
  7666  001B52  90D8               	bcf	status,0,c
  7667  001B54  3201               	rrcf	??_Lcd_Cmd,f,c
  7668  001B56  2E02               	decfsz	(??_Lcd_Cmd+1)& (0+255),f,c
  7669  001B58  D7FC               	goto	u1705
  7670  001B5A  0E01               	movlw	1
  7671  001B5C  1601               	andwf	??_Lcd_Cmd,f,c
  7672  001B5E  3A01               	swapf	??_Lcd_Cmd,f,c
  7673  001B60  4601               	rlncf	??_Lcd_Cmd,f,c
  7674  001B62  5083               	movf	3971,w,c	;volatile
  7675  001B64  1801               	xorwf	??_Lcd_Cmd,w,c
  7676  001B66  0BDF               	andlw	-33
  7677  001B68  1801               	xorwf	??_Lcd_Cmd,w,c
  7678  001B6A  6E83               	movwf	3971,c	;volatile
  7679  001B6C  C003  F001         	movff	Lcd_Cmd@data,??_Lcd_Cmd
  7680  001B70  3A01               	swapf	??_Lcd_Cmd,f,c
  7681  001B72  0E0F               	movlw	15
  7682  001B74  1601               	andwf	??_Lcd_Cmd,f,c
  7683  001B76  0E01               	movlw	1
  7684  001B78  1601               	andwf	??_Lcd_Cmd,f,c
  7685  001B7A  3A01               	swapf	??_Lcd_Cmd,f,c
  7686  001B7C  5083               	movf	3971,w,c	;volatile
  7687  001B7E  1801               	xorwf	??_Lcd_Cmd,w,c
  7688  001B80  0BEF               	andlw	-17
  7689  001B82  1801               	xorwf	??_Lcd_Cmd,w,c
  7690  001B84  6E83               	movwf	3971,c	;volatile
  7691                           
  7692                           ;pantalla.h: 152: _delay((unsigned long)((10)*(4000000/4000000.0)));
  7693  001B86  0E03               	movlw	3
  7694  001B88                     u3577:
  7695  001B88  2EE8               	decfsz	wreg,f,c
  7696  001B8A  D7FE               	goto	u3577
  7697  001B8C  F000               	nop	
  7698                           
  7699                           ;pantalla.h: 153: PORTDbits.RD2 = 1; _delay((unsigned long)((5)*(4000000/4000000.0))); P
      +                          ORTDbits.RD2 = 0;
  7700  001B8E  8483               	bsf	3971,2,c	;volatile
  7701  001B90  F000               	nop	
  7702  001B92  D000               	nop2		;2 cycle nop
  7703  001B94  D000               	nop2		;2 cycle nop
  7704  001B96  9483               	bcf	3971,2,c	;volatile
  7705                           
  7706                           ;pantalla.h: 154: PORTDbits.RD7 = (data & 0b00001000)>>3; PORTDbits.RD6 = (data & 0b0000
      +                          0100)>>2;
  7707  001B98  C003  F001         	movff	Lcd_Cmd@data,??_Lcd_Cmd
  7708  001B9C  90D8               	bcf	status,0,c
  7709  001B9E  3201               	rrcf	??_Lcd_Cmd,f,c
  7710  001BA0  90D8               	bcf	status,0,c
  7711  001BA2  3201               	rrcf	??_Lcd_Cmd,f,c
  7712  001BA4  90D8               	bcf	status,0,c
  7713  001BA6  3201               	rrcf	??_Lcd_Cmd,f,c
  7714  001BA8  0E01               	movlw	1
  7715  001BAA  1601               	andwf	??_Lcd_Cmd,f,c
  7716  001BAC  3201               	rrcf	??_Lcd_Cmd,f,c
  7717  001BAE  3201               	rrcf	??_Lcd_Cmd,f,c
  7718  001BB0  5083               	movf	3971,w,c	;volatile
  7719  001BB2  1801               	xorwf	??_Lcd_Cmd,w,c
  7720  001BB4  0B7F               	andlw	-129
  7721  001BB6  1801               	xorwf	??_Lcd_Cmd,w,c
  7722  001BB8  6E83               	movwf	3971,c	;volatile
  7723  001BBA  C003  F001         	movff	Lcd_Cmd@data,??_Lcd_Cmd
  7724  001BBE  90D8               	bcf	status,0,c
  7725  001BC0  3201               	rrcf	??_Lcd_Cmd,f,c
  7726  001BC2  90D8               	bcf	status,0,c
  7727  001BC4  3201               	rrcf	??_Lcd_Cmd,f,c
  7728  001BC6  0E01               	movlw	1
  7729  001BC8  1601               	andwf	??_Lcd_Cmd,f,c
  7730  001BCA  3A01               	swapf	??_Lcd_Cmd,f,c
  7731  001BCC  4601               	rlncf	??_Lcd_Cmd,f,c
  7732  001BCE  4601               	rlncf	??_Lcd_Cmd,f,c
  7733  001BD0  5083               	movf	3971,w,c	;volatile
  7734  001BD2  1801               	xorwf	??_Lcd_Cmd,w,c
  7735  001BD4  0BBF               	andlw	-65
  7736  001BD6  1801               	xorwf	??_Lcd_Cmd,w,c
  7737  001BD8  6E83               	movwf	3971,c	;volatile
  7738                           
  7739                           ;pantalla.h: 155: PORTDbits.RD5 = (data & 0b00000010)>>1; PORTDbits.RD4 = (data & 0b0000
      +                          0001);
  7740  001BDA  C003  F001         	movff	Lcd_Cmd@data,??_Lcd_Cmd
  7741  001BDE  90D8               	bcf	status,0,c
  7742  001BE0  3201               	rrcf	??_Lcd_Cmd,f,c
  7743  001BE2  0E01               	movlw	1
  7744  001BE4  1601               	andwf	??_Lcd_Cmd,f,c
  7745  001BE6  3A01               	swapf	??_Lcd_Cmd,f,c
  7746  001BE8  4601               	rlncf	??_Lcd_Cmd,f,c
  7747  001BEA  5083               	movf	3971,w,c	;volatile
  7748  001BEC  1801               	xorwf	??_Lcd_Cmd,w,c
  7749  001BEE  0BDF               	andlw	-33
  7750  001BF0  1801               	xorwf	??_Lcd_Cmd,w,c
  7751  001BF2  6E83               	movwf	3971,c	;volatile
  7752  001BF4  C003  F001         	movff	Lcd_Cmd@data,??_Lcd_Cmd
  7753  001BF8  0E01               	movlw	1
  7754  001BFA  1601               	andwf	??_Lcd_Cmd,f,c
  7755  001BFC  3A01               	swapf	??_Lcd_Cmd,f,c
  7756  001BFE  5083               	movf	3971,w,c	;volatile
  7757  001C00  1801               	xorwf	??_Lcd_Cmd,w,c
  7758  001C02  0BEF               	andlw	-17
  7759  001C04  1801               	xorwf	??_Lcd_Cmd,w,c
  7760  001C06  6E83               	movwf	3971,c	;volatile
  7761                           
  7762                           ;pantalla.h: 156: _delay((unsigned long)((10)*(4000000/4000000.0)));;
  7763  001C08  0E03               	movlw	3
  7764  001C0A                     u3587:
  7765  001C0A  2EE8               	decfsz	wreg,f,c
  7766  001C0C  D7FE               	goto	u3587
  7767  001C0E  F000               	nop	
  7768                           
  7769                           ;pantalla.h: 157: PORTDbits.RD2 = 1; _delay((unsigned long)((5)*(4000000/4000000.0))); P
      +                          ORTDbits.RD2 = 0;
  7770  001C10  8483               	bsf	3971,2,c	;volatile
  7771  001C12  F000               	nop	
  7772  001C14  D000               	nop2		;2 cycle nop
  7773  001C16  D000               	nop2		;2 cycle nop
  7774  001C18  9483               	bcf	3971,2,c	;volatile
  7775                           
  7776                           ;pantalla.h: 158: _delay((unsigned long)((5500)*(4000000/4000000.0)));
  7777  001C1A  0E08               	movlw	8
  7778  001C1C  6E01               	movwf	??_Lcd_Cmd& (0+255),c
  7779  001C1E  0E23               	movlw	35
  7780  001C20                     u3597:
  7781  001C20  2EE8               	decfsz	wreg,f,c
  7782  001C22  D7FE               	goto	u3597
  7783  001C24  2E01               	decfsz	??_Lcd_Cmd& (0+255),f,c
  7784  001C26  D7FC               	goto	u3597
  7785  001C28  F000               	nop	
  7786  001C2A  0012               	return	
  7787  001C2C                     __end_of_Lcd_Cmd:
  7788                           	opt stack 0
  7789                           tblptru	equ	0xFF8
  7790                           tblptrh	equ	0xFF7
  7791                           tblptrl	equ	0xFF6
  7792                           tablat	equ	0xFF5
  7793                           prodh	equ	0xFF4
  7794                           prodl	equ	0xFF3
  7795                           intcon2	equ	0xFF1
  7796                           indf0	equ	0xFEF
  7797                           postinc0	equ	0xFEE
  7798                           fsr0h	equ	0xFEA
  7799                           fsr0l	equ	0xFE9
  7800                           wreg	equ	0xFE8
  7801                           indf1	equ	0xFE7
  7802                           postinc1	equ	0xFE6
  7803                           postdec1	equ	0xFE5
  7804                           fsr1h	equ	0xFE2
  7805                           fsr1l	equ	0xFE1
  7806                           indf2	equ	0xFDF
  7807                           postinc2	equ	0xFDE
  7808                           postdec2	equ	0xFDD
  7809                           fsr2h	equ	0xFDA
  7810                           fsr2l	equ	0xFD9
  7811                           status	equ	0xFD8
  7812                           tblptru	equ	0xFF8
  7813                           tblptrh	equ	0xFF7
  7814                           tblptrl	equ	0xFF6
  7815                           tablat	equ	0xFF5
  7816                           prodh	equ	0xFF4
  7817                           prodl	equ	0xFF3
  7818                           intcon2	equ	0xFF1
  7819                           indf0	equ	0xFEF
  7820                           postinc0	equ	0xFEE
  7821                           fsr0h	equ	0xFEA
  7822                           fsr0l	equ	0xFE9
  7823                           wreg	equ	0xFE8
  7824                           indf1	equ	0xFE7
  7825                           postinc1	equ	0xFE6
  7826                           postdec1	equ	0xFE5
  7827                           fsr1h	equ	0xFE2
  7828                           fsr1l	equ	0xFE1
  7829                           indf2	equ	0xFDF
  7830                           postinc2	equ	0xFDE
  7831                           postdec2	equ	0xFDD
  7832                           fsr2h	equ	0xFDA
  7833                           fsr2l	equ	0xFD9
  7834                           status	equ	0xFD8
  7835                           
  7836                           	psect	rparam
  7837  0000                     tblptru	equ	0xFF8
  7838                           tblptrh	equ	0xFF7
  7839                           tblptrl	equ	0xFF6
  7840                           tablat	equ	0xFF5
  7841                           prodh	equ	0xFF4
  7842                           prodl	equ	0xFF3
  7843                           intcon2	equ	0xFF1
  7844                           indf0	equ	0xFEF
  7845                           postinc0	equ	0xFEE
  7846                           fsr0h	equ	0xFEA
  7847                           fsr0l	equ	0xFE9
  7848                           wreg	equ	0xFE8
  7849                           indf1	equ	0xFE7
  7850                           postinc1	equ	0xFE6
  7851                           postdec1	equ	0xFE5
  7852                           fsr1h	equ	0xFE2
  7853                           fsr1l	equ	0xFE1
  7854                           indf2	equ	0xFDF
  7855                           postinc2	equ	0xFDE
  7856                           postdec2	equ	0xFDD
  7857                           fsr2h	equ	0xFDA
  7858                           fsr2l	equ	0xFD9
  7859                           status	equ	0xFD8


Data Sizes:
    Strings     229
    Constant    0
    Data        228
    BSS         62
    Persistent  0
    Stack       0

Auto Spaces:
    Space          Size  Autos    Used
    COMRAM           95     65      89
    BANK0           160      0     146
    BANK1           256      0     120
    BANK2           256      0       0
    BANK3           256      0       0
    BANK4           256      0       0
    BANK5           256      0       0
    BANK6           256      0       0
    BANK7           256      0       0

Pointer List with Targets:

    atoi@s	PTR const unsigned char  size(2) Largest target is 10
		 -> ciclo(BANK0[10]), frecuencia(BANK0[10]), 

    Conv_Entero@conv	PTR unsigned char  size(2) Largest target is 10
		 -> cadena(BANK0[10]), 

    Conv_Entero@punteroActual	PTR unsigned char  size(2) Largest target is 21
		 -> Conv_Entero@convTemp(COMRAM[21]), 

    Imprimir_pantalla@N	PTR unsigned char  size(2) Largest target is 10
		 -> ciclo(BANK0[10]), frecuencia(BANK0[10]), 

    Tec@cadena	PTR unsigned char  size(2) Largest target is 10
		 -> ciclo(BANK0[10]), frecuencia(BANK0[10]), 

    Ciclo@ciclo	PTR unsigned char  size(2) Largest target is 10
		 -> ciclo(BANK0[10]), 

    Frecuencia@frecuencia	PTR unsigned char  size(2) Largest target is 10
		 -> frecuencia(BANK0[10]), 

    Lcd_Out2@buffer	PTR unsigned char  size(2) Largest target is 16
		 -> STR_43(CODE[6]), STR_42(CODE[2]), STR_41(CODE[8]), STR_40(CODE[3]), 
		 -> STR_39(CODE[6]), STR_38(CODE[9]), STR_37(CODE[14]), STR_36(CODE[12]), 
		 -> STR_35(CODE[9]), STR_34(CODE[11]), STR_33(CODE[11]), STR_32(CODE[11]), 
		 -> STR_31(CODE[11]), STR_30(CODE[11]), STR_29(CODE[11]), STR_28(CODE[11]), 
		 -> STR_27(CODE[11]), STR_26(CODE[11]), STR_25(CODE[11]), STR_24(CODE[11]), 
		 -> STR_23(CODE[11]), STR_22(CODE[14]), STR_21(CODE[12]), STR_20(CODE[12]), 
		 -> STR_19(CODE[10]), STR_18(CODE[15]), STR_17(CODE[11]), STR_16(CODE[16]), 
		 -> STR_15(CODE[2]), STR_14(CODE[8]), STR_13(CODE[3]), STR_12(CODE[6]), 
		 -> ciclo(BANK0[10]), frecuencia(BANK0[10]), STR_11(CODE[14]), STR_10(CODE[12]), 
		 -> STR_9(CODE[12]), STR_8(CODE[9]), STR_7(CODE[14]), STR_6(CODE[12]), 
		 -> STR_5(CODE[12]), STR_4(CODE[10]), STR_3(CODE[15]), STR_2(CODE[11]), 
		 -> STR_1(CODE[16]), 

    Lcd_Out@buffer	PTR const unsigned char  size(2) Largest target is 10
		 -> cadena(BANK0[10]), 


Critical Paths under _main in COMRAM

    _main->_TRIANGULAR_GENERAR_2
    _main->_TRIANGULAR_GENERAR_3
    _atoi->___wmul
    _TRIANGULAR_GENERAR_3->___awdiv
    _TRIANGULAR_GENERAR_2->___awdiv
    _PWM_generar->___lldiv
    _Lcd_Out->_Lcd_Chr_CP
    _Lcd_Out->_Lcd_Cmd
    _Imprimir_pantalla->_Lcd_Out2
    _Frecuencia->_Tec
    _Conv_Entero->___aldiv
    _Ciclo->_Tec
    _Tec->_lcd_goto
    _lcd_goto->_Lcd_Cmd
    _Lcd_Out2->_Lcd_Chr_CP
    _Lcd_Out2->_Lcd_Cmd
    _Lcd_Init->_Lcd_Cmd

Critical Paths under _main in BANK0

    None.

Critical Paths under _main in BANK1

    None.

Critical Paths under _main in BANK2

    None.

Critical Paths under _main in BANK3

    None.

Critical Paths under _main in BANK4

    None.

Critical Paths under _main in BANK5

    None.

Critical Paths under _main in BANK6

    None.

Critical Paths under _main in BANK7

    None.

Call Graph Tables:

 ---------------------------------------------------------------------------------
 (Depth) Function   	        Calls       Base Space   Used Autos Params    Refs
 ---------------------------------------------------------------------------------
 (0) _main                                                 6     6      0   39998
                                             59 COMRAM     6     6      0
                              _Ciclo
                        _Conv_Entero
                         _Frecuencia
                  _Imprimir_pantalla
                            _Lcd_Cmd
                           _Lcd_Init
                            _Lcd_Out
                           _Lcd_Out2
                        _PWM_generar
                          _Recuperar
                     _SENO_GENERAR_1
                     _SENO_GENERAR_2
                     _SENO_GENERAR_3
               _TRIANGULAR_GENERAR_1
               _TRIANGULAR_GENERAR_2
               _TRIANGULAR_GENERAR_3
                               _atoi
                        _int_teclado
                              _tm_1s
 ---------------------------------------------------------------------------------
 (1) _int_teclado                                          0     0      0       0
 ---------------------------------------------------------------------------------
 (1) _atoi                                                 7     5      2     839
                                              6 COMRAM     7     5      2
                             ___wmul
                            _isdigit
 ---------------------------------------------------------------------------------
 (2) _isdigit                                              3     3      0      68
                                              0 COMRAM     3     3      0
 ---------------------------------------------------------------------------------
 (2) ___wmul                                               6     2      4     287
                                              0 COMRAM     6     2      4
 ---------------------------------------------------------------------------------
 (1) _TRIANGULAR_GENERAR_3                                51    51      0     901
                                              8 COMRAM    51    51      0
                            ___awdiv
 ---------------------------------------------------------------------------------
 (1) _TRIANGULAR_GENERAR_2                                51    51      0     901
                                              8 COMRAM    51    51      0
                            ___awdiv
 ---------------------------------------------------------------------------------
 (2) ___awdiv                                              8     4      4     556
                                              0 COMRAM     8     4      4
 ---------------------------------------------------------------------------------
 (1) _TRIANGULAR_GENERAR_1                                51    51      0     254
                                              0 COMRAM    51    51      0
 ---------------------------------------------------------------------------------
 (1) _SENO_GENERAR_3                                      41    41      0     254
                                              0 COMRAM    41    41      0
 ---------------------------------------------------------------------------------
 (1) _SENO_GENERAR_2                                      47    47      0     254
                                              0 COMRAM    47    47      0
 ---------------------------------------------------------------------------------
 (1) _SENO_GENERAR_1                                      51    51      0     254
                                              0 COMRAM    51    51      0
 ---------------------------------------------------------------------------------
 (1) _PWM_generar                                         20    16      4    1536
                                             13 COMRAM    20    16      4
                            ___lldiv
                             ___lmul
 ---------------------------------------------------------------------------------
 (2) ___lldiv                                             13     5      8     418
                                              0 COMRAM    13     5      8
 ---------------------------------------------------------------------------------
 (1) _Lcd_Out                                              5     2      3    1045
                                              3 COMRAM     5     2      3
                         _Lcd_Chr_CP
                            _Lcd_Cmd
 ---------------------------------------------------------------------------------
 (1) _Imprimir_pantalla                                    4     2      2    6959
                                              8 COMRAM     4     2      2
                            _Lcd_Cmd
                           _Lcd_Init
                           _Lcd_Out2
                          _Recuperar
                              _tm_1s
 ---------------------------------------------------------------------------------
 (1) _tm_1s                                                1     1      0       0
                                              0 COMRAM     1     1      0
 ---------------------------------------------------------------------------------
 (1) _Frecuencia                                           2     0      2    8523
                                             20 COMRAM     2     0      2
                            _Lcd_Cmd
                           _Lcd_Init
                           _Lcd_Out2
                                _Tec
 ---------------------------------------------------------------------------------
 (1) _Conv_Entero                                         41    35      6    2273
                                             14 COMRAM    41    35      6
                            ___aldiv
                            ___almod
                             ___lmul
 ---------------------------------------------------------------------------------
 (2) ___lmul                                              12     4      8     450
                                              0 COMRAM    12     4      8
 ---------------------------------------------------------------------------------
 (2) ___almod                                             10     2      8     424
                                              0 COMRAM    10     2      8
 ---------------------------------------------------------------------------------
 (2) ___aldiv                                             14     6      8     428
                                              0 COMRAM    14     6      8
 ---------------------------------------------------------------------------------
 (1) _Ciclo                                                2     0      2    8523
                                             20 COMRAM     2     0      2
                            _Lcd_Cmd
                           _Lcd_Init
                           _Lcd_Out2
                                _Tec
 ---------------------------------------------------------------------------------
 (2) _Tec                                                 10     8      2    1718
                                             10 COMRAM    10     8      2
                         _Lcd_Chr_CP
                          _Recuperar
                           _lcd_goto
 ---------------------------------------------------------------------------------
 (3) _lcd_goto                                             7     3      4     824
                                              3 COMRAM     7     3      4
                            _Lcd_Cmd
 ---------------------------------------------------------------------------------
 (1) _Recuperar                                            1     1      0      24
                                              0 COMRAM     1     1      0
                            _Teclado
 ---------------------------------------------------------------------------------
 (2) _Teclado                                              0     0      0       0
 ---------------------------------------------------------------------------------
 (1) _Lcd_Out2                                             5     2      3    6165
                                              3 COMRAM     5     2      3
                         _Lcd_Chr_CP
                            _Lcd_Cmd
 ---------------------------------------------------------------------------------
 (2) _Lcd_Chr_CP                                           3     3      0     176
                                              0 COMRAM     3     3      0
 ---------------------------------------------------------------------------------
 (1) _Lcd_Init                                             2     2      0     314
                                              3 COMRAM     2     2      0
                            _Lcd_Cmd
 ---------------------------------------------------------------------------------
 (2) _Lcd_Cmd                                              3     3      0     176
                                              0 COMRAM     3     3      0
 ---------------------------------------------------------------------------------
 Estimated maximum stack depth 3
 ---------------------------------------------------------------------------------

 Call Graph Graphs:

 _main (ROOT)
   _Ciclo
     _Lcd_Cmd
     _Lcd_Init
       _Lcd_Cmd
     _Lcd_Out2
       _Lcd_Chr_CP
       _Lcd_Cmd
     _Tec
       _Lcd_Chr_CP
       _Recuperar
         _Teclado
       _lcd_goto
         _Lcd_Cmd
   _Conv_Entero
     ___aldiv
     ___almod
     ___lmul
   _Frecuencia
     _Lcd_Cmd
     _Lcd_Init
       _Lcd_Cmd
     _Lcd_Out2
       _Lcd_Chr_CP
       _Lcd_Cmd
     _Tec
       _Lcd_Chr_CP
       _Recuperar
         _Teclado
       _lcd_goto
         _Lcd_Cmd
   _Imprimir_pantalla
     _Lcd_Cmd
     _Lcd_Init
       _Lcd_Cmd
     _Lcd_Out2
       _Lcd_Chr_CP
       _Lcd_Cmd
     _Recuperar
       _Teclado
     _tm_1s
   _Lcd_Cmd
   _Lcd_Init
     _Lcd_Cmd
   _Lcd_Out
     _Lcd_Chr_CP
     _Lcd_Cmd
   _Lcd_Out2
     _Lcd_Chr_CP
     _Lcd_Cmd
   _PWM_generar
     ___lldiv
     ___lmul
   _Recuperar
     _Teclado
   _SENO_GENERAR_1
   _SENO_GENERAR_2
   _SENO_GENERAR_3
   _TRIANGULAR_GENERAR_1
   _TRIANGULAR_GENERAR_2
     ___awdiv
   _TRIANGULAR_GENERAR_3
     ___awdiv
   _atoi
     ___wmul
     _isdigit
   _int_teclado
   _tm_1s

 Address spaces:
Name               Size   Autos  Total    Cost      Usage
BIGRAM             7FF      0       0      21        0.0%
EEDATA             100      0       0       0        0.0%
BITBANK7           100      0       0      19        0.0%
BANK7              100      0       0      20        0.0%
BITBANK6           100      0       0      17        0.0%
BANK6              100      0       0      18        0.0%
BITBANK5           100      0       0      15        0.0%
BANK5              100      0       0      16        0.0%
BITBANK4           100      0       0      13        0.0%
BANK4              100      0       0      14        0.0%
BITBANK3           100      0       0      11        0.0%
BANK3              100      0       0      12        0.0%
BITBANK2           100      0       0       9        0.0%
BANK2              100      0       0      10        0.0%
BITBANK1           100      0       0       7        0.0%
BANK1              100      0      78       8       46.9%
BITBANK0            A0      0       0       4        0.0%
BANK0               A0      0      92       5       91.2%
BITCOMRAM           5F      0       0       0        0.0%
COMRAM              5F     41      59       1       93.7%
BITSFR_1             0      0       0      40        0.0%
SFR_1                0      0       0      40        0.0%
BITSFR               0      0       0      40        0.0%
SFR                  0      0       0      40        0.0%
STACK                0      0       0       2        0.0%
NULL                 0      0       0       0        0.0%
ABS                  0      0     163       6        0.0%
DATA                 0      0     163       3        0.0%
CODE                 0      0       0       0        0.0%


Microchip Technology PIC18 Macro Assembler V1.32 build 58300 
Symbol Table                                                                                   Fri May 17 18:09:28 2019

                              _a 0058                                _d 0042  
                              _e 0044                                _f 0046  
                              _g 0048                                _q 004A  
                              _r 004C                                _s 004E  
                              _t 0050                                _w 0052  
                             l46 193A                     ___awdiv@sign 0006  
            ___wmul@multiplicand 0003                     __CFG_CP0$OFF 000000  
                   __CFG_CP1$OFF 000000                     __CFG_CP2$OFF 000000  
                   __CFG_CP3$OFF 000000                PWM_generar@PR2cal 001A  
                            l312 2070                              l330 1F76  
                            l315 20EE                              l404 16EC  
                            l333 1FF4                              l422 15A2  
                            l351 1EFA                              l407 176A  
                            l280 23A6                              l272 236A  
                            l281 23B2                              l425 1620  
                            l282 23BA                              l274 2372  
                            l283 23C2                              l275 237A  
                            l284 23CA                              l276 2382  
                            l348 1E7C                              l285 23D6  
                            l277 238E                              l286 23DE  
                            l278 2396                              l614 22AC  
                            l287 23E6                              l279 239E  
                            l288 23EE                              l386 1D82  
                            l901 2582                              l389 1E00  
                   __CFG_CPB$OFF 000000                              _PR2 000FBB  
                   __CFG_CPD$OFF 000000                              _Tec 19E0  
                            _cad 00CA                              _key 0057  
                            wreg 000FE8                   _SENO_GENERAR_1 2016  
                 _SENO_GENERAR_2 1F1C                   _SENO_GENERAR_3 1E22  
                   __CFG_LVP$OFF 000000                             ?_Tec 000B  
                           l3011 2240                             l3015 227A  
                           l3007 2230                             l3033 13A0  
                           l3051 149E                             l3055 14C4  
                           l3047 145E                             l3071 1174  
                           l3127 1D60                             l3215 1580  
                           l3145 1E08                             l3137 1D8A  
                           l3233 1628                             l3225 15AA  
                           l3075 11C4                             l3171 16CA  
                           l2701 2412                             l3317 1FFC  
                           l3309 1F7E                             l3341 1E5A  
                           l3181 16F4                             l2703 242C  
                           l2631 27B6                             l3351 1E84  
                           l2705 2434                             l2633 27BC  
                           l3257 204E                             l3441 08FA  
                           l2627 27AA                             l2731 1A56  
                           l2715 1A10                             l3275 20F6  
                           l3267 2078                             l3603 0B7C  
                           l3531 0A68                             l2709 245C  
                           l2629 27B0                             l2637 27C4  
                           l2733 1A5C                             l2805 1CB2  
                           l2821 1D00                             l2901 231C  
                           l3189 1772                             l3621 0BC0  
                           l3605 0B84                             l2639 27EE  
                           l2807 1CBE                             l3359 1F02  
                           l3631 0BE2                             l3447 0910  
                           l2825 1D16                             l2817 1CF2  
                           l2809 1CC2                             l2841 2170  
                           l2913 2342                             l3481 09AE  
                           l2691 23F8                             l2755 1ABC  
                           l2739 1A76                             l2747 1AA4  
                           l2931 2544                             l3299 1F54  
                           l3723 0D38                             l3715 0D1E  
                           l3651 0C24                             l3635 0BF2  
                           l3491 09D4                             l3483 09B6  
                           l2693 23FE                             l2861 21DA  
                           l2853 21B6                             l2845 2182  
                           l2837 2144                             l2781 2776  
                           l2917 2350                             l2909 2338  
                           l3813 0EC4                             l3741 0D7C  
                           l3725 0D40                             l3629 0BDA  
                           l3637 0BFA                             l3485 09BE  
                           l2695 2404                             l2767 1AF4  
                           l2847 218E                             l2951 2706  
                           l2927 2534                             l3911 10E2  
                           l3831 0F2A                             l3807 0EAC  
                           l3751 0D9E                             l2697 240A  
                           l2793 1C60                             l2849 2192  
                           l2857 21C4                             l2777 2762  
                           l2945 26F4                             l2929 2540  
                           l2873 28D0                             l3825 0F12  
                           l3809 0EB4                             l3833 0F32  
                           l3761 0DC6                             l3577 0B1E  
                           l3569 0B04                             l2963 2742  
                           l2947 26FA                             l2955 270E  
                           l2939 2574                             l2891 22FA  
                           l3827 0F1A                             l3755 0DAE  
                           l3595 0B62                             l3579 0B26  
                           l2949 2700                             l2957 2728  
                           l2885 22DA                             l3749 0D96  
                           l3757 0DB6                             l2799 1C90  
                           l2959 2730                             l3871 1054  
                           l3863 1036                             l2897 2310  
                           l3857 1020                             l3865 103E  
                           l3873 105C                             l3697 0CDA  
                           l3689 0CC0                             l3881 107A  
                           l2899 2318                             l2995 21EE  
                           l3795 0E5E                             l3779 0E14  
                           l3699 0CE2                             l2997 21F2  
                           l3879 1072                             l3897 10B6  
                           STR_1 0801                             STR_2 08A6  
                           STR_3 0811                             STR_4 08B1  
                           STR_5 0856                             STR_6 0862  
                           STR_7 083C                             STR_8 08C4  
                           STR_9 086E                             u2115 212C  
                           u2125 215C                             u2055 1C48  
                           u2400 11B0                             u2065 1C78  
                           u2405 11A6                             u2430 1300  
                           u2511 1654                             u1705 1B52  
                           u2425 1254                             u2441 1D3A  
                           u2355 1368                             u2435 12F6  
                           u2390 115A                             u2375 1448  
                           u3407 24C2                             u1920 2454  
                           u3417 24D0                             u2721 1F2E  
                           u1930 247C                             u3507 18EA  
                           u3427 24DE                             u2395 1150  
                           u2651 2028                             u1685 1B14  
                           u3517 18FA                             u3437 24EC  
                           u2581 150A                             u3357 0990  
                           u1695 1B2E                             u3527 190A  
                           u1927 244A                             u3447 24FA  
                           u3367 248A                             u3537 191A  
                           u1937 2472                             u3457 2508  
                           u3377 2498                             u3547 192A  
                           u3467 180E                             u1875 179A  
                           u3387 24A6                             u3557 196A  
                           u3477 1890                             u1885 17B4  
                           u3397 24B4                             u3567 19AC  
                           u3487 18AC                             u1895 17D8  
                           u2791 1E34                             u3577 1B88  
                           u3497 18DA                             u3587 1C0A  
                           u3597 1C20                             _TMR2 000FBC  
                           Tec@i 000D                             Tec@j 0012  
                           _fila 0056                             _atoi 21EC  
                    _PWM_generar 10EC                             _main 08E8  
                           fsr0h 000FEA                             indf0 000FEF  
                           fsr0l 000FE9                             fsr2h 000FDA  
                           indf1 000FE7                             fsr1l 000FE1  
                           indf2 000FDF                             fsr2l 000FD9  
                  __CFG_BORV$190 000000                     lcd_goto@data 000A  
                           prodh 000FF4                             prodl 000FF3  
                           start 0000                    __CFG_IESO$OFF 000000  
                __end_of_Lcd_Cmd 1C2C                  __end_of_Lcd_Out 2752  
                  __CFG_MCLRE$ON 000000                       _Lcd_Chr_CP 178C  
                          ??_Tec 000D                  __end_of_Teclado 23F4  
                 Lcd_Out2@buffer 0005              __end_of_Conv_Entero 14F8  
                __end_of___aldiv 1D28                            ?_atoi 0007  
                __end_of___almod 21EC                            ?_main 0001  
                __end_of___awdiv 235A                            STR_10 084A  
                          STR_11 082E                            STR_20 0856  
                          STR_12 08D5                            STR_21 0862  
                          STR_13 08E1                            STR_30 0885  
                          STR_22 083C                            STR_14 08CD  
                          STR_31 089B                            STR_15 08E4  
                          STR_23 087A                            STR_16 0801  
                          STR_32 087A                            STR_40 08E1  
                          STR_24 0885                            STR_41 08CD  
                          STR_33 0890                            STR_17 08A6  
                          STR_25 089B                            STR_42 08E4  
                          STR_26 087A                            STR_34 089B  
                          STR_18 0811                            STR_19 08B1  
                          STR_35 08C4                            STR_43 08DB  
                          STR_27 0890                            STR_28 089B  
                          STR_36 086E                            STR_29 087A  
                          STR_37 0820                            STR_38 08BB  
                          STR_39 08D5                  __end_of___lldiv 2594  
                ___awdiv@divisor 0003                            _T2CON 000FBA  
         __end_of_SENO_GENERAR_1 2110           __end_of_SENO_GENERAR_2 2016  
         __end_of_SENO_GENERAR_3 1F1C                  ___awdiv@counter 0005  
                          _PORTB 000F81                            _TRISB 000F93  
                          _Ciclo 2862                    __CFG_WRT0$OFF 000000  
                  __CFG_WRT1$OFF 000000                    __CFG_WRT2$OFF 000000  
            ___lmul@multiplicand 0005                    __CFG_WRT3$OFF 000000  
                 __CFG_EBTR0$OFF 000000                   __CFG_FCMEN$OFF 000000  
                 __CFG_EBTR1$OFF 000000                   __CFG_EBTR2$OFF 000000  
                 __CFG_EBTR3$OFF 000000                    Recuperar@tecl 0001  
                  __CFG_WRTB$OFF 000000                    __CFG_WRTC$OFF 000000  
                  __CFG_WRTD$OFF 000000                   __CFG_EBTRB$OFF 000000  
                          _ciclo 00DE                      Tec@contador 0010  
                          _tm_1s 2484                  __end_of_isdigit 28D8  
                          atoi@a 000C                            atoi@s 0007  
                   ?_int_teclado 0001                            tablat 000FF5  
                     _Frecuencia 2832                            status 000FD8  
                 __CFG_T3CMX$RC0 000000                   __CFG_ICPRT$OFF 000000  
                 __CFG_PBADEN$ON 000000                 __end_of_Lcd_Init 19E0  
               __end_of_Lcd_Out2 2484                  __initialization 2594  
                   __end_of_atoi 22B6                     __end_of_main 10EC  
              _Imprimir_pantalla 27F6               ?_Imprimir_pantalla 0009  
                         ??_atoi 0009                           ??_main 003C  
                  __activetblptr 000002                  ?_SENO_GENERAR_1 0001  
                ?_SENO_GENERAR_2 0001                  ?_SENO_GENERAR_3 0001  
                         ?_Ciclo 0015              ??_Imprimir_pantalla 000B  
                 __CFG_SDOMX$RB3 000000                  __CFG_CCP2MX$RC1 000000  
                         ?_tm_1s 0001                           _CCPR2L 000F90  
               ___awdiv@dividend 0001  TRIANGULAR_GENERAR_1@valoresSeno 0006  
                         _ANSELB 000F5C                           _ANSELC 000F5D  
                         _ANSELD 000F5E                   __CFG_WDTEN$OFF 000000  
                         _OSCCON 000FD3                        ??_Lcd_Cmd 0001  
                      ??_Lcd_Out 0007                           Tec@Key 0014  
                         Tec@aux 000F                        ??_Teclado 0001  
                 __CFG_XINST$OFF 000000        __end_of_Imprimir_pantalla 2832  
                    _Conv_Entero 1320               Imprimir_pantalla@N 0009  
               __end_of_lcd_goto 27F6                  SENO_GENERAR_1@i 0032  
                SENO_GENERAR_1@j 0030                  SENO_GENERAR_1@k 002E  
                SENO_GENERAR_2@i 002E                  SENO_GENERAR_2@j 002C  
                SENO_GENERAR_2@k 002A                  SENO_GENERAR_3@i 0028  
                SENO_GENERAR_3@j 0026                  SENO_GENERAR_3@k 0024  
                         ___lmul 2752                      ?_Lcd_Chr_CP 0001  
                      ??___aldiv 0009                           _cadena 00D4  
                      ??___almod 0009                           ___wmul 2892  
                      ??___awdiv 0005                   __CFG_STVREN$ON 000000  
             __size_of_Recuperar 000E                        ??___lldiv 0009  
           PWM_generar@AuxCCPR2L 001E              SENO_GENERAR_1@F7354 0060  
            SENO_GENERAR_2@F7359 0088              SENO_GENERAR_3@F7364 00AC  
                         clear_0 259A                           clear_1 25A6  
               ___awdiv@quotient 0007                           main@zx 003D  
                   __pdataCOMRAM 0058                        ??_isdigit 0001  
                   __mediumconst 0000                           tblptrh 000FF7  
                         tblptrl 000FF6                           tblptru 000FF8  
TRIANGULAR_GENERAR_2@valoresSeno 000E             __CFG_LS48MHZ$SYS24X4 000000  
                    ?_Frecuencia 0015                       __accesstop 0060  
        __end_of__initialization 2604                    __end_of_Ciclo 2892  
                 __pcstackCOMRAM 0001                     __pidataBANK0 2686  
                   __pidataBANK1 260E                    __end_of_tm_1s 2512  
                __CFG_PCLKEN$OFF 000000                          ??_Ciclo 0017  
                      ?_Lcd_Init 0001                        ?_Lcd_Out2 0004  
                        ??_tm_1s 0001                __end_of_Recuperar 28E6  
            __size_of_Lcd_Chr_CP 012C  TRIANGULAR_GENERAR_3@valoresSeno 000E  
                     __pbssBANK0 00CA                     ?_PWM_generar 000E  
           __size_of_int_teclado 000A       __size_of_Imprimir_pantalla 003C  
              __CFG_PLLSEL$PLL4X 000000                          ?___lmul 0001  
                        ?___wmul 0001    __size_of_TRIANGULAR_GENERAR_1 00FA  
  __size_of_TRIANGULAR_GENERAR_2 014A    __size_of_TRIANGULAR_GENERAR_3 014A  
                        _CCP2CON 000F97                   ___lmul@product 0009  
            __size_of_Frecuencia 0030            TRIANGULAR_GENERAR_1@i 0032  
          TRIANGULAR_GENERAR_1@j 0030            TRIANGULAR_GENERAR_1@k 002E  
          TRIANGULAR_GENERAR_2@i 003A            TRIANGULAR_GENERAR_2@j 0038  
          TRIANGULAR_GENERAR_2@k 0036            TRIANGULAR_GENERAR_3@i 003A  
          TRIANGULAR_GENERAR_3@j 0038            TRIANGULAR_GENERAR_3@k 0036  
                     ??_Lcd_Init 0004                       ??_Lcd_Out2 0007  
                      ?_lcd_goto 0004                          _Lcd_Cmd 1B06  
                        _Lcd_Out 26F0                       _frecuencia 00E8  
                        __Hparam 0000                          _Teclado 235A  
                        __Lparam 0000                          ___aldiv 1C2C  
                        ___almod 2110                          ___awdiv 22B6  
                __size_of___lmul 0056                          ___lldiv 2512  
                __size_of___wmul 0026                 ??_SENO_GENERAR_1 0001  
               ??_SENO_GENERAR_2 0001                 ??_SENO_GENERAR_3 0001  
                   __psmallconst 0800                          __pcinit 2594  
          PWM_generar@AuxCCP2CON 0018                          __ramtop 0800  
                        __ptext0 08E8                          __ptext1 28E6  
                        __ptext2 21EC                          __ptext3 28B8  
                        __ptext4 2892                          __ptext5 14F8  
                        __ptext6 1642                          __ptext7 22B6  
                        __ptext8 1D28                          __ptext9 1E22  
                        _columna 0055                     __size_of_Tec 0126  
                      _T2CONbits 000FBA                          _isdigit 28B8  
               ___aldiv@dividend 0001                          main@key 0041  
                     ??_lcd_goto 0008             end_of_initialization 2604  
                  __Lmediumconst 0000        TRIANGULAR_GENERAR_1@F7354 0100  
      TRIANGULAR_GENERAR_2@F7359 0128        TRIANGULAR_GENERAR_3@F7364 0150  
                ___lldiv@divisor 0005                  ___lldiv@counter 000D  
                   ?_Conv_Entero 000F                 ___aldiv@quotient 000B  
                   ??_Lcd_Chr_CP 0001                        Lcd_Out2@x 0004  
                      Lcd_Out2@y 0007                          postdec1 000FE5  
                        postdec2 000FDD                          postinc0 000FEE  
                        postinc1 000FE6                          postinc2 000FDE  
                      _PORTAbits 000F80                        _PORTBbits 000F81  
                      _PORTCbits 000F82                  Conv_Entero@conv 0013  
                      _PORTDbits 000F83                        _TRISAbits 000F92  
                      _TRISCbits 000F94                        _TRISDbits 000F95  
           Frecuencia@frecuencia 0015               __end_of_Lcd_Chr_CP 18B8  
                   ??_Frecuencia 0017                        Tec@cadena 000B  
                     main@zx_308 003F             __size_of_PWM_generar 0234  
                 __end_of___lmul 27A8                   __end_of___wmul 28B8  
                  __pidataCOMRAM 28F0               __end_of_Frecuencia 2862  
            start_initialization 2594                      __end_of_Tec 1B06  
                  Lcd_Out@buffer 0005                __size_of_Lcd_Init 0128  
              __size_of_Lcd_Out2 0090                  __CFG_nLPBOR$OFF 000000  
                      _Recuperar 28D8                         ??___lmul 0009  
           Conv_Entero@numeroReg 0034                         ??___wmul 0005  
          Imprimir_pantalla@fila 000B                      __pdataBANK0 0060  
                    __pdataBANK1 0100                      __pbssCOMRAM 0042  
            __end_of__stringdata 08E6                  __CFG_nPWRTEN$ON 000000  
   __end_of_TRIANGULAR_GENERAR_1 1E22     __end_of_TRIANGULAR_GENERAR_2 178C  
   __end_of_TRIANGULAR_GENERAR_3 1642                     _isdigit$1196 0002  
                  ??_int_teclado 0001        SENO_GENERAR_1@valoresSeno 0006  
                       ?_Lcd_Cmd 0001                __size_of_lcd_goto 004E  
                       ?_Lcd_Out 0004                       ?_Recuperar 0001  
                       ?_Teclado 0001                         ?___aldiv 0001  
                       ?___almod 0001                         ?___awdiv 0001  
                       ?___lldiv 0001             __size_of_Conv_Entero 01D8  
               ___almod@dividend 0001           PWM_generar@prescalador 0016  
                    __smallconst 0800                         ?_isdigit 0001  
                 __size_of_Ciclo 0030                   __size_of_tm_1s 008E  
      SENO_GENERAR_2@valoresSeno 0006                  ___aldiv@divisor 0005  
                ___aldiv@counter 0009                   ___wmul@product 0005  
            __end_of_int_teclado 28F0                         Lcd_Out@x 0004  
               __CFG_WDTPS$32768 000000                         Lcd_Out@y 0007  
                 Conv_Entero@num 002F                     Lcd_Init@data 0005  
                    __stringdata 0801                ___wmul@multiplier 0001  
                      lcd_goto@x 0004                        lcd_goto@y 0006  
                PWM_generar@fpwm 0010                  PWM_generar@duty 000E  
              __CFG_CFGPLLEN$OFF 000000                     Lcd_Out2@data 0008  
                       _Lcd_Init 18B8                         _Lcd_Out2 23F4  
            Conv_Entero@convTemp 001A                ___lmul@multiplier 0001  
                    _INTCON2bits 000FF1                        copy_data0 25C0  
                      copy_data1 25E0        SENO_GENERAR_3@valoresSeno 0006  
                    ??_Recuperar 0001                 __size_of_Lcd_Cmd 0126  
               __size_of_Lcd_Out 0062                         __Hrparam 0000  
                       __Lrparam 0000                 __size_of_Teclado 009A  
             __CFG_BOREN$SBORDIS 000000             _TRIANGULAR_GENERAR_1 1D28  
           _TRIANGULAR_GENERAR_2 1642             _TRIANGULAR_GENERAR_3 14F8  
               __size_of___aldiv 00FC                 __size_of___almod 00DC  
               __size_of___awdiv 00A4                 __size_of___lldiv 0082  
                       _cantidad 0054                 __size_of_isdigit 0020  
                 Lcd_Chr_CP@data 0003          __size_of_SENO_GENERAR_1 00FA  
        __size_of_SENO_GENERAR_2 00FA          __size_of_SENO_GENERAR_3 00FA  
                       __ptext10 1F1C                         __ptext11 2016  
                       __ptext20 2110                         __ptext12 10EC  
                       __ptext21 1C2C                         __ptext13 2512  
                       __ptext30 1B06                         __ptext22 2862  
                       __ptext14 26F0                         __ptext23 19E0  
                       __ptext15 27F6                         __ptext24 27A8  
                       __ptext16 2484                         __ptext25 28D8  
                       __ptext17 2832                         __ptext26 235A  
                       __ptext18 1320                         __ptext27 23F4  
                       __ptext19 2752                         __ptext28 178C  
                       __ptext29 18B8                         _lcd_goto 27A8  
                ___almod@divisor 0005                  ___almod@counter 0009  
                    _int_teclado 28E6                    ??_PWM_generar 0012  
                    Lcd_Cmd@data 0003                    __size_of_atoi 00CA  
                  __size_of_main 0804            ?_TRIANGULAR_GENERAR_1 0001  
          ?_TRIANGULAR_GENERAR_2 0001            ?_TRIANGULAR_GENERAR_3 0001  
                       atoi@sign 000B                       Ciclo@ciclo 0015  
       Imprimir_pantalla@columna 000C                      Lcd_Out@data 0008  
                       isdigit@c 0003                 ___lldiv@dividend 0001  
       Conv_Entero@punteroActual 0032              __end_of_PWM_generar 1320  
                   Conv_Entero@i 0031             __CFG_CPUDIV$NOCLKDIV 000000  
              Conv_Entero@numero 000F                 ___lldiv@quotient 0009  
                   ___aldiv@sign 000A               __CFG_FOSC$INTOSCIO 000000  
                   ___almod@sign 000A                    ??_Conv_Entero 0015  
         ??_TRIANGULAR_GENERAR_1 0001           ??_TRIANGULAR_GENERAR_2 0009  
         ??_TRIANGULAR_GENERAR_3 0009  
